SF:C:\Users\Admin\RustProjects\RustBD\src\analyzer\access_checker.rs
FN:183,_RNCNvMs1_NtNtCsioRnW7FrYT6_6rustdb8analyzer14access_checkerNtB7_4User14has_permission0Bb_
FN:36,_RNvMNtNtCsioRnW7FrYT6_6rustdb8analyzer14access_checkerNtB2_17AccessCheckResult11add_warning
FN:22,_RNvMNtNtCsioRnW7FrYT6_6rustdb8analyzer14access_checkerNtB2_17AccessCheckResult3new
FN:31,_RNvMNtNtCsioRnW7FrYT6_6rustdb8analyzer14access_checkerNtB2_17AccessCheckResult9add_error
FN:149,_RNvMs0_NtNtCsioRnW7FrYT6_6rustdb8analyzer14access_checkerNtB5_4Role14has_permission
FN:144,_RNvMs0_NtNtCsioRnW7FrYT6_6rustdb8analyzer14access_checkerNtB5_4Role15with_permission
FN:119,_RNvMs0_NtNtCsioRnW7FrYT6_6rustdb8analyzer14access_checkerNtB5_4Role3new
FN:127,_RNvMs0_NtNtCsioRnW7FrYT6_6rustdb8analyzer14access_checkerNtB5_4Role5admin
FN:176,_RNvMs1_NtNtCsioRnW7FrYT6_6rustdb8analyzer14access_checkerNtB5_4User14has_permission
FN:163,_RNvMs1_NtNtCsioRnW7FrYT6_6rustdb8analyzer14access_checkerNtB5_4User3new
FN:186,_RNvMs1_NtNtCsioRnW7FrYT6_6rustdb8analyzer14access_checkerNtB5_4User8is_admin
FN:171,_RNvMs1_NtNtCsioRnW7FrYT6_6rustdb8analyzer14access_checkerNtB5_4User9with_role
FN:218,_RNvMs2_NtNtCsioRnW7FrYT6_6rustdb8analyzer14access_checkerNtB5_10AccessRule12grant_public
FN:210,_RNvMs2_NtNtCsioRnW7FrYT6_6rustdb8analyzer14access_checkerNtB5_10AccessRule13grant_to_user
FN:223,_RNvMs2_NtNtCsioRnW7FrYT6_6rustdb8analyzer14access_checkerNtB5_10AccessRule16check_permission
FN:201,_RNvMs2_NtNtCsioRnW7FrYT6_6rustdb8analyzer14access_checkerNtB5_10AccessRule3new
FN:554,_RNvMs3_NtNtCsioRnW7FrYT6_6rustdb8analyzer14access_checkerNtB5_13AccessChecker10is_enabled
FN:279,_RNvMs3_NtNtCsioRnW7FrYT6_6rustdb8analyzer14access_checkerNtB5_13AccessChecker10permissive
FN:549,_RNvMs3_NtNtCsioRnW7FrYT6_6rustdb8analyzer14access_checkerNtB5_13AccessChecker11set_enabled
FN:342,_RNvMs3_NtNtCsioRnW7FrYT6_6rustdb8analyzer14access_checkerNtB5_13AccessChecker15add_access_rule
FN:293,_RNvMs3_NtNtCsioRnW7FrYT6_6rustdb8analyzer14access_checkerNtB5_13AccessChecker15check_statement
FN:579,_RNvMs3_NtNtCsioRnW7FrYT6_6rustdb8analyzer14access_checkerNtB5_13AccessChecker15get_access_rule
FN:379,_RNvMs3_NtNtCsioRnW7FrYT6_6rustdb8analyzer14access_checkerNtB5_13AccessChecker16check_permission
FN:574,_RNvMs3_NtNtCsioRnW7FrYT6_6rustdb8analyzer14access_checkerNtB5_13AccessChecker16get_access_rules
FN:347,_RNvMs3_NtNtCsioRnW7FrYT6_6rustdb8analyzer14access_checkerNtB5_13AccessChecker16grant_permission
FN:362,_RNvMs3_NtNtCsioRnW7FrYT6_6rustdb8analyzer14access_checkerNtB5_13AccessChecker17revoke_permission
FN:559,_RNvMs3_NtNtCsioRnW7FrYT6_6rustdb8analyzer14access_checkerNtB5_13AccessChecker17set_default_allow
FN:519,_RNvMs3_NtNtCsioRnW7FrYT6_6rustdb8analyzer14access_checkerNtB5_13AccessChecker18check_table_access
FN:468,_RNvMs3_NtNtCsioRnW7FrYT6_6rustdb8analyzer14access_checkerNtB5_13AccessChecker19check_delete_access
FN:448,_RNvMs3_NtNtCsioRnW7FrYT6_6rustdb8analyzer14access_checkerNtB5_13AccessChecker19check_insert_access
FN:416,_RNvMs3_NtNtCsioRnW7FrYT6_6rustdb8analyzer14access_checkerNtB5_13AccessChecker19check_select_access
FN:458,_RNvMs3_NtNtCsioRnW7FrYT6_6rustdb8analyzer14access_checkerNtB5_13AccessChecker19check_update_access
FN:509,_RNvMs3_NtNtCsioRnW7FrYT6_6rustdb8analyzer14access_checkerNtB5_13AccessChecker23check_drop_table_access
FN:499,_RNvMs3_NtNtCsioRnW7FrYT6_6rustdb8analyzer14access_checkerNtB5_13AccessChecker24check_alter_table_access
FN:478,_RNvMs3_NtNtCsioRnW7FrYT6_6rustdb8analyzer14access_checkerNtB5_13AccessChecker25check_create_table_access
FN:262,_RNvMs3_NtNtCsioRnW7FrYT6_6rustdb8analyzer14access_checkerNtB5_13AccessChecker3new
FN:337,_RNvMs3_NtNtCsioRnW7FrYT6_6rustdb8analyzer14access_checkerNtB5_13AccessChecker8add_user
FN:286,_RNvMs3_NtNtCsioRnW7FrYT6_6rustdb8analyzer14access_checkerNtB5_13AccessChecker8disabled
FN:569,_RNvMs3_NtNtCsioRnW7FrYT6_6rustdb8analyzer14access_checkerNtB5_13AccessChecker8get_user
FN:564,_RNvMs3_NtNtCsioRnW7FrYT6_6rustdb8analyzer14access_checkerNtB5_13AccessChecker9get_users
FN:94,_RNvMs_NtNtCsioRnW7FrYT6_6rustdb8analyzer14access_checkerNtB4_10Permission6as_str
FN:585,_RNvXs4_NtNtCsioRnW7FrYT6_6rustdb8analyzer14access_checkerNtB5_13AccessCheckerNtNtCsixiwFwjEgS7_4core7default7Default7default
FN:36,_RNvMNtNtCs9nxHbwgHRMj_6rustdb8analyzer14access_checkerNtB2_17AccessCheckResult11add_warning
FN:549,_RNvMs3_NtNtCs9nxHbwgHRMj_6rustdb8analyzer14access_checkerNtB5_13AccessChecker11set_enabled
FN:579,_RNvMs3_NtNtCs9nxHbwgHRMj_6rustdb8analyzer14access_checkerNtB5_13AccessChecker15get_access_rule
FN:574,_RNvMs3_NtNtCs9nxHbwgHRMj_6rustdb8analyzer14access_checkerNtB5_13AccessChecker16get_access_rules
FN:559,_RNvMs3_NtNtCs9nxHbwgHRMj_6rustdb8analyzer14access_checkerNtB5_13AccessChecker17set_default_allow
FN:564,_RNvMs3_NtNtCs9nxHbwgHRMj_6rustdb8analyzer14access_checkerNtB5_13AccessChecker9get_users
FN:585,_RNvXs4_NtNtCs9nxHbwgHRMj_6rustdb8analyzer14access_checkerNtB5_13AccessCheckerNtNtCsixiwFwjEgS7_4core7default7Default7default
FN:608,_RNvNtNtNtCs9nxHbwgHRMj_6rustdb8analyzer14access_checker5testss_15test_admin_role
FN:629,_RNvNtNtNtCs9nxHbwgHRMj_6rustdb8analyzer14access_checker5testss_16test_access_rule
FN:595,_RNvNtNtNtCs9nxHbwgHRMj_6rustdb8analyzer14access_checker5testss_18test_role_creation
FN:672,_RNvNtNtNtCs9nxHbwgHRMj_6rustdb8analyzer14access_checker5testss_21test_disabled_checker
FN:618,_RNvNtNtNtCs9nxHbwgHRMj_6rustdb8analyzer14access_checker5testss_21test_user_permissions
FN:662,_RNvNtNtNtCs9nxHbwgHRMj_6rustdb8analyzer14access_checker5testss_22test_admin_permissions
FN:640,_RNvNtNtNtCs9nxHbwgHRMj_6rustdb8analyzer14access_checker5testss_28test_access_checker_creation
FN:649,_RNvNtNtNtCs9nxHbwgHRMj_6rustdb8analyzer14access_checker5testss_28test_permission_grant_revoke
FN:22,_RNvMNtNtCs9nxHbwgHRMj_6rustdb8analyzer14access_checkerNtB2_17AccessCheckResult3new
FN:31,_RNvMNtNtCs9nxHbwgHRMj_6rustdb8analyzer14access_checkerNtB2_17AccessCheckResult9add_error
FN:149,_RNvMs0_NtNtCs9nxHbwgHRMj_6rustdb8analyzer14access_checkerNtB5_4Role14has_permission
FN:144,_RNvMs0_NtNtCs9nxHbwgHRMj_6rustdb8analyzer14access_checkerNtB5_4Role15with_permission
FN:119,_RNvMs0_NtNtCs9nxHbwgHRMj_6rustdb8analyzer14access_checkerNtB5_4Role3new
FN:127,_RNvMs0_NtNtCs9nxHbwgHRMj_6rustdb8analyzer14access_checkerNtB5_4Role5admin
FN:176,_RNvMs1_NtNtCs9nxHbwgHRMj_6rustdb8analyzer14access_checkerNtB5_4User14has_permission
FN:163,_RNvMs1_NtNtCs9nxHbwgHRMj_6rustdb8analyzer14access_checkerNtB5_4User3new
FN:186,_RNvMs1_NtNtCs9nxHbwgHRMj_6rustdb8analyzer14access_checkerNtB5_4User8is_admin
FN:171,_RNvMs1_NtNtCs9nxHbwgHRMj_6rustdb8analyzer14access_checkerNtB5_4User9with_role
FN:218,_RNvMs2_NtNtCs9nxHbwgHRMj_6rustdb8analyzer14access_checkerNtB5_10AccessRule12grant_public
FN:210,_RNvMs2_NtNtCs9nxHbwgHRMj_6rustdb8analyzer14access_checkerNtB5_10AccessRule13grant_to_user
FN:223,_RNvMs2_NtNtCs9nxHbwgHRMj_6rustdb8analyzer14access_checkerNtB5_10AccessRule16check_permission
FN:201,_RNvMs2_NtNtCs9nxHbwgHRMj_6rustdb8analyzer14access_checkerNtB5_10AccessRule3new
FN:554,_RNvMs3_NtNtCs9nxHbwgHRMj_6rustdb8analyzer14access_checkerNtB5_13AccessChecker10is_enabled
FN:279,_RNvMs3_NtNtCs9nxHbwgHRMj_6rustdb8analyzer14access_checkerNtB5_13AccessChecker10permissive
FN:342,_RNvMs3_NtNtCs9nxHbwgHRMj_6rustdb8analyzer14access_checkerNtB5_13AccessChecker15add_access_rule
FN:293,_RNvMs3_NtNtCs9nxHbwgHRMj_6rustdb8analyzer14access_checkerNtB5_13AccessChecker15check_statement
FN:379,_RNvMs3_NtNtCs9nxHbwgHRMj_6rustdb8analyzer14access_checkerNtB5_13AccessChecker16check_permission
FN:347,_RNvMs3_NtNtCs9nxHbwgHRMj_6rustdb8analyzer14access_checkerNtB5_13AccessChecker16grant_permission
FN:362,_RNvMs3_NtNtCs9nxHbwgHRMj_6rustdb8analyzer14access_checkerNtB5_13AccessChecker17revoke_permission
FN:519,_RNvMs3_NtNtCs9nxHbwgHRMj_6rustdb8analyzer14access_checkerNtB5_13AccessChecker18check_table_access
FN:468,_RNvMs3_NtNtCs9nxHbwgHRMj_6rustdb8analyzer14access_checkerNtB5_13AccessChecker19check_delete_access
FN:448,_RNvMs3_NtNtCs9nxHbwgHRMj_6rustdb8analyzer14access_checkerNtB5_13AccessChecker19check_insert_access
FN:416,_RNvMs3_NtNtCs9nxHbwgHRMj_6rustdb8analyzer14access_checkerNtB5_13AccessChecker19check_select_access
FN:458,_RNvMs3_NtNtCs9nxHbwgHRMj_6rustdb8analyzer14access_checkerNtB5_13AccessChecker19check_update_access
FN:509,_RNvMs3_NtNtCs9nxHbwgHRMj_6rustdb8analyzer14access_checkerNtB5_13AccessChecker23check_drop_table_access
FN:499,_RNvMs3_NtNtCs9nxHbwgHRMj_6rustdb8analyzer14access_checkerNtB5_13AccessChecker24check_alter_table_access
FN:478,_RNvMs3_NtNtCs9nxHbwgHRMj_6rustdb8analyzer14access_checkerNtB5_13AccessChecker25check_create_table_access
FN:262,_RNvMs3_NtNtCs9nxHbwgHRMj_6rustdb8analyzer14access_checkerNtB5_13AccessChecker3new
FN:337,_RNvMs3_NtNtCs9nxHbwgHRMj_6rustdb8analyzer14access_checkerNtB5_13AccessChecker8add_user
FN:286,_RNvMs3_NtNtCs9nxHbwgHRMj_6rustdb8analyzer14access_checkerNtB5_13AccessChecker8disabled
FN:569,_RNvMs3_NtNtCs9nxHbwgHRMj_6rustdb8analyzer14access_checkerNtB5_13AccessChecker8get_user
FN:94,_RNvMs_NtNtCs9nxHbwgHRMj_6rustdb8analyzer14access_checkerNtB4_10Permission6as_str
FN:183,_RNCNvMs1_NtNtCs9nxHbwgHRMj_6rustdb8analyzer14access_checkerNtB7_4User14has_permission0Bb_
FNDA:0,_RNCNvMs1_NtNtCsioRnW7FrYT6_6rustdb8analyzer14access_checkerNtB7_4User14has_permission0Bb_
FNDA:0,_RNvMNtNtCsioRnW7FrYT6_6rustdb8analyzer14access_checkerNtB2_17AccessCheckResult11add_warning
FNDA:0,_RNvMNtNtCsioRnW7FrYT6_6rustdb8analyzer14access_checkerNtB2_17AccessCheckResult3new
FNDA:0,_RNvMNtNtCsioRnW7FrYT6_6rustdb8analyzer14access_checkerNtB2_17AccessCheckResult9add_error
FNDA:0,_RNvMs0_NtNtCsioRnW7FrYT6_6rustdb8analyzer14access_checkerNtB5_4Role14has_permission
FNDA:0,_RNvMs0_NtNtCsioRnW7FrYT6_6rustdb8analyzer14access_checkerNtB5_4Role15with_permission
FNDA:164,_RNvMs0_NtNtCsioRnW7FrYT6_6rustdb8analyzer14access_checkerNtB5_4Role3new
FNDA:164,_RNvMs0_NtNtCsioRnW7FrYT6_6rustdb8analyzer14access_checkerNtB5_4Role5admin
FNDA:0,_RNvMs1_NtNtCsioRnW7FrYT6_6rustdb8analyzer14access_checkerNtB5_4User14has_permission
FNDA:164,_RNvMs1_NtNtCsioRnW7FrYT6_6rustdb8analyzer14access_checkerNtB5_4User3new
FNDA:0,_RNvMs1_NtNtCsioRnW7FrYT6_6rustdb8analyzer14access_checkerNtB5_4User8is_admin
FNDA:164,_RNvMs1_NtNtCsioRnW7FrYT6_6rustdb8analyzer14access_checkerNtB5_4User9with_role
FNDA:0,_RNvMs2_NtNtCsioRnW7FrYT6_6rustdb8analyzer14access_checkerNtB5_10AccessRule12grant_public
FNDA:0,_RNvMs2_NtNtCsioRnW7FrYT6_6rustdb8analyzer14access_checkerNtB5_10AccessRule13grant_to_user
FNDA:0,_RNvMs2_NtNtCsioRnW7FrYT6_6rustdb8analyzer14access_checkerNtB5_10AccessRule16check_permission
FNDA:0,_RNvMs2_NtNtCsioRnW7FrYT6_6rustdb8analyzer14access_checkerNtB5_10AccessRule3new
FNDA:0,_RNvMs3_NtNtCsioRnW7FrYT6_6rustdb8analyzer14access_checkerNtB5_13AccessChecker10is_enabled
FNDA:0,_RNvMs3_NtNtCsioRnW7FrYT6_6rustdb8analyzer14access_checkerNtB5_13AccessChecker10permissive
FNDA:0,_RNvMs3_NtNtCsioRnW7FrYT6_6rustdb8analyzer14access_checkerNtB5_13AccessChecker11set_enabled
FNDA:0,_RNvMs3_NtNtCsioRnW7FrYT6_6rustdb8analyzer14access_checkerNtB5_13AccessChecker15add_access_rule
FNDA:0,_RNvMs3_NtNtCsioRnW7FrYT6_6rustdb8analyzer14access_checkerNtB5_13AccessChecker15check_statement
FNDA:0,_RNvMs3_NtNtCsioRnW7FrYT6_6rustdb8analyzer14access_checkerNtB5_13AccessChecker15get_access_rule
FNDA:0,_RNvMs3_NtNtCsioRnW7FrYT6_6rustdb8analyzer14access_checkerNtB5_13AccessChecker16check_permission
FNDA:0,_RNvMs3_NtNtCsioRnW7FrYT6_6rustdb8analyzer14access_checkerNtB5_13AccessChecker16get_access_rules
FNDA:0,_RNvMs3_NtNtCsioRnW7FrYT6_6rustdb8analyzer14access_checkerNtB5_13AccessChecker16grant_permission
FNDA:0,_RNvMs3_NtNtCsioRnW7FrYT6_6rustdb8analyzer14access_checkerNtB5_13AccessChecker17revoke_permission
FNDA:0,_RNvMs3_NtNtCsioRnW7FrYT6_6rustdb8analyzer14access_checkerNtB5_13AccessChecker17set_default_allow
FNDA:0,_RNvMs3_NtNtCsioRnW7FrYT6_6rustdb8analyzer14access_checkerNtB5_13AccessChecker18check_table_access
FNDA:0,_RNvMs3_NtNtCsioRnW7FrYT6_6rustdb8analyzer14access_checkerNtB5_13AccessChecker19check_delete_access
FNDA:0,_RNvMs3_NtNtCsioRnW7FrYT6_6rustdb8analyzer14access_checkerNtB5_13AccessChecker19check_insert_access
FNDA:0,_RNvMs3_NtNtCsioRnW7FrYT6_6rustdb8analyzer14access_checkerNtB5_13AccessChecker19check_select_access
FNDA:0,_RNvMs3_NtNtCsioRnW7FrYT6_6rustdb8analyzer14access_checkerNtB5_13AccessChecker19check_update_access
FNDA:0,_RNvMs3_NtNtCsioRnW7FrYT6_6rustdb8analyzer14access_checkerNtB5_13AccessChecker23check_drop_table_access
FNDA:0,_RNvMs3_NtNtCsioRnW7FrYT6_6rustdb8analyzer14access_checkerNtB5_13AccessChecker24check_alter_table_access
FNDA:0,_RNvMs3_NtNtCsioRnW7FrYT6_6rustdb8analyzer14access_checkerNtB5_13AccessChecker25check_create_table_access
FNDA:164,_RNvMs3_NtNtCsioRnW7FrYT6_6rustdb8analyzer14access_checkerNtB5_13AccessChecker3new
FNDA:164,_RNvMs3_NtNtCsioRnW7FrYT6_6rustdb8analyzer14access_checkerNtB5_13AccessChecker8add_user
FNDA:0,_RNvMs3_NtNtCsioRnW7FrYT6_6rustdb8analyzer14access_checkerNtB5_13AccessChecker8disabled
FNDA:0,_RNvMs3_NtNtCsioRnW7FrYT6_6rustdb8analyzer14access_checkerNtB5_13AccessChecker8get_user
FNDA:0,_RNvMs3_NtNtCsioRnW7FrYT6_6rustdb8analyzer14access_checkerNtB5_13AccessChecker9get_users
FNDA:0,_RNvMs_NtNtCsioRnW7FrYT6_6rustdb8analyzer14access_checkerNtB4_10Permission6as_str
FNDA:0,_RNvXs4_NtNtCsioRnW7FrYT6_6rustdb8analyzer14access_checkerNtB5_13AccessCheckerNtNtCsixiwFwjEgS7_4core7default7Default7default
FNDA:0,_RNvMNtNtCs9nxHbwgHRMj_6rustdb8analyzer14access_checkerNtB2_17AccessCheckResult11add_warning
FNDA:0,_RNvMs3_NtNtCs9nxHbwgHRMj_6rustdb8analyzer14access_checkerNtB5_13AccessChecker11set_enabled
FNDA:0,_RNvMs3_NtNtCs9nxHbwgHRMj_6rustdb8analyzer14access_checkerNtB5_13AccessChecker15get_access_rule
FNDA:0,_RNvMs3_NtNtCs9nxHbwgHRMj_6rustdb8analyzer14access_checkerNtB5_13AccessChecker16get_access_rules
FNDA:0,_RNvMs3_NtNtCs9nxHbwgHRMj_6rustdb8analyzer14access_checkerNtB5_13AccessChecker17set_default_allow
FNDA:0,_RNvMs3_NtNtCs9nxHbwgHRMj_6rustdb8analyzer14access_checkerNtB5_13AccessChecker9get_users
FNDA:0,_RNvXs4_NtNtCs9nxHbwgHRMj_6rustdb8analyzer14access_checkerNtB5_13AccessCheckerNtNtCsixiwFwjEgS7_4core7default7Default7default
FNDA:1,_RNvNtNtNtCs9nxHbwgHRMj_6rustdb8analyzer14access_checker5testss_15test_admin_role
FNDA:1,_RNvNtNtNtCs9nxHbwgHRMj_6rustdb8analyzer14access_checker5testss_16test_access_rule
FNDA:1,_RNvNtNtNtCs9nxHbwgHRMj_6rustdb8analyzer14access_checker5testss_18test_role_creation
FNDA:1,_RNvNtNtNtCs9nxHbwgHRMj_6rustdb8analyzer14access_checker5testss_21test_disabled_checker
FNDA:1,_RNvNtNtNtCs9nxHbwgHRMj_6rustdb8analyzer14access_checker5testss_21test_user_permissions
FNDA:1,_RNvNtNtNtCs9nxHbwgHRMj_6rustdb8analyzer14access_checker5testss_22test_admin_permissions
FNDA:1,_RNvNtNtNtCs9nxHbwgHRMj_6rustdb8analyzer14access_checker5testss_28test_access_checker_creation
FNDA:1,_RNvNtNtNtCs9nxHbwgHRMj_6rustdb8analyzer14access_checker5testss_28test_permission_grant_revoke
FNDA:0,_RNvMNtNtCs9nxHbwgHRMj_6rustdb8analyzer14access_checkerNtB2_17AccessCheckResult3new
FNDA:0,_RNvMNtNtCs9nxHbwgHRMj_6rustdb8analyzer14access_checkerNtB2_17AccessCheckResult9add_error
FNDA:21,_RNvMs0_NtNtCs9nxHbwgHRMj_6rustdb8analyzer14access_checkerNtB5_4Role14has_permission
FNDA:9,_RNvMs0_NtNtCs9nxHbwgHRMj_6rustdb8analyzer14access_checkerNtB5_4Role15with_permission
FNDA:50,_RNvMs0_NtNtCs9nxHbwgHRMj_6rustdb8analyzer14access_checkerNtB5_4Role3new
FNDA:45,_RNvMs0_NtNtCs9nxHbwgHRMj_6rustdb8analyzer14access_checkerNtB5_4Role5admin
FNDA:9,_RNvMs1_NtNtCs9nxHbwgHRMj_6rustdb8analyzer14access_checkerNtB5_4User14has_permission
FNDA:46,_RNvMs1_NtNtCs9nxHbwgHRMj_6rustdb8analyzer14access_checkerNtB5_4User3new
FNDA:13,_RNvMs1_NtNtCs9nxHbwgHRMj_6rustdb8analyzer14access_checkerNtB5_4User8is_admin
FNDA:46,_RNvMs1_NtNtCs9nxHbwgHRMj_6rustdb8analyzer14access_checkerNtB5_4User9with_role
FNDA:1,_RNvMs2_NtNtCs9nxHbwgHRMj_6rustdb8analyzer14access_checkerNtB5_10AccessRule12grant_public
FNDA:3,_RNvMs2_NtNtCs9nxHbwgHRMj_6rustdb8analyzer14access_checkerNtB5_10AccessRule13grant_to_user
FNDA:7,_RNvMs2_NtNtCs9nxHbwgHRMj_6rustdb8analyzer14access_checkerNtB5_10AccessRule16check_permission
FNDA:3,_RNvMs2_NtNtCs9nxHbwgHRMj_6rustdb8analyzer14access_checkerNtB5_10AccessRule3new
FNDA:2,_RNvMs3_NtNtCs9nxHbwgHRMj_6rustdb8analyzer14access_checkerNtB5_13AccessChecker10is_enabled
FNDA:1,_RNvMs3_NtNtCs9nxHbwgHRMj_6rustdb8analyzer14access_checkerNtB5_13AccessChecker10permissive
FNDA:2,_RNvMs3_NtNtCs9nxHbwgHRMj_6rustdb8analyzer14access_checkerNtB5_13AccessChecker15add_access_rule
FNDA:0,_RNvMs3_NtNtCs9nxHbwgHRMj_6rustdb8analyzer14access_checkerNtB5_13AccessChecker15check_statement
FNDA:18,_RNvMs3_NtNtCs9nxHbwgHRMj_6rustdb8analyzer14access_checkerNtB5_13AccessChecker16check_permission
FNDA:2,_RNvMs3_NtNtCs9nxHbwgHRMj_6rustdb8analyzer14access_checkerNtB5_13AccessChecker16grant_permission
FNDA:2,_RNvMs3_NtNtCs9nxHbwgHRMj_6rustdb8analyzer14access_checkerNtB5_13AccessChecker17revoke_permission
FNDA:0,_RNvMs3_NtNtCs9nxHbwgHRMj_6rustdb8analyzer14access_checkerNtB5_13AccessChecker18check_table_access
FNDA:0,_RNvMs3_NtNtCs9nxHbwgHRMj_6rustdb8analyzer14access_checkerNtB5_13AccessChecker19check_delete_access
FNDA:0,_RNvMs3_NtNtCs9nxHbwgHRMj_6rustdb8analyzer14access_checkerNtB5_13AccessChecker19check_insert_access
FNDA:0,_RNvMs3_NtNtCs9nxHbwgHRMj_6rustdb8analyzer14access_checkerNtB5_13AccessChecker19check_select_access
FNDA:0,_RNvMs3_NtNtCs9nxHbwgHRMj_6rustdb8analyzer14access_checkerNtB5_13AccessChecker19check_update_access
FNDA:0,_RNvMs3_NtNtCs9nxHbwgHRMj_6rustdb8analyzer14access_checkerNtB5_13AccessChecker23check_drop_table_access
FNDA:0,_RNvMs3_NtNtCs9nxHbwgHRMj_6rustdb8analyzer14access_checkerNtB5_13AccessChecker24check_alter_table_access
FNDA:0,_RNvMs3_NtNtCs9nxHbwgHRMj_6rustdb8analyzer14access_checkerNtB5_13AccessChecker25check_create_table_access
FNDA:43,_RNvMs3_NtNtCs9nxHbwgHRMj_6rustdb8analyzer14access_checkerNtB5_13AccessChecker3new
FNDA:44,_RNvMs3_NtNtCs9nxHbwgHRMj_6rustdb8analyzer14access_checkerNtB5_13AccessChecker8add_user
FNDA:2,_RNvMs3_NtNtCs9nxHbwgHRMj_6rustdb8analyzer14access_checkerNtB5_13AccessChecker8disabled
FNDA:3,_RNvMs3_NtNtCs9nxHbwgHRMj_6rustdb8analyzer14access_checkerNtB5_13AccessChecker8get_user
FNDA:4,_RNvMs_NtNtCs9nxHbwgHRMj_6rustdb8analyzer14access_checkerNtB4_10Permission6as_str
FNDA:9,_RNCNvMs1_NtNtCs9nxHbwgHRMj_6rustdb8analyzer14access_checkerNtB7_4User14has_permission0Bb_
FNF:50
FNH:32
DA:22,0
DA:23,0
DA:24,0
DA:25,0
DA:26,0
DA:27,0
DA:28,0
DA:29,0
DA:31,0
DA:32,0
DA:33,0
DA:34,0
DA:36,0
DA:37,0
DA:38,0
DA:94,4
DA:95,4
DA:96,1
DA:97,1
DA:98,0
DA:99,0
DA:100,1
DA:101,0
DA:102,0
DA:103,0
DA:104,0
DA:105,1
DA:107,4
DA:119,214
DA:120,214
DA:121,214
DA:122,214
DA:123,214
DA:124,214
DA:125,214
DA:127,209
DA:128,209
DA:129,209
DA:131,209
DA:132,209
DA:133,209
DA:134,209
DA:135,209
DA:136,209
DA:137,209
DA:138,209
DA:139,209
DA:140,209
DA:141,209
DA:142,209
DA:144,9
DA:145,9
DA:146,9
DA:147,9
DA:149,21
DA:150,21
DA:151,21
DA:163,210
DA:164,210
DA:165,210
DA:166,210
DA:167,210
DA:168,210
DA:169,210
DA:171,210
DA:172,210
DA:173,210
DA:174,210
DA:176,9
DA:177,9
DA:178,0
DA:179,9
DA:181,9
DA:182,9
DA:183,9
DA:184,9
DA:186,13
DA:187,13
DA:188,13
DA:201,3
DA:202,3
DA:203,3
DA:204,3
DA:205,3
DA:206,3
DA:207,3
DA:208,3
DA:210,3
DA:211,3
DA:212,3
DA:213,3
DA:214,3
DA:215,3
DA:216,3
DA:218,1
DA:219,1
DA:220,1
DA:221,1
DA:223,7
DA:225,7
DA:226,2
DA:227,5
DA:230,5
DA:231,3
DA:232,2
DA:234,2
DA:235,7
DA:262,207
DA:263,207
DA:264,207
DA:265,207
DA:266,207
DA:267,207
DA:268,207
DA:271,207
DA:272,207
DA:273,207
DA:275,207
DA:276,207
DA:279,1
DA:280,1
DA:281,1
DA:282,1
DA:283,1
DA:286,2
DA:287,2
DA:288,2
DA:289,2
DA:290,2
DA:293,0
DA:294,0
DA:295,0
DA:296,0
DA:297,0
DA:298,0
DA:300,0
DA:301,0
DA:302,0
DA:304,0
DA:306,0
DA:307,0
DA:308,0
DA:310,0
DA:311,0
DA:313,0
DA:314,0
DA:316,0
DA:317,0
DA:319,0
DA:320,0
DA:322,0
DA:323,0
DA:325,0
DA:326,0
DA:328,0
DA:329,0
DA:330,0
DA:333,0
DA:334,0
DA:337,208
DA:338,208
DA:339,208
DA:342,2
DA:343,2
DA:344,2
DA:347,2
DA:348,2
DA:349,0
DA:350,0
DA:351,0
DA:352,0
DA:353,2
DA:354,2
DA:355,2
DA:356,2
DA:357,2
DA:358,2
DA:359,2
DA:362,2
DA:363,2
DA:364,2
DA:365,2
DA:366,2
DA:367,2
DA:368,2
DA:369,2
DA:370,2
DA:371,2
DA:372,2
DA:373,2
DA:374,0
DA:375,0
DA:376,2
DA:379,18
DA:380,18
DA:381,18
DA:382,18
DA:383,18
DA:384,18
DA:386,18
DA:387,3
DA:388,15
DA:391,15
DA:393,10
DA:394,7
DA:395,3
DA:398,3
DA:399,2
DA:400,1
DA:401,5
DA:404,6
DA:405,4
DA:406,2
DA:407,2
DA:408,2
DA:411,4
DA:412,18
DA:416,0
DA:417,0
DA:418,0
DA:419,0
DA:420,0
DA:421,0
DA:422,0
DA:425,0
DA:426,0
DA:427,0
DA:430,0
DA:433,0
DA:436,0
DA:437,0
DA:438,0
DA:439,0
DA:441,0
DA:443,0
DA:445,0
DA:446,0
DA:448,0
DA:449,0
DA:450,0
DA:451,0
DA:452,0
DA:453,0
DA:454,0
DA:455,0
DA:456,0
DA:458,0
DA:459,0
DA:460,0
DA:461,0
DA:462,0
DA:463,0
DA:464,0
DA:465,0
DA:466,0
DA:468,0
DA:469,0
DA:470,0
DA:471,0
DA:472,0
DA:473,0
DA:474,0
DA:475,0
DA:476,0
DA:478,0
DA:479,0
DA:480,0
DA:481,0
DA:482,0
DA:483,0
DA:484,0
DA:486,0
DA:487,0
DA:488,0
DA:489,0
DA:490,0
DA:491,0
DA:492,0
DA:493,0
DA:494,0
DA:496,0
DA:497,0
DA:499,0
DA:500,0
DA:501,0
DA:502,0
DA:503,0
DA:504,0
DA:505,0
DA:506,0
DA:507,0
DA:509,0
DA:510,0
DA:511,0
DA:512,0
DA:513,0
DA:514,0
DA:515,0
DA:516,0
DA:517,0
DA:519,0
DA:520,0
DA:521,0
DA:522,0
DA:523,0
DA:524,0
DA:525,0
DA:526,0
DA:527,0
DA:528,0
DA:529,0
DA:530,0
DA:531,0
DA:532,0
DA:533,0
DA:534,0
DA:535,0
DA:536,0
DA:537,0
DA:538,0
DA:539,0
DA:540,0
DA:541,0
DA:542,0
DA:543,0
DA:545,0
DA:546,0
DA:549,0
DA:550,0
DA:551,0
DA:554,2
DA:555,2
DA:556,2
DA:559,0
DA:560,0
DA:561,0
DA:564,0
DA:565,0
DA:566,0
DA:569,3
DA:570,3
DA:571,3
DA:574,0
DA:575,0
DA:576,0
DA:579,0
DA:580,0
DA:581,0
DA:585,0
DA:586,0
DA:587,0
DA:595,1
DA:596,1
DA:597,1
DA:598,1
DA:600,1
DA:601,1
DA:602,1
DA:603,1
DA:604,1
DA:605,1
DA:608,1
DA:609,1
DA:611,1
DA:612,1
DA:613,1
DA:614,1
DA:615,1
DA:618,1
DA:619,1
DA:621,1
DA:623,1
DA:624,1
DA:625,1
DA:626,1
DA:629,1
DA:630,1
DA:631,1
DA:632,1
DA:634,1
DA:635,1
DA:636,1
DA:637,1
DA:640,1
DA:641,1
DA:643,1
DA:644,1
DA:645,1
DA:646,1
DA:649,1
DA:650,1
DA:653,1
DA:654,1
DA:657,1
DA:658,1
DA:659,1
DA:662,1
DA:663,1
DA:666,1
DA:667,1
DA:668,1
DA:669,1
DA:672,1
DA:673,1
DA:675,1
DA:677,1
DA:678,1
BRF:0
BRH:0
LF:408
LH:222
end_of_record
SF:C:\Users\Admin\RustProjects\RustBD\src\analyzer\metadata_cache.rs
FN:436,_RNCNvMs1_NtNtCsioRnW7FrYT6_6rustdb8analyzer14metadata_cacheNtB7_13MetadataCache10evict_fifo0Bb_
FN:449,_RNCNvMs1_NtNtCsioRnW7FrYT6_6rustdb8analyzer14metadata_cacheNtB7_13MetadataCache13evict_expired0Bb_
FN:450,_RNCNvMs1_NtNtCsioRnW7FrYT6_6rustdb8analyzer14metadata_cacheNtB7_13MetadataCache13evict_expireds_0Bb_
FN:463,_RNCNvMs1_NtNtCsioRnW7FrYT6_6rustdb8analyzer14metadata_cacheNtB7_13MetadataCache17update_statistics0Bb_
FN:423,_RNCNvMs1_NtNtCsioRnW7FrYT6_6rustdb8analyzer14metadata_cacheNtB7_13MetadataCache9evict_lfu0Bb_
FN:410,_RNCNvMs1_NtNtCsioRnW7FrYT6_6rustdb8analyzer14metadata_cacheNtB7_13MetadataCache9evict_lru0Bb_
FN:41,_RNvMNtNtCsioRnW7FrYT6_6rustdb8analyzer14metadata_cacheNtB2_10CacheEntry10is_expired
FN:25,_RNvMNtNtCsioRnW7FrYT6_6rustdb8analyzer14metadata_cacheNtB2_10CacheEntry3new
FN:50,_RNvMNtNtCsioRnW7FrYT6_6rustdb8analyzer14metadata_cacheNtB2_10CacheEntry6access
FN:55,_RNvMNtNtCsioRnW7FrYT6_6rustdb8analyzer14metadata_cacheNtB2_10CacheEntry6age_ms
FN:36,_RNvMNtNtCsioRnW7FrYT6_6rustdb8analyzer14metadata_cacheNtB2_10CacheEntry8with_ttl
FN:432,_RNvMs1_NtNtCsioRnW7FrYT6_6rustdb8analyzer14metadata_cacheNtB5_13MetadataCache10evict_fifo
FN:379,_RNvMs1_NtNtCsioRnW7FrYT6_6rustdb8analyzer14metadata_cacheNtB5_13MetadataCache10is_enabled
FN:357,_RNvMs1_NtNtCsioRnW7FrYT6_6rustdb8analyzer14metadata_cacheNtB5_13MetadataCache10statistics
FN:371,_RNvMs1_NtNtCsioRnW7FrYT6_6rustdb8analyzer14metadata_cacheNtB5_13MetadataCache11set_enabled
FN:285,_RNvMs1_NtNtCsioRnW7FrYT6_6rustdb8analyzer14metadata_cacheNtB5_13MetadataCache12put_with_ttl
FN:395,_RNvMs1_NtNtCsioRnW7FrYT6_6rustdb8analyzer14metadata_cacheNtB5_13MetadataCache13evict_entries
FN:445,_RNvMs1_NtNtCsioRnW7FrYT6_6rustdb8analyzer14metadata_cacheNtB5_13MetadataCache13evict_expired
FN:222,_RNvMs1_NtNtCsioRnW7FrYT6_6rustdb8analyzer14metadata_cacheNtB5_13MetadataCache13with_settings
FN:491,_RNvMs1_NtNtCsioRnW7FrYT6_6rustdb8analyzer14metadata_cacheNtB5_13MetadataCache14get_table_info
FN:564,_RNvMs1_NtNtCsioRnW7FrYT6_6rustdb8analyzer14metadata_cacheNtB5_13MetadataCache14get_type_check
FN:532,_RNvMs1_NtNtCsioRnW7FrYT6_6rustdb8analyzer14metadata_cacheNtB5_13MetadataCache15get_column_info
FN:384,_RNvMs1_NtNtCsioRnW7FrYT6_6rustdb8analyzer14metadata_cacheNtB5_13MetadataCache15update_settings
FN:473,_RNvMs1_NtNtCsioRnW7FrYT6_6rustdb8analyzer14metadata_cacheNtB5_13MetadataCache16cache_table_info
FN:553,_RNvMs1_NtNtCsioRnW7FrYT6_6rustdb8analyzer14metadata_cacheNtB5_13MetadataCache16cache_type_check
FN:510,_RNvMs1_NtNtCsioRnW7FrYT6_6rustdb8analyzer14metadata_cacheNtB5_13MetadataCache17cache_column_info
FN:458,_RNvMs1_NtNtCsioRnW7FrYT6_6rustdb8analyzer14metadata_cacheNtB5_13MetadataCache17update_statistics
FN:365,_RNvMs1_NtNtCsioRnW7FrYT6_6rustdb8analyzer14metadata_cacheNtB5_13MetadataCache19detailed_statistics
FN:233,_RNvMs1_NtNtCsioRnW7FrYT6_6rustdb8analyzer14metadata_cacheNtB5_13MetadataCache3get
FN:211,_RNvMs1_NtNtCsioRnW7FrYT6_6rustdb8analyzer14metadata_cacheNtB5_13MetadataCache3new
FN:263,_RNvMs1_NtNtCsioRnW7FrYT6_6rustdb8analyzer14metadata_cacheNtB5_13MetadataCache3put
FN:325,_RNvMs1_NtNtCsioRnW7FrYT6_6rustdb8analyzer14metadata_cacheNtB5_13MetadataCache5clear
FN:302,_RNvMs1_NtNtCsioRnW7FrYT6_6rustdb8analyzer14metadata_cacheNtB5_13MetadataCache6remove
FN:331,_RNvMs1_NtNtCsioRnW7FrYT6_6rustdb8analyzer14metadata_cacheNtB5_13MetadataCache7cleanup
FN:312,_RNvMs1_NtNtCsioRnW7FrYT6_6rustdb8analyzer14metadata_cacheNtB5_13MetadataCache8contains
FN:389,_RNvMs1_NtNtCsioRnW7FrYT6_6rustdb8analyzer14metadata_cacheNtB5_13MetadataCache8settings
FN:419,_RNvMs1_NtNtCsioRnW7FrYT6_6rustdb8analyzer14metadata_cacheNtB5_13MetadataCache9evict_lfu
FN:406,_RNvMs1_NtNtCsioRnW7FrYT6_6rustdb8analyzer14metadata_cacheNtB5_13MetadataCache9evict_lru
FN:130,_RNvMs_NtNtCsioRnW7FrYT6_6rustdb8analyzer14metadata_cacheNtB4_15CacheStatistics3new
FN:141,_RNvMs_NtNtCsioRnW7FrYT6_6rustdb8analyzer14metadata_cacheNtB4_15CacheStatistics8hit_rate
FN:150,_RNvMs_NtNtCsioRnW7FrYT6_6rustdb8analyzer14metadata_cacheNtB4_15CacheStatistics9miss_rate
FN:586,_RNvNtNtCsioRnW7FrYT6_6rustdb8analyzer14metadata_cache20current_timestamp_ms
FN:184,_RNvXs0_NtNtCsioRnW7FrYT6_6rustdb8analyzer14metadata_cacheNtB5_13CacheSettingsNtNtCsixiwFwjEgS7_4core7default7Default7default
FN:580,_RNvXs2_NtNtCsioRnW7FrYT6_6rustdb8analyzer14metadata_cacheNtB5_13MetadataCacheNtNtCsixiwFwjEgS7_4core7default7Default7default
FN:55,_RNvMNtNtCs9nxHbwgHRMj_6rustdb8analyzer14metadata_cacheNtB2_10CacheEntry6age_ms
FN:285,_RNvMs1_NtNtCs9nxHbwgHRMj_6rustdb8analyzer14metadata_cacheNtB5_13MetadataCache12put_with_ttl
FN:384,_RNvMs1_NtNtCs9nxHbwgHRMj_6rustdb8analyzer14metadata_cacheNtB5_13MetadataCache15update_settings
FN:365,_RNvMs1_NtNtCs9nxHbwgHRMj_6rustdb8analyzer14metadata_cacheNtB5_13MetadataCache19detailed_statistics
FN:389,_RNvMs1_NtNtCs9nxHbwgHRMj_6rustdb8analyzer14metadata_cacheNtB5_13MetadataCache8settings
FN:141,_RNvMs_NtNtCs9nxHbwgHRMj_6rustdb8analyzer14metadata_cacheNtB4_15CacheStatistics8hit_rate
FN:150,_RNvMs_NtNtCs9nxHbwgHRMj_6rustdb8analyzer14metadata_cacheNtB4_15CacheStatistics9miss_rate
FN:580,_RNvXs2_NtNtCs9nxHbwgHRMj_6rustdb8analyzer14metadata_cacheNtB5_13MetadataCacheNtNtCsixiwFwjEgS7_4core7default7Default7default
FN:696,_RNvNtNtNtCs9nxHbwgHRMj_6rustdb8analyzer14metadata_cache5testss_18test_cache_cleanup
FN:677,_RNvNtNtNtCs9nxHbwgHRMj_6rustdb8analyzer14metadata_cache5testss_19test_disabled_cache
FN:652,_RNvNtNtNtCs9nxHbwgHRMj_6rustdb8analyzer14metadata_cache5testss_21test_cache_statistics
FN:728,_RNvNtNtNtCs9nxHbwgHRMj_6rustdb8analyzer14metadata_cache5testss_24test_convenience_methods
FN:598,_RNvNtNtNtCs9nxHbwgHRMj_6rustdb8analyzer14metadata_cache5testss_25test_cache_entry_creation
FN:612,_RNvNtNtNtCs9nxHbwgHRMj_6rustdb8analyzer14metadata_cache5testss_25test_cache_entry_with_ttl
FN:628,_RNvNtNtNtCs9nxHbwgHRMj_6rustdb8analyzer14metadata_cache5testss_36test_metadata_cache_basic_operations
FN:41,_RNvMNtNtCs9nxHbwgHRMj_6rustdb8analyzer14metadata_cacheNtB2_10CacheEntry10is_expired
FN:25,_RNvMNtNtCs9nxHbwgHRMj_6rustdb8analyzer14metadata_cacheNtB2_10CacheEntry3new
FN:50,_RNvMNtNtCs9nxHbwgHRMj_6rustdb8analyzer14metadata_cacheNtB2_10CacheEntry6access
FN:36,_RNvMNtNtCs9nxHbwgHRMj_6rustdb8analyzer14metadata_cacheNtB2_10CacheEntry8with_ttl
FN:432,_RNvMs1_NtNtCs9nxHbwgHRMj_6rustdb8analyzer14metadata_cacheNtB5_13MetadataCache10evict_fifo
FN:379,_RNvMs1_NtNtCs9nxHbwgHRMj_6rustdb8analyzer14metadata_cacheNtB5_13MetadataCache10is_enabled
FN:357,_RNvMs1_NtNtCs9nxHbwgHRMj_6rustdb8analyzer14metadata_cacheNtB5_13MetadataCache10statistics
FN:371,_RNvMs1_NtNtCs9nxHbwgHRMj_6rustdb8analyzer14metadata_cacheNtB5_13MetadataCache11set_enabled
FN:395,_RNvMs1_NtNtCs9nxHbwgHRMj_6rustdb8analyzer14metadata_cacheNtB5_13MetadataCache13evict_entries
FN:445,_RNvMs1_NtNtCs9nxHbwgHRMj_6rustdb8analyzer14metadata_cacheNtB5_13MetadataCache13evict_expired
FN:222,_RNvMs1_NtNtCs9nxHbwgHRMj_6rustdb8analyzer14metadata_cacheNtB5_13MetadataCache13with_settings
FN:491,_RNvMs1_NtNtCs9nxHbwgHRMj_6rustdb8analyzer14metadata_cacheNtB5_13MetadataCache14get_table_info
FN:564,_RNvMs1_NtNtCs9nxHbwgHRMj_6rustdb8analyzer14metadata_cacheNtB5_13MetadataCache14get_type_check
FN:532,_RNvMs1_NtNtCs9nxHbwgHRMj_6rustdb8analyzer14metadata_cacheNtB5_13MetadataCache15get_column_info
FN:473,_RNvMs1_NtNtCs9nxHbwgHRMj_6rustdb8analyzer14metadata_cacheNtB5_13MetadataCache16cache_table_info
FN:553,_RNvMs1_NtNtCs9nxHbwgHRMj_6rustdb8analyzer14metadata_cacheNtB5_13MetadataCache16cache_type_check
FN:510,_RNvMs1_NtNtCs9nxHbwgHRMj_6rustdb8analyzer14metadata_cacheNtB5_13MetadataCache17cache_column_info
FN:458,_RNvMs1_NtNtCs9nxHbwgHRMj_6rustdb8analyzer14metadata_cacheNtB5_13MetadataCache17update_statistics
FN:233,_RNvMs1_NtNtCs9nxHbwgHRMj_6rustdb8analyzer14metadata_cacheNtB5_13MetadataCache3get
FN:211,_RNvMs1_NtNtCs9nxHbwgHRMj_6rustdb8analyzer14metadata_cacheNtB5_13MetadataCache3new
FN:263,_RNvMs1_NtNtCs9nxHbwgHRMj_6rustdb8analyzer14metadata_cacheNtB5_13MetadataCache3put
FN:325,_RNvMs1_NtNtCs9nxHbwgHRMj_6rustdb8analyzer14metadata_cacheNtB5_13MetadataCache5clear
FN:302,_RNvMs1_NtNtCs9nxHbwgHRMj_6rustdb8analyzer14metadata_cacheNtB5_13MetadataCache6remove
FN:331,_RNvMs1_NtNtCs9nxHbwgHRMj_6rustdb8analyzer14metadata_cacheNtB5_13MetadataCache7cleanup
FN:312,_RNvMs1_NtNtCs9nxHbwgHRMj_6rustdb8analyzer14metadata_cacheNtB5_13MetadataCache8contains
FN:419,_RNvMs1_NtNtCs9nxHbwgHRMj_6rustdb8analyzer14metadata_cacheNtB5_13MetadataCache9evict_lfu
FN:406,_RNvMs1_NtNtCs9nxHbwgHRMj_6rustdb8analyzer14metadata_cacheNtB5_13MetadataCache9evict_lru
FN:130,_RNvMs_NtNtCs9nxHbwgHRMj_6rustdb8analyzer14metadata_cacheNtB4_15CacheStatistics3new
FN:586,_RNvNtNtCs9nxHbwgHRMj_6rustdb8analyzer14metadata_cache20current_timestamp_ms
FN:184,_RNvXs0_NtNtCs9nxHbwgHRMj_6rustdb8analyzer14metadata_cacheNtB5_13CacheSettingsNtNtCsixiwFwjEgS7_4core7default7Default7default
FN:436,_RNCNvMs1_NtNtCs9nxHbwgHRMj_6rustdb8analyzer14metadata_cacheNtB7_13MetadataCache10evict_fifo0Bb_
FN:449,_RNCNvMs1_NtNtCs9nxHbwgHRMj_6rustdb8analyzer14metadata_cacheNtB7_13MetadataCache13evict_expired0Bb_
FN:450,_RNCNvMs1_NtNtCs9nxHbwgHRMj_6rustdb8analyzer14metadata_cacheNtB7_13MetadataCache13evict_expireds_0Bb_
FN:463,_RNCNvMs1_NtNtCs9nxHbwgHRMj_6rustdb8analyzer14metadata_cacheNtB7_13MetadataCache17update_statistics0Bb_
FN:423,_RNCNvMs1_NtNtCs9nxHbwgHRMj_6rustdb8analyzer14metadata_cacheNtB7_13MetadataCache9evict_lfu0Bb_
FN:410,_RNCNvMs1_NtNtCs9nxHbwgHRMj_6rustdb8analyzer14metadata_cacheNtB7_13MetadataCache9evict_lru0Bb_
FNDA:0,_RNCNvMs1_NtNtCsioRnW7FrYT6_6rustdb8analyzer14metadata_cacheNtB7_13MetadataCache10evict_fifo0Bb_
FNDA:0,_RNCNvMs1_NtNtCsioRnW7FrYT6_6rustdb8analyzer14metadata_cacheNtB7_13MetadataCache13evict_expired0Bb_
FNDA:0,_RNCNvMs1_NtNtCsioRnW7FrYT6_6rustdb8analyzer14metadata_cacheNtB7_13MetadataCache13evict_expireds_0Bb_
FNDA:0,_RNCNvMs1_NtNtCsioRnW7FrYT6_6rustdb8analyzer14metadata_cacheNtB7_13MetadataCache17update_statistics0Bb_
FNDA:0,_RNCNvMs1_NtNtCsioRnW7FrYT6_6rustdb8analyzer14metadata_cacheNtB7_13MetadataCache9evict_lfu0Bb_
FNDA:0,_RNCNvMs1_NtNtCsioRnW7FrYT6_6rustdb8analyzer14metadata_cacheNtB7_13MetadataCache9evict_lru0Bb_
FNDA:0,_RNvMNtNtCsioRnW7FrYT6_6rustdb8analyzer14metadata_cacheNtB2_10CacheEntry10is_expired
FNDA:0,_RNvMNtNtCsioRnW7FrYT6_6rustdb8analyzer14metadata_cacheNtB2_10CacheEntry3new
FNDA:0,_RNvMNtNtCsioRnW7FrYT6_6rustdb8analyzer14metadata_cacheNtB2_10CacheEntry6access
FNDA:0,_RNvMNtNtCsioRnW7FrYT6_6rustdb8analyzer14metadata_cacheNtB2_10CacheEntry6age_ms
FNDA:0,_RNvMNtNtCsioRnW7FrYT6_6rustdb8analyzer14metadata_cacheNtB2_10CacheEntry8with_ttl
FNDA:0,_RNvMs1_NtNtCsioRnW7FrYT6_6rustdb8analyzer14metadata_cacheNtB5_13MetadataCache10evict_fifo
FNDA:0,_RNvMs1_NtNtCsioRnW7FrYT6_6rustdb8analyzer14metadata_cacheNtB5_13MetadataCache10is_enabled
FNDA:0,_RNvMs1_NtNtCsioRnW7FrYT6_6rustdb8analyzer14metadata_cacheNtB5_13MetadataCache10statistics
FNDA:0,_RNvMs1_NtNtCsioRnW7FrYT6_6rustdb8analyzer14metadata_cacheNtB5_13MetadataCache11set_enabled
FNDA:0,_RNvMs1_NtNtCsioRnW7FrYT6_6rustdb8analyzer14metadata_cacheNtB5_13MetadataCache12put_with_ttl
FNDA:0,_RNvMs1_NtNtCsioRnW7FrYT6_6rustdb8analyzer14metadata_cacheNtB5_13MetadataCache13evict_entries
FNDA:0,_RNvMs1_NtNtCsioRnW7FrYT6_6rustdb8analyzer14metadata_cacheNtB5_13MetadataCache13evict_expired
FNDA:0,_RNvMs1_NtNtCsioRnW7FrYT6_6rustdb8analyzer14metadata_cacheNtB5_13MetadataCache13with_settings
FNDA:0,_RNvMs1_NtNtCsioRnW7FrYT6_6rustdb8analyzer14metadata_cacheNtB5_13MetadataCache14get_table_info
FNDA:0,_RNvMs1_NtNtCsioRnW7FrYT6_6rustdb8analyzer14metadata_cacheNtB5_13MetadataCache14get_type_check
FNDA:0,_RNvMs1_NtNtCsioRnW7FrYT6_6rustdb8analyzer14metadata_cacheNtB5_13MetadataCache15get_column_info
FNDA:0,_RNvMs1_NtNtCsioRnW7FrYT6_6rustdb8analyzer14metadata_cacheNtB5_13MetadataCache15update_settings
FNDA:0,_RNvMs1_NtNtCsioRnW7FrYT6_6rustdb8analyzer14metadata_cacheNtB5_13MetadataCache16cache_table_info
FNDA:0,_RNvMs1_NtNtCsioRnW7FrYT6_6rustdb8analyzer14metadata_cacheNtB5_13MetadataCache16cache_type_check
FNDA:0,_RNvMs1_NtNtCsioRnW7FrYT6_6rustdb8analyzer14metadata_cacheNtB5_13MetadataCache17cache_column_info
FNDA:0,_RNvMs1_NtNtCsioRnW7FrYT6_6rustdb8analyzer14metadata_cacheNtB5_13MetadataCache17update_statistics
FNDA:0,_RNvMs1_NtNtCsioRnW7FrYT6_6rustdb8analyzer14metadata_cacheNtB5_13MetadataCache19detailed_statistics
FNDA:0,_RNvMs1_NtNtCsioRnW7FrYT6_6rustdb8analyzer14metadata_cacheNtB5_13MetadataCache3get
FNDA:164,_RNvMs1_NtNtCsioRnW7FrYT6_6rustdb8analyzer14metadata_cacheNtB5_13MetadataCache3new
FNDA:0,_RNvMs1_NtNtCsioRnW7FrYT6_6rustdb8analyzer14metadata_cacheNtB5_13MetadataCache3put
FNDA:0,_RNvMs1_NtNtCsioRnW7FrYT6_6rustdb8analyzer14metadata_cacheNtB5_13MetadataCache5clear
FNDA:0,_RNvMs1_NtNtCsioRnW7FrYT6_6rustdb8analyzer14metadata_cacheNtB5_13MetadataCache6remove
FNDA:0,_RNvMs1_NtNtCsioRnW7FrYT6_6rustdb8analyzer14metadata_cacheNtB5_13MetadataCache7cleanup
FNDA:0,_RNvMs1_NtNtCsioRnW7FrYT6_6rustdb8analyzer14metadata_cacheNtB5_13MetadataCache8contains
FNDA:0,_RNvMs1_NtNtCsioRnW7FrYT6_6rustdb8analyzer14metadata_cacheNtB5_13MetadataCache8settings
FNDA:0,_RNvMs1_NtNtCsioRnW7FrYT6_6rustdb8analyzer14metadata_cacheNtB5_13MetadataCache9evict_lfu
FNDA:0,_RNvMs1_NtNtCsioRnW7FrYT6_6rustdb8analyzer14metadata_cacheNtB5_13MetadataCache9evict_lru
FNDA:164,_RNvMs_NtNtCsioRnW7FrYT6_6rustdb8analyzer14metadata_cacheNtB4_15CacheStatistics3new
FNDA:0,_RNvMs_NtNtCsioRnW7FrYT6_6rustdb8analyzer14metadata_cacheNtB4_15CacheStatistics8hit_rate
FNDA:0,_RNvMs_NtNtCsioRnW7FrYT6_6rustdb8analyzer14metadata_cacheNtB4_15CacheStatistics9miss_rate
FNDA:0,_RNvNtNtCsioRnW7FrYT6_6rustdb8analyzer14metadata_cache20current_timestamp_ms
FNDA:164,_RNvXs0_NtNtCsioRnW7FrYT6_6rustdb8analyzer14metadata_cacheNtB5_13CacheSettingsNtNtCsixiwFwjEgS7_4core7default7Default7default
FNDA:0,_RNvXs2_NtNtCsioRnW7FrYT6_6rustdb8analyzer14metadata_cacheNtB5_13MetadataCacheNtNtCsixiwFwjEgS7_4core7default7Default7default
FNDA:0,_RNvMNtNtCs9nxHbwgHRMj_6rustdb8analyzer14metadata_cacheNtB2_10CacheEntry6age_ms
FNDA:0,_RNvMs1_NtNtCs9nxHbwgHRMj_6rustdb8analyzer14metadata_cacheNtB5_13MetadataCache12put_with_ttl
FNDA:0,_RNvMs1_NtNtCs9nxHbwgHRMj_6rustdb8analyzer14metadata_cacheNtB5_13MetadataCache15update_settings
FNDA:0,_RNvMs1_NtNtCs9nxHbwgHRMj_6rustdb8analyzer14metadata_cacheNtB5_13MetadataCache19detailed_statistics
FNDA:0,_RNvMs1_NtNtCs9nxHbwgHRMj_6rustdb8analyzer14metadata_cacheNtB5_13MetadataCache8settings
FNDA:0,_RNvMs_NtNtCs9nxHbwgHRMj_6rustdb8analyzer14metadata_cacheNtB4_15CacheStatistics8hit_rate
FNDA:0,_RNvMs_NtNtCs9nxHbwgHRMj_6rustdb8analyzer14metadata_cacheNtB4_15CacheStatistics9miss_rate
FNDA:0,_RNvXs2_NtNtCs9nxHbwgHRMj_6rustdb8analyzer14metadata_cacheNtB5_13MetadataCacheNtNtCsixiwFwjEgS7_4core7default7Default7default
FNDA:1,_RNvNtNtNtCs9nxHbwgHRMj_6rustdb8analyzer14metadata_cache5testss_18test_cache_cleanup
FNDA:1,_RNvNtNtNtCs9nxHbwgHRMj_6rustdb8analyzer14metadata_cache5testss_19test_disabled_cache
FNDA:1,_RNvNtNtNtCs9nxHbwgHRMj_6rustdb8analyzer14metadata_cache5testss_21test_cache_statistics
FNDA:1,_RNvNtNtNtCs9nxHbwgHRMj_6rustdb8analyzer14metadata_cache5testss_24test_convenience_methods
FNDA:1,_RNvNtNtNtCs9nxHbwgHRMj_6rustdb8analyzer14metadata_cache5testss_25test_cache_entry_creation
FNDA:1,_RNvNtNtNtCs9nxHbwgHRMj_6rustdb8analyzer14metadata_cache5testss_25test_cache_entry_with_ttl
FNDA:1,_RNvNtNtNtCs9nxHbwgHRMj_6rustdb8analyzer14metadata_cache5testss_36test_metadata_cache_basic_operations
FNDA:31,_RNvMNtNtCs9nxHbwgHRMj_6rustdb8analyzer14metadata_cacheNtB2_10CacheEntry10is_expired
FNDA:15,_RNvMNtNtCs9nxHbwgHRMj_6rustdb8analyzer14metadata_cacheNtB2_10CacheEntry3new
FNDA:8,_RNvMNtNtCs9nxHbwgHRMj_6rustdb8analyzer14metadata_cacheNtB2_10CacheEntry6access
FNDA:14,_RNvMNtNtCs9nxHbwgHRMj_6rustdb8analyzer14metadata_cacheNtB2_10CacheEntry8with_ttl
FNDA:0,_RNvMs1_NtNtCs9nxHbwgHRMj_6rustdb8analyzer14metadata_cacheNtB5_13MetadataCache10evict_fifo
FNDA:4,_RNvMs1_NtNtCs9nxHbwgHRMj_6rustdb8analyzer14metadata_cacheNtB5_13MetadataCache10is_enabled
FNDA:5,_RNvMs1_NtNtCs9nxHbwgHRMj_6rustdb8analyzer14metadata_cacheNtB5_13MetadataCache10statistics
FNDA:2,_RNvMs1_NtNtCs9nxHbwgHRMj_6rustdb8analyzer14metadata_cacheNtB5_13MetadataCache11set_enabled
FNDA:0,_RNvMs1_NtNtCs9nxHbwgHRMj_6rustdb8analyzer14metadata_cacheNtB5_13MetadataCache13evict_entries
FNDA:0,_RNvMs1_NtNtCs9nxHbwgHRMj_6rustdb8analyzer14metadata_cacheNtB5_13MetadataCache13evict_expired
FNDA:2,_RNvMs1_NtNtCs9nxHbwgHRMj_6rustdb8analyzer14metadata_cacheNtB5_13MetadataCache13with_settings
FNDA:2,_RNvMs1_NtNtCs9nxHbwgHRMj_6rustdb8analyzer14metadata_cacheNtB5_13MetadataCache14get_table_info
FNDA:1,_RNvMs1_NtNtCs9nxHbwgHRMj_6rustdb8analyzer14metadata_cacheNtB5_13MetadataCache14get_type_check
FNDA:1,_RNvMs1_NtNtCs9nxHbwgHRMj_6rustdb8analyzer14metadata_cacheNtB5_13MetadataCache15get_column_info
FNDA:2,_RNvMs1_NtNtCs9nxHbwgHRMj_6rustdb8analyzer14metadata_cacheNtB5_13MetadataCache16cache_table_info
FNDA:1,_RNvMs1_NtNtCs9nxHbwgHRMj_6rustdb8analyzer14metadata_cacheNtB5_13MetadataCache16cache_type_check
FNDA:1,_RNvMs1_NtNtCs9nxHbwgHRMj_6rustdb8analyzer14metadata_cacheNtB5_13MetadataCache17cache_column_info
FNDA:17,_RNvMs1_NtNtCs9nxHbwgHRMj_6rustdb8analyzer14metadata_cacheNtB5_13MetadataCache17update_statistics
FNDA:12,_RNvMs1_NtNtCs9nxHbwgHRMj_6rustdb8analyzer14metadata_cacheNtB5_13MetadataCache3get
FNDA:46,_RNvMs1_NtNtCs9nxHbwgHRMj_6rustdb8analyzer14metadata_cacheNtB5_13MetadataCache3new
FNDA:16,_RNvMs1_NtNtCs9nxHbwgHRMj_6rustdb8analyzer14metadata_cacheNtB5_13MetadataCache3put
FNDA:3,_RNvMs1_NtNtCs9nxHbwgHRMj_6rustdb8analyzer14metadata_cacheNtB5_13MetadataCache5clear
FNDA:2,_RNvMs1_NtNtCs9nxHbwgHRMj_6rustdb8analyzer14metadata_cacheNtB5_13MetadataCache6remove
FNDA:2,_RNvMs1_NtNtCs9nxHbwgHRMj_6rustdb8analyzer14metadata_cacheNtB5_13MetadataCache7cleanup
FNDA:14,_RNvMs1_NtNtCs9nxHbwgHRMj_6rustdb8analyzer14metadata_cacheNtB5_13MetadataCache8contains
FNDA:0,_RNvMs1_NtNtCs9nxHbwgHRMj_6rustdb8analyzer14metadata_cacheNtB5_13MetadataCache9evict_lfu
FNDA:0,_RNvMs1_NtNtCs9nxHbwgHRMj_6rustdb8analyzer14metadata_cacheNtB5_13MetadataCache9evict_lru
FNDA:51,_RNvMs_NtNtCs9nxHbwgHRMj_6rustdb8analyzer14metadata_cacheNtB4_15CacheStatistics3new
FNDA:55,_RNvNtNtCs9nxHbwgHRMj_6rustdb8analyzer14metadata_cache20current_timestamp_ms
FNDA:46,_RNvXs0_NtNtCs9nxHbwgHRMj_6rustdb8analyzer14metadata_cacheNtB5_13CacheSettingsNtNtCsixiwFwjEgS7_4core7default7Default7default
FNDA:0,_RNCNvMs1_NtNtCs9nxHbwgHRMj_6rustdb8analyzer14metadata_cacheNtB7_13MetadataCache10evict_fifo0Bb_
FNDA:0,_RNCNvMs1_NtNtCs9nxHbwgHRMj_6rustdb8analyzer14metadata_cacheNtB7_13MetadataCache13evict_expired0Bb_
FNDA:0,_RNCNvMs1_NtNtCs9nxHbwgHRMj_6rustdb8analyzer14metadata_cacheNtB7_13MetadataCache13evict_expireds_0Bb_
FNDA:14,_RNCNvMs1_NtNtCs9nxHbwgHRMj_6rustdb8analyzer14metadata_cacheNtB7_13MetadataCache17update_statistics0Bb_
FNDA:0,_RNCNvMs1_NtNtCs9nxHbwgHRMj_6rustdb8analyzer14metadata_cacheNtB7_13MetadataCache9evict_lfu0Bb_
FNDA:0,_RNCNvMs1_NtNtCs9nxHbwgHRMj_6rustdb8analyzer14metadata_cacheNtB7_13MetadataCache9evict_lru0Bb_
FNF:51
FNH:33
DA:25,15
DA:26,15
DA:27,15
DA:28,15
DA:29,15
DA:30,15
DA:31,15
DA:32,15
DA:33,15
DA:34,15
DA:36,14
DA:37,14
DA:38,14
DA:39,14
DA:41,31
DA:42,31
DA:43,30
DA:44,30
DA:46,1
DA:48,31
DA:50,8
DA:51,8
DA:52,8
DA:53,8
DA:55,0
DA:56,0
DA:57,0
DA:130,215
DA:131,215
DA:132,215
DA:133,215
DA:134,215
DA:135,215
DA:136,215
DA:137,215
DA:138,215
DA:139,215
DA:141,0
DA:142,0
DA:143,0
DA:144,0
DA:146,0
DA:148,0
DA:150,0
DA:151,0
DA:152,0
DA:184,210
DA:185,210
DA:186,210
DA:187,210
DA:188,210
DA:189,210
DA:190,210
DA:191,210
DA:192,210
DA:211,210
DA:212,210
DA:213,210
DA:214,210
DA:215,210
DA:216,210
DA:217,210
DA:218,210
DA:219,210
DA:222,2
DA:223,2
DA:224,2
DA:225,2
DA:226,2
DA:227,2
DA:228,2
DA:229,2
DA:230,2
DA:233,12
DA:234,12
DA:235,2
DA:236,10
DA:239,10
DA:240,8
DA:242,2
DA:245,10
DA:246,0
DA:247,0
DA:248,0
DA:249,10
DA:251,10
DA:253,8
DA:254,8
DA:255,8
DA:257,2
DA:258,2
DA:260,12
DA:263,16
DA:264,16
DA:265,3
DA:266,13
DA:268,13
DA:271,13
DA:272,13
DA:273,13
DA:276,13
DA:277,0
DA:278,13
DA:280,13
DA:281,13
DA:282,16
DA:285,0
DA:286,0
DA:287,0
DA:288,0
DA:290,0
DA:293,0
DA:294,0
DA:295,0
DA:297,0
DA:298,0
DA:299,0
DA:302,2
DA:303,2
DA:304,2
DA:305,2
DA:307,0
DA:309,2
DA:312,14
DA:313,14
DA:314,3
DA:315,11
DA:317,11
DA:318,5
DA:320,6
DA:322,14
DA:325,3
DA:326,3
DA:327,3
DA:328,3
DA:331,2
DA:332,2
DA:335,2
DA:336,0
DA:337,2
DA:339,2
DA:341,4
DA:342,2
DA:343,2
DA:344,2
DA:347,4
DA:348,2
DA:349,2
DA:351,2
DA:352,2
DA:353,2
DA:354,2
DA:357,5
DA:358,5
DA:359,5
DA:360,5
DA:361,5
DA:362,5
DA:365,0
DA:366,0
DA:367,0
DA:368,0
DA:371,2
DA:372,2
DA:373,2
DA:374,1
DA:375,1
DA:376,2
DA:379,4
DA:380,4
DA:381,4
DA:384,0
DA:385,0
DA:386,0
DA:389,0
DA:390,0
DA:391,0
DA:395,0
DA:396,0
DA:398,0
DA:399,0
DA:400,0
DA:401,0
DA:402,0
DA:404,0
DA:406,0
DA:407,0
DA:408,0
DA:409,0
DA:410,0
DA:411,0
DA:412,0
DA:414,0
DA:415,0
DA:416,0
DA:417,0
DA:419,0
DA:420,0
DA:421,0
DA:422,0
DA:423,0
DA:424,0
DA:425,0
DA:427,0
DA:428,0
DA:429,0
DA:430,0
DA:432,0
DA:433,0
DA:434,0
DA:435,0
DA:436,0
DA:437,0
DA:438,0
DA:440,0
DA:441,0
DA:442,0
DA:443,0
DA:445,0
DA:446,0
DA:447,0
DA:448,0
DA:449,0
DA:450,0
DA:451,0
DA:453,0
DA:454,0
DA:455,0
DA:456,0
DA:458,17
DA:459,17
DA:460,17
DA:461,17
DA:462,17
DA:463,17
DA:464,17
DA:467,17
DA:468,17
DA:473,2
DA:474,2
DA:475,2
DA:476,2
DA:477,2
DA:478,2
DA:479,2
DA:480,2
DA:481,2
DA:482,2
DA:483,2
DA:484,2
DA:485,2
DA:486,2
DA:487,2
DA:488,2
DA:491,2
DA:492,2
DA:493,2
DA:494,2
DA:495,2
DA:497,2
DA:498,2
DA:499,2
DA:501,2
DA:503,2
DA:505,0
DA:507,2
DA:510,1
DA:511,1
DA:512,1
DA:513,1
DA:514,1
DA:515,1
DA:516,1
DA:517,1
DA:518,1
DA:519,1
DA:520,1
DA:521,1
DA:522,1
DA:523,1
DA:524,1
DA:525,1
DA:526,1
DA:527,1
DA:528,1
DA:529,1
DA:532,1
DA:533,1
DA:534,1
DA:535,1
DA:536,1
DA:537,1
DA:539,1
DA:540,1
DA:541,1
DA:542,1
DA:544,1
DA:546,1
DA:548,0
DA:550,1
DA:553,1
DA:554,1
DA:555,1
DA:556,1
DA:557,1
DA:558,1
DA:559,1
DA:560,1
DA:561,1
DA:564,1
DA:565,1
DA:567,1
DA:568,1
DA:570,1
DA:572,1
DA:574,0
DA:576,1
DA:580,0
DA:581,0
DA:582,0
DA:586,55
DA:587,55
DA:588,55
DA:589,55
DA:590,55
DA:591,55
DA:598,1
DA:599,1
DA:600,1
DA:601,1
DA:602,1
DA:603,1
DA:604,1
DA:606,1
DA:607,1
DA:608,1
DA:609,1
DA:612,1
DA:613,1
DA:614,1
DA:615,1
DA:616,1
DA:617,1
DA:618,1
DA:620,1
DA:623,1
DA:624,1
DA:625,1
DA:628,1
DA:629,1
DA:631,1
DA:632,1
DA:633,1
DA:634,1
DA:635,1
DA:636,1
DA:639,1
DA:640,1
DA:643,1
DA:644,1
DA:647,1
DA:648,1
DA:649,1
DA:652,1
DA:653,1
DA:655,1
DA:656,1
DA:657,1
DA:658,1
DA:659,1
DA:660,1
DA:663,1
DA:666,1
DA:669,1
DA:671,1
DA:672,1
DA:673,1
DA:674,1
DA:677,1
DA:678,1
DA:680,1
DA:681,1
DA:682,1
DA:683,1
DA:684,1
DA:685,1
DA:688,1
DA:691,1
DA:692,1
DA:693,1
DA:696,1
DA:697,1
DA:698,1
DA:699,1
DA:700,1
DA:701,1
DA:702,1
DA:703,1
DA:705,1
DA:707,1
DA:708,1
DA:709,1
DA:710,1
DA:711,1
DA:712,1
DA:715,1
DA:718,1
DA:721,1
DA:724,1
DA:725,1
DA:728,1
DA:729,1
DA:732,1
DA:735,1
DA:736,1
DA:738,1
DA:739,1
DA:740,1
DA:741,1
DA:742,1
BRF:0
BRH:0
LF:426
LH:324
end_of_record
SF:C:\Users\Admin\RustProjects\RustBD\src\analyzer\object_checker.rs
FN:49,_RNvMNtNtCsioRnW7FrYT6_6rustdb8analyzer14object_checkerNtB2_14ObjectMetadata11with_schema
FN:54,_RNvMNtNtCsioRnW7FrYT6_6rustdb8analyzer14object_checkerNtB2_14ObjectMetadata13with_property
FN:41,_RNvMNtNtCsioRnW7FrYT6_6rustdb8analyzer14object_checkerNtB2_14ObjectMetadata3new
FN:181,_RNvMs_NtNtCsioRnW7FrYT6_6rustdb8analyzer14object_checkerNtB4_13ObjectChecker11clear_cache
FN:78,_RNvMs_NtNtCsioRnW7FrYT6_6rustdb8analyzer14object_checkerNtB4_13ObjectChecker13without_cache
FN:194,_RNvMs_NtNtCsioRnW7FrYT6_6rustdb8analyzer14object_checkerNtB4_13ObjectChecker16cache_statistics
FN:186,_RNvMs_NtNtCsioRnW7FrYT6_6rustdb8analyzer14object_checkerNtB4_13ObjectChecker17set_cache_enabled
FN:150,_RNvMs_NtNtCsioRnW7FrYT6_6rustdb8analyzer14object_checkerNtB4_13ObjectChecker18check_index_exists
FN:86,_RNvMs_NtNtCsioRnW7FrYT6_6rustdb8analyzer14object_checkerNtB4_13ObjectChecker18check_table_exists
FN:117,_RNvMs_NtNtCsioRnW7FrYT6_6rustdb8analyzer14object_checkerNtB4_13ObjectChecker19check_column_exists
FN:70,_RNvMs_NtNtCsioRnW7FrYT6_6rustdb8analyzer14object_checkerNtB4_13ObjectChecker3new
FN:200,_RNvXs0_NtNtCsioRnW7FrYT6_6rustdb8analyzer14object_checkerNtB5_13ObjectCheckerNtNtCsixiwFwjEgS7_4core7default7Default7default
FN:200,_RNvXs0_NtNtCs9nxHbwgHRMj_6rustdb8analyzer14object_checkerNtB5_13ObjectCheckerNtNtCsixiwFwjEgS7_4core7default7Default7default
FN:223,_RNvNtNtNtCs9nxHbwgHRMj_6rustdb8analyzer14object_checker5testss_20test_object_metadata
FN:234,_RNvNtNtNtCs9nxHbwgHRMj_6rustdb8analyzer14object_checker5testss_21test_cache_operations
FN:278,_RNvNtNtNtCs9nxHbwgHRMj_6rustdb8analyzer14object_checker5testss_23test_index_exists_check
FN:254,_RNvNtNtNtCs9nxHbwgHRMj_6rustdb8analyzer14object_checker5testss_23test_table_exists_check
FN:266,_RNvNtNtNtCs9nxHbwgHRMj_6rustdb8analyzer14object_checker5testss_24test_column_exists_check
FN:210,_RNvNtNtNtCs9nxHbwgHRMj_6rustdb8analyzer14object_checker5testss_28test_object_checker_creation
FN:217,_RNvNtNtNtCs9nxHbwgHRMj_6rustdb8analyzer14object_checker5testss_33test_object_checker_without_cache
FN:49,_RNvMNtNtCs9nxHbwgHRMj_6rustdb8analyzer14object_checkerNtB2_14ObjectMetadata11with_schema
FN:54,_RNvMNtNtCs9nxHbwgHRMj_6rustdb8analyzer14object_checkerNtB2_14ObjectMetadata13with_property
FN:41,_RNvMNtNtCs9nxHbwgHRMj_6rustdb8analyzer14object_checkerNtB2_14ObjectMetadata3new
FN:181,_RNvMs_NtNtCs9nxHbwgHRMj_6rustdb8analyzer14object_checkerNtB4_13ObjectChecker11clear_cache
FN:78,_RNvMs_NtNtCs9nxHbwgHRMj_6rustdb8analyzer14object_checkerNtB4_13ObjectChecker13without_cache
FN:194,_RNvMs_NtNtCs9nxHbwgHRMj_6rustdb8analyzer14object_checkerNtB4_13ObjectChecker16cache_statistics
FN:186,_RNvMs_NtNtCs9nxHbwgHRMj_6rustdb8analyzer14object_checkerNtB4_13ObjectChecker17set_cache_enabled
FN:150,_RNvMs_NtNtCs9nxHbwgHRMj_6rustdb8analyzer14object_checkerNtB4_13ObjectChecker18check_index_exists
FN:86,_RNvMs_NtNtCs9nxHbwgHRMj_6rustdb8analyzer14object_checkerNtB4_13ObjectChecker18check_table_exists
FN:117,_RNvMs_NtNtCs9nxHbwgHRMj_6rustdb8analyzer14object_checkerNtB4_13ObjectChecker19check_column_exists
FN:70,_RNvMs_NtNtCs9nxHbwgHRMj_6rustdb8analyzer14object_checkerNtB4_13ObjectChecker3new
FNDA:0,_RNvMNtNtCsioRnW7FrYT6_6rustdb8analyzer14object_checkerNtB2_14ObjectMetadata11with_schema
FNDA:0,_RNvMNtNtCsioRnW7FrYT6_6rustdb8analyzer14object_checkerNtB2_14ObjectMetadata13with_property
FNDA:0,_RNvMNtNtCsioRnW7FrYT6_6rustdb8analyzer14object_checkerNtB2_14ObjectMetadata3new
FNDA:0,_RNvMs_NtNtCsioRnW7FrYT6_6rustdb8analyzer14object_checkerNtB4_13ObjectChecker11clear_cache
FNDA:0,_RNvMs_NtNtCsioRnW7FrYT6_6rustdb8analyzer14object_checkerNtB4_13ObjectChecker13without_cache
FNDA:0,_RNvMs_NtNtCsioRnW7FrYT6_6rustdb8analyzer14object_checkerNtB4_13ObjectChecker16cache_statistics
FNDA:0,_RNvMs_NtNtCsioRnW7FrYT6_6rustdb8analyzer14object_checkerNtB4_13ObjectChecker17set_cache_enabled
FNDA:0,_RNvMs_NtNtCsioRnW7FrYT6_6rustdb8analyzer14object_checkerNtB4_13ObjectChecker18check_index_exists
FNDA:0,_RNvMs_NtNtCsioRnW7FrYT6_6rustdb8analyzer14object_checkerNtB4_13ObjectChecker18check_table_exists
FNDA:0,_RNvMs_NtNtCsioRnW7FrYT6_6rustdb8analyzer14object_checkerNtB4_13ObjectChecker19check_column_exists
FNDA:164,_RNvMs_NtNtCsioRnW7FrYT6_6rustdb8analyzer14object_checkerNtB4_13ObjectChecker3new
FNDA:0,_RNvXs0_NtNtCsioRnW7FrYT6_6rustdb8analyzer14object_checkerNtB5_13ObjectCheckerNtNtCsixiwFwjEgS7_4core7default7Default7default
FNDA:0,_RNvXs0_NtNtCs9nxHbwgHRMj_6rustdb8analyzer14object_checkerNtB5_13ObjectCheckerNtNtCsixiwFwjEgS7_4core7default7Default7default
FNDA:1,_RNvNtNtNtCs9nxHbwgHRMj_6rustdb8analyzer14object_checker5testss_20test_object_metadata
FNDA:1,_RNvNtNtNtCs9nxHbwgHRMj_6rustdb8analyzer14object_checker5testss_21test_cache_operations
FNDA:1,_RNvNtNtNtCs9nxHbwgHRMj_6rustdb8analyzer14object_checker5testss_23test_index_exists_check
FNDA:1,_RNvNtNtNtCs9nxHbwgHRMj_6rustdb8analyzer14object_checker5testss_23test_table_exists_check
FNDA:1,_RNvNtNtNtCs9nxHbwgHRMj_6rustdb8analyzer14object_checker5testss_24test_column_exists_check
FNDA:1,_RNvNtNtNtCs9nxHbwgHRMj_6rustdb8analyzer14object_checker5testss_28test_object_checker_creation
FNDA:1,_RNvNtNtNtCs9nxHbwgHRMj_6rustdb8analyzer14object_checker5testss_33test_object_checker_without_cache
FNDA:2,_RNvMNtNtCs9nxHbwgHRMj_6rustdb8analyzer14object_checkerNtB2_14ObjectMetadata11with_schema
FNDA:15,_RNvMNtNtCs9nxHbwgHRMj_6rustdb8analyzer14object_checkerNtB2_14ObjectMetadata13with_property
FNDA:12,_RNvMNtNtCs9nxHbwgHRMj_6rustdb8analyzer14object_checkerNtB2_14ObjectMetadata3new
FNDA:1,_RNvMs_NtNtCs9nxHbwgHRMj_6rustdb8analyzer14object_checkerNtB4_13ObjectChecker11clear_cache
FNDA:1,_RNvMs_NtNtCs9nxHbwgHRMj_6rustdb8analyzer14object_checkerNtB4_13ObjectChecker13without_cache
FNDA:8,_RNvMs_NtNtCs9nxHbwgHRMj_6rustdb8analyzer14object_checkerNtB4_13ObjectChecker16cache_statistics
FNDA:3,_RNvMs_NtNtCs9nxHbwgHRMj_6rustdb8analyzer14object_checkerNtB4_13ObjectChecker17set_cache_enabled
FNDA:2,_RNvMs_NtNtCs9nxHbwgHRMj_6rustdb8analyzer14object_checkerNtB4_13ObjectChecker18check_index_exists
FNDA:7,_RNvMs_NtNtCs9nxHbwgHRMj_6rustdb8analyzer14object_checkerNtB4_13ObjectChecker18check_table_exists
FNDA:2,_RNvMs_NtNtCs9nxHbwgHRMj_6rustdb8analyzer14object_checkerNtB4_13ObjectChecker19check_column_exists
FNDA:44,_RNvMs_NtNtCs9nxHbwgHRMj_6rustdb8analyzer14object_checkerNtB4_13ObjectChecker3new
FNF:19
FNH:18
DA:41,12
DA:42,12
DA:43,12
DA:44,12
DA:45,12
DA:46,12
DA:47,12
DA:49,2
DA:50,2
DA:51,2
DA:52,2
DA:54,15
DA:55,15
DA:56,15
DA:57,15
DA:70,208
DA:71,208
DA:72,208
DA:73,208
DA:74,208
DA:75,208
DA:78,1
DA:79,1
DA:80,1
DA:81,1
DA:82,1
DA:83,1
DA:86,7
DA:87,7
DA:88,7
DA:89,7
DA:90,7
DA:91,7
DA:94,7
DA:95,6
DA:96,1
DA:97,5
DA:98,1
DA:101,6
DA:102,6
DA:103,6
DA:104,6
DA:105,6
DA:106,6
DA:109,6
DA:110,5
DA:111,5
DA:113,6
DA:114,7
DA:117,2
DA:118,2
DA:119,2
DA:120,2
DA:121,2
DA:122,2
DA:123,2
DA:126,2
DA:127,2
DA:128,0
DA:129,2
DA:130,0
DA:133,2
DA:134,2
DA:135,2
DA:136,2
DA:137,2
DA:138,2
DA:139,2
DA:142,2
DA:143,2
DA:144,2
DA:146,2
DA:147,2
DA:150,2
DA:151,2
DA:152,2
DA:153,2
DA:154,2
DA:155,2
DA:158,2
DA:159,2
DA:160,0
DA:161,2
DA:162,0
DA:165,2
DA:166,2
DA:167,2
DA:168,2
DA:169,2
DA:170,2
DA:173,2
DA:174,2
DA:175,2
DA:177,2
DA:178,2
DA:181,1
DA:182,1
DA:183,1
DA:186,3
DA:187,3
DA:188,3
DA:189,2
DA:190,2
DA:191,3
DA:194,8
DA:195,8
DA:196,8
DA:200,0
DA:201,0
DA:202,0
DA:210,1
DA:211,1
DA:212,1
DA:213,1
DA:214,1
DA:217,1
DA:218,1
DA:219,1
DA:220,1
DA:223,1
DA:224,1
DA:225,1
DA:226,1
DA:228,1
DA:229,1
DA:230,1
DA:231,1
DA:234,1
DA:235,1
DA:238,1
DA:239,1
DA:240,1
DA:243,1
DA:244,1
DA:245,1
DA:248,1
DA:249,1
DA:250,1
DA:251,1
DA:254,1
DA:255,1
DA:256,1
DA:258,1
DA:259,1
DA:260,1
DA:262,1
DA:263,1
DA:266,1
DA:267,1
DA:268,1
DA:270,1
DA:271,1
DA:272,1
DA:274,1
DA:275,1
DA:278,1
DA:279,1
DA:280,1
DA:282,1
DA:283,1
DA:284,1
DA:286,1
DA:287,1
BRF:0
BRH:0
LF:163
LH:156
end_of_record
SF:C:\Users\Admin\RustProjects\RustBD\src\analyzer\semantic_analyzer.rs
FN:101,_RNvMs0_NtNtCsioRnW7FrYT6_6rustdb8analyzer17semantic_analyzerNtB5_14AnalysisResult10has_errors
FN:97,_RNvMs0_NtNtCsioRnW7FrYT6_6rustdb8analyzer17semantic_analyzerNtB5_14AnalysisResult11add_warning
FN:105,_RNvMs0_NtNtCsioRnW7FrYT6_6rustdb8analyzer17semantic_analyzerNtB5_14AnalysisResult12has_warnings
FN:82,_RNvMs0_NtNtCsioRnW7FrYT6_6rustdb8analyzer17semantic_analyzerNtB5_14AnalysisResult3new
FN:92,_RNvMs0_NtNtCsioRnW7FrYT6_6rustdb8analyzer17semantic_analyzerNtB5_14AnalysisResult9add_error
FN:155,_RNvMs1_NtNtCsioRnW7FrYT6_6rustdb8analyzer17semantic_analyzerNtB5_15TypeInformation3new
FN:190,_RNvMs2_NtNtCsioRnW7FrYT6_6rustdb8analyzer17semantic_analyzerNtB5_18AnalysisStatistics3new
FN:354,_RNvMs3_NtNtCsioRnW7FrYT6_6rustdb8analyzer17semantic_analyzerNtB5_16SemanticAnalyzer11check_types
FN:706,_RNvMs3_NtNtCsioRnW7FrYT6_6rustdb8analyzer17semantic_analyzerNtB5_16SemanticAnalyzer11clear_cache
FN:701,_RNvMs3_NtNtCsioRnW7FrYT6_6rustdb8analyzer17semantic_analyzerNtB5_16SemanticAnalyzer15update_settings
FN:297,_RNvMs3_NtNtCsioRnW7FrYT6_6rustdb8analyzer17semantic_analyzerNtB5_16SemanticAnalyzer16analyze_multiple
FN:711,_RNvMs3_NtNtCsioRnW7FrYT6_6rustdb8analyzer17semantic_analyzerNtB5_16SemanticAnalyzer16cache_statistics
FN:388,_RNvMs3_NtNtCsioRnW7FrYT6_6rustdb8analyzer17semantic_analyzerNtB5_16SemanticAnalyzer19check_access_rights
FN:231,_RNvMs3_NtNtCsioRnW7FrYT6_6rustdb8analyzer17semantic_analyzerNtB5_16SemanticAnalyzer19with_schema_manager
FN:589,_RNvMs3_NtNtCsioRnW7FrYT6_6rustdb8analyzer17semantic_analyzerNtB5_16SemanticAnalyzer20check_delete_objects
FN:537,_RNvMs3_NtNtCsioRnW7FrYT6_6rustdb8analyzer17semantic_analyzerNtB5_16SemanticAnalyzer20check_insert_objects
FN:413,_RNvMs3_NtNtCsioRnW7FrYT6_6rustdb8analyzer17semantic_analyzerNtB5_16SemanticAnalyzer20check_select_objects
FN:563,_RNvMs3_NtNtCsioRnW7FrYT6_6rustdb8analyzer17semantic_analyzerNtB5_16SemanticAnalyzer20check_update_objects
FN:318,_RNvMs3_NtNtCsioRnW7FrYT6_6rustdb8analyzer17semantic_analyzerNtB5_16SemanticAnalyzer22check_object_existence
FN:669,_RNvMs3_NtNtCsioRnW7FrYT6_6rustdb8analyzer17semantic_analyzerNtB5_16SemanticAnalyzer24check_drop_table_objects
FN:507,_RNvMs3_NtNtCsioRnW7FrYT6_6rustdb8analyzer17semantic_analyzerNtB5_16SemanticAnalyzer24check_expression_objects
FN:643,_RNvMs3_NtNtCsioRnW7FrYT6_6rustdb8analyzer17semantic_analyzerNtB5_16SemanticAnalyzer25check_alter_table_objects
FN:434,_RNvMs3_NtNtCsioRnW7FrYT6_6rustdb8analyzer17semantic_analyzerNtB5_16SemanticAnalyzer25check_from_clause_objects
FN:490,_RNvMs3_NtNtCsioRnW7FrYT6_6rustdb8analyzer17semantic_analyzerNtB5_16SemanticAnalyzer25check_select_item_objects
FN:615,_RNvMs3_NtNtCsioRnW7FrYT6_6rustdb8analyzer17semantic_analyzerNtB5_16SemanticAnalyzer26check_create_table_objects
FN:214,_RNvMs3_NtNtCsioRnW7FrYT6_6rustdb8analyzer17semantic_analyzerNtB5_16SemanticAnalyzer3new
FN:237,_RNvMs3_NtNtCsioRnW7FrYT6_6rustdb8analyzer17semantic_analyzerNtB5_16SemanticAnalyzer7analyze
FN:226,_RNvMs3_NtNtCsioRnW7FrYT6_6rustdb8analyzer17semantic_analyzerNtB5_16SemanticAnalyzer7default
FN:696,_RNvMs3_NtNtCsioRnW7FrYT6_6rustdb8analyzer17semantic_analyzerNtB5_16SemanticAnalyzer8settings
FN:30,_RNvXNtNtCsioRnW7FrYT6_6rustdb8analyzer17semantic_analyzerNtB2_24SemanticAnalyzerSettingsNtNtCsixiwFwjEgS7_4core7default7Default7default
FN:56,_RNvXs_NtNtCsioRnW7FrYT6_6rustdb8analyzer17semantic_analyzerNtB4_15AnalysisContextNtNtCsixiwFwjEgS7_4core7default7Default7default
FN:105,_RNvMs0_NtNtCs9nxHbwgHRMj_6rustdb8analyzer17semantic_analyzerNtB5_14AnalysisResult12has_warnings
FN:231,_RNvMs3_NtNtCs9nxHbwgHRMj_6rustdb8analyzer17semantic_analyzerNtB5_16SemanticAnalyzer19with_schema_manager
FN:101,_RNvMs0_NtNtCs9nxHbwgHRMj_6rustdb8analyzer17semantic_analyzerNtB5_14AnalysisResult10has_errors
FN:97,_RNvMs0_NtNtCs9nxHbwgHRMj_6rustdb8analyzer17semantic_analyzerNtB5_14AnalysisResult11add_warning
FN:82,_RNvMs0_NtNtCs9nxHbwgHRMj_6rustdb8analyzer17semantic_analyzerNtB5_14AnalysisResult3new
FN:92,_RNvMs0_NtNtCs9nxHbwgHRMj_6rustdb8analyzer17semantic_analyzerNtB5_14AnalysisResult9add_error
FN:155,_RNvMs1_NtNtCs9nxHbwgHRMj_6rustdb8analyzer17semantic_analyzerNtB5_15TypeInformation3new
FN:190,_RNvMs2_NtNtCs9nxHbwgHRMj_6rustdb8analyzer17semantic_analyzerNtB5_18AnalysisStatistics3new
FN:354,_RNvMs3_NtNtCs9nxHbwgHRMj_6rustdb8analyzer17semantic_analyzerNtB5_16SemanticAnalyzer11check_types
FN:706,_RNvMs3_NtNtCs9nxHbwgHRMj_6rustdb8analyzer17semantic_analyzerNtB5_16SemanticAnalyzer11clear_cache
FN:701,_RNvMs3_NtNtCs9nxHbwgHRMj_6rustdb8analyzer17semantic_analyzerNtB5_16SemanticAnalyzer15update_settings
FN:297,_RNvMs3_NtNtCs9nxHbwgHRMj_6rustdb8analyzer17semantic_analyzerNtB5_16SemanticAnalyzer16analyze_multiple
FN:711,_RNvMs3_NtNtCs9nxHbwgHRMj_6rustdb8analyzer17semantic_analyzerNtB5_16SemanticAnalyzer16cache_statistics
FN:388,_RNvMs3_NtNtCs9nxHbwgHRMj_6rustdb8analyzer17semantic_analyzerNtB5_16SemanticAnalyzer19check_access_rights
FN:589,_RNvMs3_NtNtCs9nxHbwgHRMj_6rustdb8analyzer17semantic_analyzerNtB5_16SemanticAnalyzer20check_delete_objects
FN:537,_RNvMs3_NtNtCs9nxHbwgHRMj_6rustdb8analyzer17semantic_analyzerNtB5_16SemanticAnalyzer20check_insert_objects
FN:413,_RNvMs3_NtNtCs9nxHbwgHRMj_6rustdb8analyzer17semantic_analyzerNtB5_16SemanticAnalyzer20check_select_objects
FN:563,_RNvMs3_NtNtCs9nxHbwgHRMj_6rustdb8analyzer17semantic_analyzerNtB5_16SemanticAnalyzer20check_update_objects
FN:318,_RNvMs3_NtNtCs9nxHbwgHRMj_6rustdb8analyzer17semantic_analyzerNtB5_16SemanticAnalyzer22check_object_existence
FN:669,_RNvMs3_NtNtCs9nxHbwgHRMj_6rustdb8analyzer17semantic_analyzerNtB5_16SemanticAnalyzer24check_drop_table_objects
FN:507,_RNvMs3_NtNtCs9nxHbwgHRMj_6rustdb8analyzer17semantic_analyzerNtB5_16SemanticAnalyzer24check_expression_objects
FN:643,_RNvMs3_NtNtCs9nxHbwgHRMj_6rustdb8analyzer17semantic_analyzerNtB5_16SemanticAnalyzer25check_alter_table_objects
FN:434,_RNvMs3_NtNtCs9nxHbwgHRMj_6rustdb8analyzer17semantic_analyzerNtB5_16SemanticAnalyzer25check_from_clause_objects
FN:490,_RNvMs3_NtNtCs9nxHbwgHRMj_6rustdb8analyzer17semantic_analyzerNtB5_16SemanticAnalyzer25check_select_item_objects
FN:615,_RNvMs3_NtNtCs9nxHbwgHRMj_6rustdb8analyzer17semantic_analyzerNtB5_16SemanticAnalyzer26check_create_table_objects
FN:214,_RNvMs3_NtNtCs9nxHbwgHRMj_6rustdb8analyzer17semantic_analyzerNtB5_16SemanticAnalyzer3new
FN:237,_RNvMs3_NtNtCs9nxHbwgHRMj_6rustdb8analyzer17semantic_analyzerNtB5_16SemanticAnalyzer7analyze
FN:226,_RNvMs3_NtNtCs9nxHbwgHRMj_6rustdb8analyzer17semantic_analyzerNtB5_16SemanticAnalyzer7default
FN:696,_RNvMs3_NtNtCs9nxHbwgHRMj_6rustdb8analyzer17semantic_analyzerNtB5_16SemanticAnalyzer8settings
FN:30,_RNvXNtNtCs9nxHbwgHRMj_6rustdb8analyzer17semantic_analyzerNtB2_24SemanticAnalyzerSettingsNtNtCsixiwFwjEgS7_4core7default7Default7default
FN:56,_RNvXs_NtNtCs9nxHbwgHRMj_6rustdb8analyzer17semantic_analyzerNtB4_15AnalysisContextNtNtCsixiwFwjEgS7_4core7default7Default7default
FNDA:0,_RNvMs0_NtNtCsioRnW7FrYT6_6rustdb8analyzer17semantic_analyzerNtB5_14AnalysisResult10has_errors
FNDA:0,_RNvMs0_NtNtCsioRnW7FrYT6_6rustdb8analyzer17semantic_analyzerNtB5_14AnalysisResult11add_warning
FNDA:0,_RNvMs0_NtNtCsioRnW7FrYT6_6rustdb8analyzer17semantic_analyzerNtB5_14AnalysisResult12has_warnings
FNDA:8523,_RNvMs0_NtNtCsioRnW7FrYT6_6rustdb8analyzer17semantic_analyzerNtB5_14AnalysisResult3new
FNDA:0,_RNvMs0_NtNtCsioRnW7FrYT6_6rustdb8analyzer17semantic_analyzerNtB5_14AnalysisResult9add_error
FNDA:17046,_RNvMs1_NtNtCsioRnW7FrYT6_6rustdb8analyzer17semantic_analyzerNtB5_15TypeInformation3new
FNDA:8523,_RNvMs2_NtNtCsioRnW7FrYT6_6rustdb8analyzer17semantic_analyzerNtB5_18AnalysisStatistics3new
FNDA:8523,_RNvMs3_NtNtCsioRnW7FrYT6_6rustdb8analyzer17semantic_analyzerNtB5_16SemanticAnalyzer11check_types
FNDA:0,_RNvMs3_NtNtCsioRnW7FrYT6_6rustdb8analyzer17semantic_analyzerNtB5_16SemanticAnalyzer11clear_cache
FNDA:0,_RNvMs3_NtNtCsioRnW7FrYT6_6rustdb8analyzer17semantic_analyzerNtB5_16SemanticAnalyzer15update_settings
FNDA:0,_RNvMs3_NtNtCsioRnW7FrYT6_6rustdb8analyzer17semantic_analyzerNtB5_16SemanticAnalyzer16analyze_multiple
FNDA:0,_RNvMs3_NtNtCsioRnW7FrYT6_6rustdb8analyzer17semantic_analyzerNtB5_16SemanticAnalyzer16cache_statistics
FNDA:0,_RNvMs3_NtNtCsioRnW7FrYT6_6rustdb8analyzer17semantic_analyzerNtB5_16SemanticAnalyzer19check_access_rights
FNDA:0,_RNvMs3_NtNtCsioRnW7FrYT6_6rustdb8analyzer17semantic_analyzerNtB5_16SemanticAnalyzer19with_schema_manager
FNDA:4,_RNvMs3_NtNtCsioRnW7FrYT6_6rustdb8analyzer17semantic_analyzerNtB5_16SemanticAnalyzer20check_delete_objects
FNDA:7909,_RNvMs3_NtNtCsioRnW7FrYT6_6rustdb8analyzer17semantic_analyzerNtB5_16SemanticAnalyzer20check_insert_objects
FNDA:422,_RNvMs3_NtNtCsioRnW7FrYT6_6rustdb8analyzer17semantic_analyzerNtB5_16SemanticAnalyzer20check_select_objects
FNDA:188,_RNvMs3_NtNtCsioRnW7FrYT6_6rustdb8analyzer17semantic_analyzerNtB5_16SemanticAnalyzer20check_update_objects
FNDA:8523,_RNvMs3_NtNtCsioRnW7FrYT6_6rustdb8analyzer17semantic_analyzerNtB5_16SemanticAnalyzer22check_object_existence
FNDA:0,_RNvMs3_NtNtCsioRnW7FrYT6_6rustdb8analyzer17semantic_analyzerNtB5_16SemanticAnalyzer24check_drop_table_objects
FNDA:0,_RNvMs3_NtNtCsioRnW7FrYT6_6rustdb8analyzer17semantic_analyzerNtB5_16SemanticAnalyzer24check_expression_objects
FNDA:0,_RNvMs3_NtNtCsioRnW7FrYT6_6rustdb8analyzer17semantic_analyzerNtB5_16SemanticAnalyzer25check_alter_table_objects
FNDA:422,_RNvMs3_NtNtCsioRnW7FrYT6_6rustdb8analyzer17semantic_analyzerNtB5_16SemanticAnalyzer25check_from_clause_objects
FNDA:422,_RNvMs3_NtNtCsioRnW7FrYT6_6rustdb8analyzer17semantic_analyzerNtB5_16SemanticAnalyzer25check_select_item_objects
FNDA:0,_RNvMs3_NtNtCsioRnW7FrYT6_6rustdb8analyzer17semantic_analyzerNtB5_16SemanticAnalyzer26check_create_table_objects
FNDA:164,_RNvMs3_NtNtCsioRnW7FrYT6_6rustdb8analyzer17semantic_analyzerNtB5_16SemanticAnalyzer3new
FNDA:8523,_RNvMs3_NtNtCsioRnW7FrYT6_6rustdb8analyzer17semantic_analyzerNtB5_16SemanticAnalyzer7analyze
FNDA:164,_RNvMs3_NtNtCsioRnW7FrYT6_6rustdb8analyzer17semantic_analyzerNtB5_16SemanticAnalyzer7default
FNDA:0,_RNvMs3_NtNtCsioRnW7FrYT6_6rustdb8analyzer17semantic_analyzerNtB5_16SemanticAnalyzer8settings
FNDA:164,_RNvXNtNtCsioRnW7FrYT6_6rustdb8analyzer17semantic_analyzerNtB2_24SemanticAnalyzerSettingsNtNtCsixiwFwjEgS7_4core7default7Default7default
FNDA:8523,_RNvXs_NtNtCsioRnW7FrYT6_6rustdb8analyzer17semantic_analyzerNtB4_15AnalysisContextNtNtCsixiwFwjEgS7_4core7default7Default7default
FNDA:0,_RNvMs0_NtNtCs9nxHbwgHRMj_6rustdb8analyzer17semantic_analyzerNtB5_14AnalysisResult12has_warnings
FNDA:0,_RNvMs3_NtNtCs9nxHbwgHRMj_6rustdb8analyzer17semantic_analyzerNtB5_16SemanticAnalyzer19with_schema_manager
FNDA:0,_RNvMs0_NtNtCs9nxHbwgHRMj_6rustdb8analyzer17semantic_analyzerNtB5_14AnalysisResult10has_errors
FNDA:0,_RNvMs0_NtNtCs9nxHbwgHRMj_6rustdb8analyzer17semantic_analyzerNtB5_14AnalysisResult11add_warning
FNDA:26,_RNvMs0_NtNtCs9nxHbwgHRMj_6rustdb8analyzer17semantic_analyzerNtB5_14AnalysisResult3new
FNDA:3,_RNvMs0_NtNtCs9nxHbwgHRMj_6rustdb8analyzer17semantic_analyzerNtB5_14AnalysisResult9add_error
FNDA:52,_RNvMs1_NtNtCs9nxHbwgHRMj_6rustdb8analyzer17semantic_analyzerNtB5_15TypeInformation3new
FNDA:26,_RNvMs2_NtNtCs9nxHbwgHRMj_6rustdb8analyzer17semantic_analyzerNtB5_18AnalysisStatistics3new
FNDA:25,_RNvMs3_NtNtCs9nxHbwgHRMj_6rustdb8analyzer17semantic_analyzerNtB5_16SemanticAnalyzer11check_types
FNDA:1,_RNvMs3_NtNtCs9nxHbwgHRMj_6rustdb8analyzer17semantic_analyzerNtB5_16SemanticAnalyzer11clear_cache
FNDA:1,_RNvMs3_NtNtCs9nxHbwgHRMj_6rustdb8analyzer17semantic_analyzerNtB5_16SemanticAnalyzer15update_settings
FNDA:1,_RNvMs3_NtNtCs9nxHbwgHRMj_6rustdb8analyzer17semantic_analyzerNtB5_16SemanticAnalyzer16analyze_multiple
FNDA:3,_RNvMs3_NtNtCs9nxHbwgHRMj_6rustdb8analyzer17semantic_analyzerNtB5_16SemanticAnalyzer16cache_statistics
FNDA:0,_RNvMs3_NtNtCs9nxHbwgHRMj_6rustdb8analyzer17semantic_analyzerNtB5_16SemanticAnalyzer19check_access_rights
FNDA:2,_RNvMs3_NtNtCs9nxHbwgHRMj_6rustdb8analyzer17semantic_analyzerNtB5_16SemanticAnalyzer20check_delete_objects
FNDA:3,_RNvMs3_NtNtCs9nxHbwgHRMj_6rustdb8analyzer17semantic_analyzerNtB5_16SemanticAnalyzer20check_insert_objects
FNDA:13,_RNvMs3_NtNtCs9nxHbwgHRMj_6rustdb8analyzer17semantic_analyzerNtB5_16SemanticAnalyzer20check_select_objects
FNDA:3,_RNvMs3_NtNtCs9nxHbwgHRMj_6rustdb8analyzer17semantic_analyzerNtB5_16SemanticAnalyzer20check_update_objects
FNDA:25,_RNvMs3_NtNtCs9nxHbwgHRMj_6rustdb8analyzer17semantic_analyzerNtB5_16SemanticAnalyzer22check_object_existence
FNDA:0,_RNvMs3_NtNtCs9nxHbwgHRMj_6rustdb8analyzer17semantic_analyzerNtB5_16SemanticAnalyzer24check_drop_table_objects
FNDA:6,_RNvMs3_NtNtCs9nxHbwgHRMj_6rustdb8analyzer17semantic_analyzerNtB5_16SemanticAnalyzer24check_expression_objects
FNDA:0,_RNvMs3_NtNtCs9nxHbwgHRMj_6rustdb8analyzer17semantic_analyzerNtB5_16SemanticAnalyzer25check_alter_table_objects
FNDA:12,_RNvMs3_NtNtCs9nxHbwgHRMj_6rustdb8analyzer17semantic_analyzerNtB5_16SemanticAnalyzer25check_from_clause_objects
FNDA:15,_RNvMs3_NtNtCs9nxHbwgHRMj_6rustdb8analyzer17semantic_analyzerNtB5_16SemanticAnalyzer25check_select_item_objects
FNDA:1,_RNvMs3_NtNtCs9nxHbwgHRMj_6rustdb8analyzer17semantic_analyzerNtB5_16SemanticAnalyzer26check_create_table_objects
FNDA:32,_RNvMs3_NtNtCs9nxHbwgHRMj_6rustdb8analyzer17semantic_analyzerNtB5_16SemanticAnalyzer3new
FNDA:26,_RNvMs3_NtNtCs9nxHbwgHRMj_6rustdb8analyzer17semantic_analyzerNtB5_16SemanticAnalyzer7analyze
FNDA:30,_RNvMs3_NtNtCs9nxHbwgHRMj_6rustdb8analyzer17semantic_analyzerNtB5_16SemanticAnalyzer7default
FNDA:4,_RNvMs3_NtNtCs9nxHbwgHRMj_6rustdb8analyzer17semantic_analyzerNtB5_16SemanticAnalyzer8settings
FNDA:30,_RNvXNtNtCs9nxHbwgHRMj_6rustdb8analyzer17semantic_analyzerNtB2_24SemanticAnalyzerSettingsNtNtCsixiwFwjEgS7_4core7default7Default7default
FNDA:22,_RNvXs_NtNtCs9nxHbwgHRMj_6rustdb8analyzer17semantic_analyzerNtB4_15AnalysisContextNtNtCsixiwFwjEgS7_4core7default7Default7default
FNF:31
FNH:24
DA:30,194
DA:31,194
DA:32,194
DA:33,194
DA:34,194
DA:35,194
DA:36,194
DA:37,194
DA:38,194
DA:39,194
DA:56,8545
DA:57,8545
DA:58,8545
DA:59,8545
DA:60,8545
DA:61,8545
DA:62,8545
DA:63,8545
DA:82,8549
DA:83,8549
DA:84,8549
DA:85,8549
DA:86,8549
DA:87,8549
DA:88,8549
DA:89,8549
DA:90,8549
DA:92,3
DA:93,3
DA:94,3
DA:95,3
DA:97,0
DA:98,0
DA:99,0
DA:101,0
DA:102,0
DA:103,0
DA:105,0
DA:106,0
DA:107,0
DA:155,17098
DA:156,17098
DA:157,17098
DA:158,17098
DA:159,17098
DA:160,17098
DA:190,8549
DA:191,8549
DA:192,8549
DA:193,8549
DA:194,8549
DA:195,8549
DA:196,8549
DA:197,8549
DA:198,8549
DA:199,8549
DA:214,196
DA:215,196
DA:216,196
DA:217,196
DA:218,196
DA:219,196
DA:220,196
DA:221,196
DA:222,196
DA:223,196
DA:226,194
DA:227,194
DA:228,194
DA:231,0
DA:232,0
DA:233,0
DA:234,0
DA:237,8549
DA:238,8549
DA:239,8549
DA:240,8549
DA:241,8549
DA:242,8549
DA:243,8549
DA:246,8549
DA:247,8548
DA:248,0
DA:249,0
DA:250,0
DA:251,0
DA:252,0
DA:253,0
DA:254,0
DA:255,0
DA:256,0
DA:257,8548
DA:258,1
DA:261,8549
DA:262,8548
DA:263,0
DA:264,0
DA:265,0
DA:266,0
DA:267,0
DA:268,0
DA:269,0
DA:270,0
DA:271,0
DA:272,8548
DA:273,1
DA:276,8549
DA:277,0
DA:278,0
DA:279,0
DA:280,0
DA:281,0
DA:282,0
DA:283,0
DA:284,0
DA:285,0
DA:286,0
DA:287,0
DA:288,8549
DA:291,8549
DA:293,8549
DA:294,8549
DA:297,1
DA:298,1
DA:299,1
DA:300,1
DA:301,1
DA:302,1
DA:304,4
DA:305,3
DA:306,3
DA:309,3
DA:310,0
DA:311,3
DA:314,1
DA:315,1
DA:318,8548
DA:319,8548
DA:320,8548
DA:321,8548
DA:322,8548
DA:323,8548
DA:324,8548
DA:325,435
DA:326,435
DA:328,7912
DA:329,7912
DA:331,191
DA:332,191
DA:334,6
DA:335,6
DA:337,1
DA:338,1
DA:340,0
DA:341,0
DA:343,0
DA:344,0
DA:346,3
DA:347,3
DA:348,3
DA:350,8548
DA:351,8548
DA:354,8548
DA:355,8548
DA:356,8548
DA:357,8548
DA:358,8548
DA:359,8548
DA:361,8548
DA:364,8551
DA:365,3
DA:366,3
DA:367,3
DA:368,3
DA:369,3
DA:370,3
DA:371,3
DA:373,8548
DA:374,0
DA:375,0
DA:376,0
DA:377,0
DA:378,0
DA:379,0
DA:381,8548
DA:382,8548
DA:384,8548
DA:385,8548
DA:388,0
DA:389,0
DA:390,0
DA:391,0
DA:392,0
DA:393,0
DA:395,0
DA:398,0
DA:399,0
DA:400,0
DA:401,0
DA:402,0
DA:403,0
DA:404,0
DA:405,0
DA:407,0
DA:409,0
DA:410,0
DA:413,435
DA:414,435
DA:415,435
DA:416,435
DA:417,435
DA:418,435
DA:419,435
DA:422,435
DA:423,434
DA:424,1
DA:427,872
DA:428,437
DA:431,435
DA:432,435
DA:434,434
DA:435,434
DA:436,434
DA:437,434
DA:438,434
DA:439,434
DA:441,434
DA:442,434
DA:445,0
DA:449,434
DA:450,0
DA:451,0
DA:452,0
DA:453,0
DA:454,0
DA:455,0
DA:456,0
DA:457,0
DA:458,0
DA:459,0
DA:460,0
DA:461,434
DA:464,434
DA:465,0
DA:466,0
DA:467,0
DA:470,0
DA:471,0
DA:472,0
DA:473,0
DA:474,0
DA:475,0
DA:476,0
DA:477,0
DA:478,0
DA:479,0
DA:480,0
DA:481,0
DA:482,0
DA:483,0
DA:484,0
DA:487,434
DA:488,434
DA:490,437
DA:491,437
DA:492,437
DA:493,437
DA:494,437
DA:495,437
DA:496,437
DA:497,6
DA:498,6
DA:500,431
DA:501,431
DA:502,431
DA:504,437
DA:505,437
DA:507,6
DA:508,6
DA:509,6
DA:510,6
DA:511,6
DA:512,6
DA:513,6
DA:514,6
DA:515,6
DA:516,6
DA:517,6
DA:518,0
DA:519,0
DA:520,0
DA:522,0
DA:523,0
DA:525,0
DA:526,0
DA:527,0
DA:530,0
DA:531,0
DA:532,0
DA:534,6
DA:535,6
DA:537,7912
DA:538,7912
DA:539,7912
DA:540,7912
DA:541,7912
DA:542,7912
DA:543,7912
DA:546,7912
DA:547,0
DA:548,0
DA:549,0
DA:550,0
DA:551,0
DA:552,0
DA:553,0
DA:554,0
DA:555,0
DA:556,0
DA:557,0
DA:558,7912
DA:560,7912
DA:561,7912
DA:563,191
DA:564,191
DA:565,191
DA:566,191
DA:567,191
DA:568,191
DA:569,191
DA:572,191
DA:573,0
DA:574,0
DA:575,0
DA:576,0
DA:577,0
DA:578,0
DA:579,0
DA:580,0
DA:581,0
DA:582,0
DA:583,0
DA:584,191
DA:586,191
DA:587,191
DA:589,6
DA:590,6
DA:591,6
DA:592,6
DA:593,6
DA:594,6
DA:595,6
DA:598,6
DA:599,0
DA:600,0
DA:601,0
DA:602,0
DA:603,0
DA:604,0
DA:605,0
DA:606,0
DA:607,0
DA:608,0
DA:609,0
DA:610,6
DA:612,6
DA:613,6
DA:615,1
DA:616,1
DA:617,1
DA:618,1
DA:619,1
DA:620,1
DA:621,1
DA:624,1
DA:625,0
DA:626,0
DA:627,0
DA:628,0
DA:629,0
DA:630,0
DA:631,0
DA:632,0
DA:633,0
DA:634,0
DA:635,0
DA:636,0
DA:637,0
DA:638,1
DA:640,1
DA:641,1
DA:643,0
DA:644,0
DA:645,0
DA:646,0
DA:647,0
DA:648,0
DA:649,0
DA:652,0
DA:653,0
DA:654,0
DA:655,0
DA:656,0
DA:657,0
DA:658,0
DA:659,0
DA:660,0
DA:661,0
DA:662,0
DA:663,0
DA:664,0
DA:666,0
DA:667,0
DA:669,0
DA:670,0
DA:671,0
DA:672,0
DA:673,0
DA:674,0
DA:675,0
DA:678,0
DA:679,0
DA:680,0
DA:681,0
DA:682,0
DA:683,0
DA:684,0
DA:685,0
DA:686,0
DA:687,0
DA:688,0
DA:689,0
DA:690,0
DA:692,0
DA:693,0
DA:696,4
DA:697,4
DA:698,4
DA:701,1
DA:702,1
DA:703,1
DA:706,1
DA:707,1
DA:708,1
DA:711,3
DA:712,3
DA:713,3
BRF:0
BRH:0
LF:447
LH:245
end_of_record
SF:C:\Users\Admin\RustProjects\RustBD\src\analyzer\type_checker.rs
FN:39,_RNvMNtNtCsioRnW7FrYT6_6rustdb8analyzer12type_checkerNtB2_15TypeCheckResult11add_warning
FN:24,_RNvMNtNtCsioRnW7FrYT6_6rustdb8analyzer12type_checkerNtB2_15TypeCheckResult3new
FN:34,_RNvMNtNtCsioRnW7FrYT6_6rustdb8analyzer12type_checkerNtB2_15TypeCheckResult9add_error
FN:617,_RNvMs_NtNtCsioRnW7FrYT6_6rustdb8analyzer12type_checkerNtB4_11TypeChecker14is_strict_mode
FN:114,_RNvMs_NtNtCsioRnW7FrYT6_6rustdb8analyzer12type_checkerNtB4_11TypeChecker15check_statement
FN:612,_RNvMs_NtNtCsioRnW7FrYT6_6rustdb8analyzer12type_checkerNtB4_11TypeChecker15set_strict_mode
FN:491,_RNvMs_NtNtCsioRnW7FrYT6_6rustdb8analyzer12type_checkerNtB4_11TypeChecker16get_literal_type
FN:579,_RNvMs_NtNtCsioRnW7FrYT6_6rustdb8analyzer12type_checkerNtB4_11TypeChecker16initialize_rules
FN:362,_RNvMs_NtNtCsioRnW7FrYT6_6rustdb8analyzer12type_checkerNtB4_11TypeChecker18check_delete_types
FN:301,_RNvMs_NtNtCsioRnW7FrYT6_6rustdb8analyzer12type_checkerNtB4_11TypeChecker18check_insert_types
FN:244,_RNvMs_NtNtCsioRnW7FrYT6_6rustdb8analyzer12type_checkerNtB4_11TypeChecker18check_select_types
FN:330,_RNvMs_NtNtCsioRnW7FrYT6_6rustdb8analyzer12type_checkerNtB4_11TypeChecker18check_update_types
FN:557,_RNvMs_NtNtCsioRnW7FrYT6_6rustdb8analyzer12type_checkerNtB4_11TypeChecker18validate_data_type
FN:146,_RNvMs_NtNtCsioRnW7FrYT6_6rustdb8analyzer12type_checkerNtB4_11TypeChecker19check_compatibility
FN:176,_RNvMs_NtNtCsioRnW7FrYT6_6rustdb8analyzer12type_checkerNtB4_11TypeChecker22can_convert_implicitly
FN:420,_RNvMs_NtNtCsioRnW7FrYT6_6rustdb8analyzer12type_checkerNtB4_11TypeChecker22check_expression_types
FN:402,_RNvMs_NtNtCsioRnW7FrYT6_6rustdb8analyzer12type_checkerNtB4_11TypeChecker23check_select_item_types
FN:386,_RNvMs_NtNtCsioRnW7FrYT6_6rustdb8analyzer12type_checkerNtB4_11TypeChecker24check_create_table_types
FN:516,_RNvMs_NtNtCsioRnW7FrYT6_6rustdb8analyzer12type_checkerNtB4_11TypeChecker24get_function_result_type
FN:501,_RNvMs_NtNtCsioRnW7FrYT6_6rustdb8analyzer12type_checkerNtB4_11TypeChecker26get_arithmetic_result_type
FN:221,_RNvMs_NtNtCsioRnW7FrYT6_6rustdb8analyzer12type_checkerNtB4_11TypeChecker31get_unary_operation_result_type
FN:185,_RNvMs_NtNtCsioRnW7FrYT6_6rustdb8analyzer12type_checkerNtB4_11TypeChecker32get_binary_operation_result_type
FN:95,_RNvMs_NtNtCsioRnW7FrYT6_6rustdb8analyzer12type_checkerNtB4_11TypeChecker3new
FN:107,_RNvMs_NtNtCsioRnW7FrYT6_6rustdb8analyzer12type_checkerNtB4_11TypeChecker6strict
FN:623,_RNvXs0_NtNtCsioRnW7FrYT6_6rustdb8analyzer12type_checkerNtB5_11TypeCheckerNtNtCsixiwFwjEgS7_4core7default7Default7default
FN:623,_RNvXs0_NtNtCs9nxHbwgHRMj_6rustdb8analyzer12type_checkerNtB5_11TypeCheckerNtNtCsixiwFwjEgS7_4core7default7Default7default
FN:39,_RNvMNtNtCs9nxHbwgHRMj_6rustdb8analyzer12type_checkerNtB2_15TypeCheckResult11add_warning
FN:24,_RNvMNtNtCs9nxHbwgHRMj_6rustdb8analyzer12type_checkerNtB2_15TypeCheckResult3new
FN:34,_RNvMNtNtCs9nxHbwgHRMj_6rustdb8analyzer12type_checkerNtB2_15TypeCheckResult9add_error
FN:617,_RNvMs_NtNtCs9nxHbwgHRMj_6rustdb8analyzer12type_checkerNtB4_11TypeChecker14is_strict_mode
FN:114,_RNvMs_NtNtCs9nxHbwgHRMj_6rustdb8analyzer12type_checkerNtB4_11TypeChecker15check_statement
FN:612,_RNvMs_NtNtCs9nxHbwgHRMj_6rustdb8analyzer12type_checkerNtB4_11TypeChecker15set_strict_mode
FN:491,_RNvMs_NtNtCs9nxHbwgHRMj_6rustdb8analyzer12type_checkerNtB4_11TypeChecker16get_literal_type
FN:579,_RNvMs_NtNtCs9nxHbwgHRMj_6rustdb8analyzer12type_checkerNtB4_11TypeChecker16initialize_rules
FN:362,_RNvMs_NtNtCs9nxHbwgHRMj_6rustdb8analyzer12type_checkerNtB4_11TypeChecker18check_delete_types
FN:301,_RNvMs_NtNtCs9nxHbwgHRMj_6rustdb8analyzer12type_checkerNtB4_11TypeChecker18check_insert_types
FN:244,_RNvMs_NtNtCs9nxHbwgHRMj_6rustdb8analyzer12type_checkerNtB4_11TypeChecker18check_select_types
FN:330,_RNvMs_NtNtCs9nxHbwgHRMj_6rustdb8analyzer12type_checkerNtB4_11TypeChecker18check_update_types
FN:557,_RNvMs_NtNtCs9nxHbwgHRMj_6rustdb8analyzer12type_checkerNtB4_11TypeChecker18validate_data_type
FN:146,_RNvMs_NtNtCs9nxHbwgHRMj_6rustdb8analyzer12type_checkerNtB4_11TypeChecker19check_compatibility
FN:176,_RNvMs_NtNtCs9nxHbwgHRMj_6rustdb8analyzer12type_checkerNtB4_11TypeChecker22can_convert_implicitly
FN:420,_RNvMs_NtNtCs9nxHbwgHRMj_6rustdb8analyzer12type_checkerNtB4_11TypeChecker22check_expression_types
FN:402,_RNvMs_NtNtCs9nxHbwgHRMj_6rustdb8analyzer12type_checkerNtB4_11TypeChecker23check_select_item_types
FN:386,_RNvMs_NtNtCs9nxHbwgHRMj_6rustdb8analyzer12type_checkerNtB4_11TypeChecker24check_create_table_types
FN:516,_RNvMs_NtNtCs9nxHbwgHRMj_6rustdb8analyzer12type_checkerNtB4_11TypeChecker24get_function_result_type
FN:501,_RNvMs_NtNtCs9nxHbwgHRMj_6rustdb8analyzer12type_checkerNtB4_11TypeChecker26get_arithmetic_result_type
FN:221,_RNvMs_NtNtCs9nxHbwgHRMj_6rustdb8analyzer12type_checkerNtB4_11TypeChecker31get_unary_operation_result_type
FN:185,_RNvMs_NtNtCs9nxHbwgHRMj_6rustdb8analyzer12type_checkerNtB4_11TypeChecker32get_binary_operation_result_type
FN:95,_RNvMs_NtNtCs9nxHbwgHRMj_6rustdb8analyzer12type_checkerNtB4_11TypeChecker3new
FN:107,_RNvMs_NtNtCs9nxHbwgHRMj_6rustdb8analyzer12type_checkerNtB4_11TypeChecker6strict
FNDA:0,_RNvMNtNtCsioRnW7FrYT6_6rustdb8analyzer12type_checkerNtB2_15TypeCheckResult11add_warning
FNDA:8523,_RNvMNtNtCsioRnW7FrYT6_6rustdb8analyzer12type_checkerNtB2_15TypeCheckResult3new
FNDA:0,_RNvMNtNtCsioRnW7FrYT6_6rustdb8analyzer12type_checkerNtB2_15TypeCheckResult9add_error
FNDA:0,_RNvMs_NtNtCsioRnW7FrYT6_6rustdb8analyzer12type_checkerNtB4_11TypeChecker14is_strict_mode
FNDA:8523,_RNvMs_NtNtCsioRnW7FrYT6_6rustdb8analyzer12type_checkerNtB4_11TypeChecker15check_statement
FNDA:0,_RNvMs_NtNtCsioRnW7FrYT6_6rustdb8analyzer12type_checkerNtB4_11TypeChecker15set_strict_mode
FNDA:31132,_RNvMs_NtNtCsioRnW7FrYT6_6rustdb8analyzer12type_checkerNtB4_11TypeChecker16get_literal_type
FNDA:164,_RNvMs_NtNtCsioRnW7FrYT6_6rustdb8analyzer12type_checkerNtB4_11TypeChecker16initialize_rules
FNDA:4,_RNvMs_NtNtCsioRnW7FrYT6_6rustdb8analyzer12type_checkerNtB4_11TypeChecker18check_delete_types
FNDA:7909,_RNvMs_NtNtCsioRnW7FrYT6_6rustdb8analyzer12type_checkerNtB4_11TypeChecker18check_insert_types
FNDA:422,_RNvMs_NtNtCsioRnW7FrYT6_6rustdb8analyzer12type_checkerNtB4_11TypeChecker18check_select_types
FNDA:188,_RNvMs_NtNtCsioRnW7FrYT6_6rustdb8analyzer12type_checkerNtB4_11TypeChecker18check_update_types
FNDA:0,_RNvMs_NtNtCsioRnW7FrYT6_6rustdb8analyzer12type_checkerNtB4_11TypeChecker18validate_data_type
FNDA:0,_RNvMs_NtNtCsioRnW7FrYT6_6rustdb8analyzer12type_checkerNtB4_11TypeChecker19check_compatibility
FNDA:0,_RNvMs_NtNtCsioRnW7FrYT6_6rustdb8analyzer12type_checkerNtB4_11TypeChecker22can_convert_implicitly
FNDA:31132,_RNvMs_NtNtCsioRnW7FrYT6_6rustdb8analyzer12type_checkerNtB4_11TypeChecker22check_expression_types
FNDA:422,_RNvMs_NtNtCsioRnW7FrYT6_6rustdb8analyzer12type_checkerNtB4_11TypeChecker23check_select_item_types
FNDA:0,_RNvMs_NtNtCsioRnW7FrYT6_6rustdb8analyzer12type_checkerNtB4_11TypeChecker24check_create_table_types
FNDA:0,_RNvMs_NtNtCsioRnW7FrYT6_6rustdb8analyzer12type_checkerNtB4_11TypeChecker24get_function_result_type
FNDA:0,_RNvMs_NtNtCsioRnW7FrYT6_6rustdb8analyzer12type_checkerNtB4_11TypeChecker26get_arithmetic_result_type
FNDA:0,_RNvMs_NtNtCsioRnW7FrYT6_6rustdb8analyzer12type_checkerNtB4_11TypeChecker31get_unary_operation_result_type
FNDA:0,_RNvMs_NtNtCsioRnW7FrYT6_6rustdb8analyzer12type_checkerNtB4_11TypeChecker32get_binary_operation_result_type
FNDA:164,_RNvMs_NtNtCsioRnW7FrYT6_6rustdb8analyzer12type_checkerNtB4_11TypeChecker3new
FNDA:0,_RNvMs_NtNtCsioRnW7FrYT6_6rustdb8analyzer12type_checkerNtB4_11TypeChecker6strict
FNDA:0,_RNvXs0_NtNtCsioRnW7FrYT6_6rustdb8analyzer12type_checkerNtB5_11TypeCheckerNtNtCsixiwFwjEgS7_4core7default7Default7default
FNDA:0,_RNvXs0_NtNtCs9nxHbwgHRMj_6rustdb8analyzer12type_checkerNtB5_11TypeCheckerNtNtCsixiwFwjEgS7_4core7default7Default7default
FNDA:0,_RNvMNtNtCs9nxHbwgHRMj_6rustdb8analyzer12type_checkerNtB2_15TypeCheckResult11add_warning
FNDA:26,_RNvMNtNtCs9nxHbwgHRMj_6rustdb8analyzer12type_checkerNtB2_15TypeCheckResult3new
FNDA:3,_RNvMNtNtCs9nxHbwgHRMj_6rustdb8analyzer12type_checkerNtB2_15TypeCheckResult9add_error
FNDA:5,_RNvMs_NtNtCs9nxHbwgHRMj_6rustdb8analyzer12type_checkerNtB4_11TypeChecker14is_strict_mode
FNDA:25,_RNvMs_NtNtCs9nxHbwgHRMj_6rustdb8analyzer12type_checkerNtB4_11TypeChecker15check_statement
FNDA:2,_RNvMs_NtNtCs9nxHbwgHRMj_6rustdb8analyzer12type_checkerNtB4_11TypeChecker15set_strict_mode
FNDA:14,_RNvMs_NtNtCs9nxHbwgHRMj_6rustdb8analyzer12type_checkerNtB4_11TypeChecker16get_literal_type
FNDA:43,_RNvMs_NtNtCs9nxHbwgHRMj_6rustdb8analyzer12type_checkerNtB4_11TypeChecker16initialize_rules
FNDA:2,_RNvMs_NtNtCs9nxHbwgHRMj_6rustdb8analyzer12type_checkerNtB4_11TypeChecker18check_delete_types
FNDA:3,_RNvMs_NtNtCs9nxHbwgHRMj_6rustdb8analyzer12type_checkerNtB4_11TypeChecker18check_insert_types
FNDA:13,_RNvMs_NtNtCs9nxHbwgHRMj_6rustdb8analyzer12type_checkerNtB4_11TypeChecker18check_select_types
FNDA:3,_RNvMs_NtNtCs9nxHbwgHRMj_6rustdb8analyzer12type_checkerNtB4_11TypeChecker18check_update_types
FNDA:3,_RNvMs_NtNtCs9nxHbwgHRMj_6rustdb8analyzer12type_checkerNtB4_11TypeChecker18validate_data_type
FNDA:6,_RNvMs_NtNtCs9nxHbwgHRMj_6rustdb8analyzer12type_checkerNtB4_11TypeChecker19check_compatibility
FNDA:2,_RNvMs_NtNtCs9nxHbwgHRMj_6rustdb8analyzer12type_checkerNtB4_11TypeChecker22can_convert_implicitly
FNDA:18,_RNvMs_NtNtCs9nxHbwgHRMj_6rustdb8analyzer12type_checkerNtB4_11TypeChecker22check_expression_types
FNDA:15,_RNvMs_NtNtCs9nxHbwgHRMj_6rustdb8analyzer12type_checkerNtB4_11TypeChecker23check_select_item_types
FNDA:1,_RNvMs_NtNtCs9nxHbwgHRMj_6rustdb8analyzer12type_checkerNtB4_11TypeChecker24check_create_table_types
FNDA:4,_RNvMs_NtNtCs9nxHbwgHRMj_6rustdb8analyzer12type_checkerNtB4_11TypeChecker24get_function_result_type
FNDA:4,_RNvMs_NtNtCs9nxHbwgHRMj_6rustdb8analyzer12type_checkerNtB4_11TypeChecker26get_arithmetic_result_type
FNDA:5,_RNvMs_NtNtCs9nxHbwgHRMj_6rustdb8analyzer12type_checkerNtB4_11TypeChecker31get_unary_operation_result_type
FNDA:4,_RNvMs_NtNtCs9nxHbwgHRMj_6rustdb8analyzer12type_checkerNtB4_11TypeChecker32get_binary_operation_result_type
FNDA:43,_RNvMs_NtNtCs9nxHbwgHRMj_6rustdb8analyzer12type_checkerNtB4_11TypeChecker3new
FNDA:1,_RNvMs_NtNtCs9nxHbwgHRMj_6rustdb8analyzer12type_checkerNtB4_11TypeChecker6strict
FNF:25
FNH:23
DA:24,8549
DA:25,8549
DA:26,8549
DA:27,8549
DA:28,8549
DA:29,8549
DA:30,8549
DA:31,8549
DA:32,8549
DA:34,3
DA:35,3
DA:36,3
DA:37,3
DA:39,0
DA:40,0
DA:41,0
DA:95,207
DA:96,207
DA:97,207
DA:98,207
DA:99,207
DA:100,207
DA:102,207
DA:103,207
DA:104,207
DA:107,1
DA:108,1
DA:109,1
DA:110,1
DA:111,1
DA:114,8548
DA:115,8548
DA:116,8548
DA:117,8548
DA:118,8548
DA:119,8548
DA:121,8548
DA:122,435
DA:123,435
DA:125,7912
DA:126,7912
DA:128,191
DA:129,191
DA:131,6
DA:132,6
DA:134,1
DA:135,1
DA:137,3
DA:138,3
DA:139,3
DA:142,8548
DA:143,8548
DA:146,6
DA:147,6
DA:148,6
DA:149,6
DA:150,6
DA:152,6
DA:153,1
DA:154,5
DA:157,5
DA:158,5
DA:159,5
DA:161,3
DA:162,2
DA:165,2
DA:166,2
DA:167,0
DA:168,2
DA:169,0
DA:172,2
DA:173,6
DA:176,2
DA:177,2
DA:178,1
DA:179,2
DA:182,2
DA:185,4
DA:186,4
DA:187,4
DA:188,4
DA:189,4
DA:190,4
DA:191,4
DA:195,1
DA:201,1
DA:204,2
DA:206,1
DA:208,1
DA:209,1
DA:210,1
DA:215,0
DA:218,4
DA:221,5
DA:222,5
DA:223,5
DA:224,5
DA:225,5
DA:226,5
DA:227,3
DA:228,2
DA:229,1
DA:230,1
DA:231,1
DA:233,2
DA:234,1
DA:235,1
DA:236,1
DA:237,1
DA:240,5
DA:244,435
DA:245,435
DA:246,435
DA:247,435
DA:248,435
DA:249,435
DA:252,872
DA:253,437
DA:257,435
DA:258,0
DA:259,0
DA:260,0
DA:261,0
DA:262,0
DA:263,0
DA:264,0
DA:265,0
DA:266,0
DA:267,0
DA:268,0
DA:269,0
DA:270,435
DA:273,435
DA:274,0
DA:278,435
DA:279,0
DA:280,0
DA:281,0
DA:282,0
DA:283,0
DA:284,0
DA:285,0
DA:286,0
DA:287,0
DA:288,0
DA:289,0
DA:290,0
DA:291,435
DA:294,435
DA:295,0
DA:298,435
DA:299,435
DA:301,7912
DA:302,7912
DA:303,7912
DA:304,7912
DA:305,7912
DA:306,7912
DA:309,7912
DA:310,7912
DA:311,15824
DA:312,38861
DA:313,30949
DA:317,30949
DA:321,0
DA:323,0
DA:327,7912
DA:328,7912
DA:330,191
DA:331,191
DA:332,191
DA:333,191
DA:334,191
DA:335,191
DA:338,383
DA:339,192
DA:342,192
DA:346,191
DA:347,2
DA:348,2
DA:349,2
DA:350,2
DA:351,2
DA:352,2
DA:353,2
DA:354,2
DA:355,2
DA:356,2
DA:357,189
DA:359,191
DA:360,191
DA:362,6
DA:363,6
DA:364,6
DA:365,6
DA:366,6
DA:367,6
DA:370,6
DA:371,1
DA:372,1
DA:373,1
DA:374,1
DA:375,1
DA:376,1
DA:377,1
DA:378,1
DA:379,1
DA:380,1
DA:381,5
DA:383,6
DA:384,6
DA:386,1
DA:387,1
DA:388,1
DA:389,1
DA:390,1
DA:391,1
DA:394,4
DA:396,3
DA:399,1
DA:400,1
DA:402,437
DA:403,437
DA:404,437
DA:405,437
DA:406,437
DA:407,437
DA:408,6
DA:409,6
DA:410,6
DA:412,431
DA:413,431
DA:414,431
DA:415,431
DA:417,437
DA:418,437
DA:420,31150
DA:421,31150
DA:422,31150
DA:423,31150
DA:424,31150
DA:425,31150
DA:427,31150
DA:428,31141
DA:431,9
DA:433,0
DA:434,0
DA:435,0
DA:438,0
DA:439,0
DA:440,0
DA:441,0
DA:442,0
DA:443,0
DA:444,0
DA:445,0
DA:446,0
DA:447,0
DA:448,0
DA:449,0
DA:450,0
DA:451,0
DA:454,0
DA:455,0
DA:456,0
DA:457,0
DA:458,0
DA:459,0
DA:460,0
DA:461,0
DA:462,0
DA:463,0
DA:465,0
DA:467,0
DA:468,0
DA:469,0
DA:471,0
DA:473,0
DA:474,0
DA:475,0
DA:476,0
DA:480,0
DA:484,0
DA:487,31150
DA:491,31146
DA:492,31146
DA:493,15790
DA:494,1
DA:495,15352
DA:496,2
DA:497,1
DA:499,31146
DA:501,4
DA:502,4
DA:503,4
DA:504,4
DA:505,4
DA:506,4
DA:507,2
DA:508,2
DA:509,0
DA:510,0
DA:511,0
DA:512,0
DA:514,4
DA:516,4
DA:517,4
DA:518,4
DA:519,4
DA:520,4
DA:521,4
DA:522,4
DA:523,4
DA:524,3
DA:525,1
DA:526,0
DA:527,1
DA:531,1
DA:533,0
DA:536,2
DA:537,1
DA:538,0
DA:539,0
DA:541,0
DA:544,1
DA:545,0
DA:547,0
DA:548,0
DA:549,0
DA:550,0
DA:551,0
DA:552,0
DA:555,4
DA:557,3
DA:558,3
DA:559,1
DA:560,1
DA:561,1
DA:562,0
DA:563,0
DA:564,0
DA:565,0
DA:566,0
DA:567,0
DA:568,0
DA:569,1
DA:570,0
DA:572,2
DA:573,2
DA:574,2
DA:576,3
DA:577,3
DA:579,207
DA:583,207
DA:584,207
DA:585,207
DA:587,207
DA:588,207
DA:589,207
DA:593,207
DA:594,207
DA:595,207
DA:597,207
DA:598,207
DA:599,207
DA:603,207
DA:604,207
DA:605,207
DA:606,207
DA:607,207
DA:608,207
DA:609,207
DA:612,2
DA:613,2
DA:614,2
DA:617,5
DA:618,5
DA:619,5
DA:623,0
DA:624,0
DA:625,0
BRF:0
BRH:0
LF:381
LH:282
end_of_record
SF:C:\Users\Admin\RustProjects\RustBD\src\catalog\access.rs
FN:11,_RNvMNtNtCsioRnW7FrYT6_6rustdb7catalog6accessNtB2_13AccessControl3new
FN:11,_RNvMNtNtCs9nxHbwgHRMj_6rustdb7catalog6accessNtB2_13AccessControl3new
FNDA:0,_RNvMNtNtCsioRnW7FrYT6_6rustdb7catalog6accessNtB2_13AccessControl3new
FNDA:0,_RNvMNtNtCs9nxHbwgHRMj_6rustdb7catalog6accessNtB2_13AccessControl3new
FNF:1
FNH:0
DA:11,0
DA:13,0
DA:14,0
BRF:0
BRH:0
LF:3
LH:0
end_of_record
SF:C:\Users\Admin\RustProjects\RustBD\src\catalog\schema.rs
FN:11,_RNvMNtNtCsioRnW7FrYT6_6rustdb7catalog6schemaNtB2_13SchemaManager3new
FN:11,_RNvMNtNtCs9nxHbwgHRMj_6rustdb7catalog6schemaNtB2_13SchemaManager3new
FNDA:0,_RNvMNtNtCsioRnW7FrYT6_6rustdb7catalog6schemaNtB2_13SchemaManager3new
FNDA:0,_RNvMNtNtCs9nxHbwgHRMj_6rustdb7catalog6schemaNtB2_13SchemaManager3new
FNF:1
FNH:0
DA:11,0
DA:13,0
DA:14,0
BRF:0
BRH:0
LF:3
LH:0
end_of_record
SF:C:\Users\Admin\RustProjects\RustBD\src\catalog\statistics.rs
FN:285,_RNvMs_NtNtCsioRnW7FrYT6_6rustdb7catalog10statisticsNtB4_17StatisticsManager11clear_cache
FN:139,_RNvMs_NtNtCsioRnW7FrYT6_6rustdb7catalog10statisticsNtB4_17StatisticsManager13with_settings
FN:295,_RNvMs_NtNtCsioRnW7FrYT6_6rustdb7catalog10statisticsNtB4_17StatisticsManager15update_settings
FN:280,_RNvMs_NtNtCsioRnW7FrYT6_6rustdb7catalog10statisticsNtB4_17StatisticsManager18get_all_statistics
FN:256,_RNvMs_NtNtCsioRnW7FrYT6_6rustdb7catalog10statisticsNtB4_17StatisticsManager20estimate_result_rows
FN:222,_RNvMs_NtNtCsioRnW7FrYT6_6rustdb7catalog10statisticsNtB4_17StatisticsManager20estimate_selectivity
FN:217,_RNvMs_NtNtCsioRnW7FrYT6_6rustdb7catalog10statisticsNtB4_17StatisticsManager20get_table_statistics
FN:239,_RNvMs_NtNtCsioRnW7FrYT6_6rustdb7catalog10statisticsNtB4_17StatisticsManager21calculate_selectivity
FN:273,_RNvMs_NtNtCsioRnW7FrYT6_6rustdb7catalog10statisticsNtB4_17StatisticsManager23update_table_statistics
FN:148,_RNvMs_NtNtCsioRnW7FrYT6_6rustdb7catalog10statisticsNtB4_17StatisticsManager24collect_table_statistics
FN:186,_RNvMs_NtNtCsioRnW7FrYT6_6rustdb7catalog10statisticsNtB4_17StatisticsManager24create_column_statistics
FN:300,_RNvMs_NtNtCsioRnW7FrYT6_6rustdb7catalog10statisticsNtB4_17StatisticsManager24should_update_statistics
FN:130,_RNvMs_NtNtCsioRnW7FrYT6_6rustdb7catalog10statisticsNtB4_17StatisticsManager3new
FN:290,_RNvMs_NtNtCsioRnW7FrYT6_6rustdb7catalog10statisticsNtB4_17StatisticsManager8settings
FN:118,_RNvXNtNtCsioRnW7FrYT6_6rustdb7catalog10statisticsNtB2_18StatisticsSettingsNtNtCsixiwFwjEgS7_4core7default7Default7default
FN:280,_RNvMs_NtNtCs9nxHbwgHRMj_6rustdb7catalog10statisticsNtB4_17StatisticsManager18get_all_statistics
FN:285,_RNvMs_NtNtCs9nxHbwgHRMj_6rustdb7catalog10statisticsNtB4_17StatisticsManager11clear_cache
FN:139,_RNvMs_NtNtCs9nxHbwgHRMj_6rustdb7catalog10statisticsNtB4_17StatisticsManager13with_settings
FN:295,_RNvMs_NtNtCs9nxHbwgHRMj_6rustdb7catalog10statisticsNtB4_17StatisticsManager15update_settings
FN:256,_RNvMs_NtNtCs9nxHbwgHRMj_6rustdb7catalog10statisticsNtB4_17StatisticsManager20estimate_result_rows
FN:222,_RNvMs_NtNtCs9nxHbwgHRMj_6rustdb7catalog10statisticsNtB4_17StatisticsManager20estimate_selectivity
FN:217,_RNvMs_NtNtCs9nxHbwgHRMj_6rustdb7catalog10statisticsNtB4_17StatisticsManager20get_table_statistics
FN:239,_RNvMs_NtNtCs9nxHbwgHRMj_6rustdb7catalog10statisticsNtB4_17StatisticsManager21calculate_selectivity
FN:273,_RNvMs_NtNtCs9nxHbwgHRMj_6rustdb7catalog10statisticsNtB4_17StatisticsManager23update_table_statistics
FN:148,_RNvMs_NtNtCs9nxHbwgHRMj_6rustdb7catalog10statisticsNtB4_17StatisticsManager24collect_table_statistics
FN:186,_RNvMs_NtNtCs9nxHbwgHRMj_6rustdb7catalog10statisticsNtB4_17StatisticsManager24create_column_statistics
FN:300,_RNvMs_NtNtCs9nxHbwgHRMj_6rustdb7catalog10statisticsNtB4_17StatisticsManager24should_update_statistics
FN:130,_RNvMs_NtNtCs9nxHbwgHRMj_6rustdb7catalog10statisticsNtB4_17StatisticsManager3new
FN:290,_RNvMs_NtNtCs9nxHbwgHRMj_6rustdb7catalog10statisticsNtB4_17StatisticsManager8settings
FN:118,_RNvXNtNtCs9nxHbwgHRMj_6rustdb7catalog10statisticsNtB2_18StatisticsSettingsNtNtCsixiwFwjEgS7_4core7default7Default7default
FN:461,_RNvNtNtNtCs9nxHbwgHRMj_6rustdb7catalog10statistics5testss_21test_statistics_cache
FN:444,_RNvNtNtNtCs9nxHbwgHRMj_6rustdb7catalog10statistics5testss_22test_statistics_update
FN:592,_RNvNtNtNtCs9nxHbwgHRMj_6rustdb7catalog10statistics5testss_26test_column_value_variants
FN:423,_RNvNtNtNtCs9nxHbwgHRMj_6rustdb7catalog10statistics5testss_27test_result_rows_estimation
FN:392,_RNvNtNtNtCs9nxHbwgHRMj_6rustdb7catalog10statistics5testss_27test_selectivity_estimation
FN:523,_RNvNtNtNtCs9nxHbwgHRMj_6rustdb7catalog10statistics5testss_29test_should_update_statistics
FN:359,_RNvNtNtNtCs9nxHbwgHRMj_6rustdb7catalog10statistics5testss_31test_column_statistics_creation
FN:481,_RNvNtNtNtCs9nxHbwgHRMj_6rustdb7catalog10statistics5testss_31test_statistics_settings_update
FN:318,_RNvNtNtNtCs9nxHbwgHRMj_6rustdb7catalog10statistics5testss_32test_statistics_manager_creation
FN:343,_RNvNtNtNtCs9nxHbwgHRMj_6rustdb7catalog10statistics5testss_32test_table_statistics_collection
FN:544,_RNvNtNtNtCs9nxHbwgHRMj_6rustdb7catalog10statistics5testss_32test_value_distribution_variants
FN:324,_RNvNtNtNtCs9nxHbwgHRMj_6rustdb7catalog10statistics5testss_37test_statistics_manager_with_settings
FNDA:0,_RNvMs_NtNtCsioRnW7FrYT6_6rustdb7catalog10statisticsNtB4_17StatisticsManager11clear_cache
FNDA:0,_RNvMs_NtNtCsioRnW7FrYT6_6rustdb7catalog10statisticsNtB4_17StatisticsManager13with_settings
FNDA:0,_RNvMs_NtNtCsioRnW7FrYT6_6rustdb7catalog10statisticsNtB4_17StatisticsManager15update_settings
FNDA:0,_RNvMs_NtNtCsioRnW7FrYT6_6rustdb7catalog10statisticsNtB4_17StatisticsManager18get_all_statistics
FNDA:0,_RNvMs_NtNtCsioRnW7FrYT6_6rustdb7catalog10statisticsNtB4_17StatisticsManager20estimate_result_rows
FNDA:0,_RNvMs_NtNtCsioRnW7FrYT6_6rustdb7catalog10statisticsNtB4_17StatisticsManager20estimate_selectivity
FNDA:0,_RNvMs_NtNtCsioRnW7FrYT6_6rustdb7catalog10statisticsNtB4_17StatisticsManager20get_table_statistics
FNDA:0,_RNvMs_NtNtCsioRnW7FrYT6_6rustdb7catalog10statisticsNtB4_17StatisticsManager21calculate_selectivity
FNDA:0,_RNvMs_NtNtCsioRnW7FrYT6_6rustdb7catalog10statisticsNtB4_17StatisticsManager23update_table_statistics
FNDA:0,_RNvMs_NtNtCsioRnW7FrYT6_6rustdb7catalog10statisticsNtB4_17StatisticsManager24collect_table_statistics
FNDA:0,_RNvMs_NtNtCsioRnW7FrYT6_6rustdb7catalog10statisticsNtB4_17StatisticsManager24create_column_statistics
FNDA:0,_RNvMs_NtNtCsioRnW7FrYT6_6rustdb7catalog10statisticsNtB4_17StatisticsManager24should_update_statistics
FNDA:0,_RNvMs_NtNtCsioRnW7FrYT6_6rustdb7catalog10statisticsNtB4_17StatisticsManager3new
FNDA:0,_RNvMs_NtNtCsioRnW7FrYT6_6rustdb7catalog10statisticsNtB4_17StatisticsManager8settings
FNDA:0,_RNvXNtNtCsioRnW7FrYT6_6rustdb7catalog10statisticsNtB2_18StatisticsSettingsNtNtCsixiwFwjEgS7_4core7default7Default7default
FNDA:0,_RNvMs_NtNtCs9nxHbwgHRMj_6rustdb7catalog10statisticsNtB4_17StatisticsManager18get_all_statistics
FNDA:2,_RNvMs_NtNtCs9nxHbwgHRMj_6rustdb7catalog10statisticsNtB4_17StatisticsManager11clear_cache
FNDA:2,_RNvMs_NtNtCs9nxHbwgHRMj_6rustdb7catalog10statisticsNtB4_17StatisticsManager13with_settings
FNDA:4,_RNvMs_NtNtCs9nxHbwgHRMj_6rustdb7catalog10statisticsNtB4_17StatisticsManager15update_settings
FNDA:6,_RNvMs_NtNtCs9nxHbwgHRMj_6rustdb7catalog10statisticsNtB4_17StatisticsManager20estimate_result_rows
FNDA:16,_RNvMs_NtNtCs9nxHbwgHRMj_6rustdb7catalog10statisticsNtB4_17StatisticsManager20estimate_selectivity
FNDA:37,_RNvMs_NtNtCs9nxHbwgHRMj_6rustdb7catalog10statisticsNtB4_17StatisticsManager20get_table_statistics
FNDA:16,_RNvMs_NtNtCs9nxHbwgHRMj_6rustdb7catalog10statisticsNtB4_17StatisticsManager21calculate_selectivity
FNDA:2,_RNvMs_NtNtCs9nxHbwgHRMj_6rustdb7catalog10statisticsNtB4_17StatisticsManager23update_table_statistics
FNDA:17,_RNvMs_NtNtCs9nxHbwgHRMj_6rustdb7catalog10statisticsNtB4_17StatisticsManager24collect_table_statistics
FNDA:72,_RNvMs_NtNtCs9nxHbwgHRMj_6rustdb7catalog10statisticsNtB4_17StatisticsManager24create_column_statistics
FNDA:4,_RNvMs_NtNtCs9nxHbwgHRMj_6rustdb7catalog10statisticsNtB4_17StatisticsManager24should_update_statistics
FNDA:34,_RNvMs_NtNtCs9nxHbwgHRMj_6rustdb7catalog10statisticsNtB4_17StatisticsManager3new
FNDA:24,_RNvMs_NtNtCs9nxHbwgHRMj_6rustdb7catalog10statisticsNtB4_17StatisticsManager8settings
FNDA:36,_RNvXNtNtCs9nxHbwgHRMj_6rustdb7catalog10statisticsNtB2_18StatisticsSettingsNtNtCsixiwFwjEgS7_4core7default7Default7default
FNDA:1,_RNvNtNtNtCs9nxHbwgHRMj_6rustdb7catalog10statistics5testss_21test_statistics_cache
FNDA:1,_RNvNtNtNtCs9nxHbwgHRMj_6rustdb7catalog10statistics5testss_22test_statistics_update
FNDA:1,_RNvNtNtNtCs9nxHbwgHRMj_6rustdb7catalog10statistics5testss_26test_column_value_variants
FNDA:1,_RNvNtNtNtCs9nxHbwgHRMj_6rustdb7catalog10statistics5testss_27test_result_rows_estimation
FNDA:1,_RNvNtNtNtCs9nxHbwgHRMj_6rustdb7catalog10statistics5testss_27test_selectivity_estimation
FNDA:1,_RNvNtNtNtCs9nxHbwgHRMj_6rustdb7catalog10statistics5testss_29test_should_update_statistics
FNDA:1,_RNvNtNtNtCs9nxHbwgHRMj_6rustdb7catalog10statistics5testss_31test_column_statistics_creation
FNDA:1,_RNvNtNtNtCs9nxHbwgHRMj_6rustdb7catalog10statistics5testss_31test_statistics_settings_update
FNDA:1,_RNvNtNtNtCs9nxHbwgHRMj_6rustdb7catalog10statistics5testss_32test_statistics_manager_creation
FNDA:1,_RNvNtNtNtCs9nxHbwgHRMj_6rustdb7catalog10statistics5testss_32test_table_statistics_collection
FNDA:1,_RNvNtNtNtCs9nxHbwgHRMj_6rustdb7catalog10statistics5testss_32test_value_distribution_variants
FNDA:1,_RNvNtNtNtCs9nxHbwgHRMj_6rustdb7catalog10statistics5testss_37test_statistics_manager_with_settings
FNF:27
FNH:26
DA:118,36
DA:119,36
DA:120,36
DA:121,36
DA:122,36
DA:123,36
DA:124,36
DA:125,36
DA:130,34
DA:131,34
DA:132,34
DA:133,34
DA:134,34
DA:135,34
DA:136,34
DA:139,2
DA:140,2
DA:141,2
DA:142,2
DA:143,2
DA:144,2
DA:145,2
DA:148,17
DA:152,17
DA:155,17
DA:156,17
DA:157,17
DA:159,17
DA:160,17
DA:161,17
DA:163,17
DA:164,17
DA:165,17
DA:167,17
DA:168,17
DA:169,17
DA:172,17
DA:173,17
DA:174,17
DA:175,17
DA:176,17
DA:177,17
DA:178,17
DA:180,17
DA:181,17
DA:182,17
DA:183,17
DA:186,72
DA:187,72
DA:188,72
DA:189,72
DA:190,72
DA:191,72
DA:192,72
DA:193,72
DA:194,72
DA:195,19
DA:196,53
DA:197,19
DA:198,19
DA:199,19
DA:200,19
DA:202,34
DA:205,72
DA:206,72
DA:207,72
DA:208,72
DA:209,72
DA:210,72
DA:211,72
DA:212,72
DA:213,72
DA:214,72
DA:217,37
DA:218,37
DA:219,37
DA:222,16
DA:223,16
DA:224,16
DA:225,16
DA:226,16
DA:227,16
DA:228,16
DA:229,16
DA:230,16
DA:231,0
DA:232,0
DA:235,0
DA:236,16
DA:239,16
DA:240,16
DA:241,16
DA:242,16
DA:243,16
DA:245,16
DA:246,16
DA:247,12
DA:248,10
DA:249,6
DA:250,4
DA:251,2
DA:253,16
DA:256,6
DA:257,6
DA:258,6
DA:259,6
DA:260,6
DA:261,6
DA:262,6
DA:263,4
DA:264,4
DA:265,4
DA:268,2
DA:270,6
DA:273,2
DA:274,2
DA:275,2
DA:276,2
DA:277,2
DA:280,0
DA:281,0
DA:282,0
DA:285,2
DA:286,2
DA:287,2
DA:290,24
DA:291,24
DA:292,24
DA:295,4
DA:296,4
DA:297,4
DA:300,4
DA:301,4
DA:302,2
DA:303,2
DA:305,2
DA:306,2
DA:308,0
DA:310,4
DA:318,1
DA:319,1
DA:320,1
DA:321,1
DA:324,1
DA:325,1
DA:326,1
DA:327,1
DA:328,1
DA:329,1
DA:330,1
DA:332,1
DA:333,1
DA:335,1
DA:336,1
DA:337,1
DA:338,1
DA:339,1
DA:340,1
DA:343,1
DA:344,1
DA:345,1
DA:346,1
DA:348,1
DA:349,1
DA:350,1
DA:351,1
DA:352,1
DA:353,1
DA:354,1
DA:355,1
DA:356,1
DA:359,1
DA:360,1
DA:363,1
DA:364,1
DA:365,1
DA:366,1
DA:367,1
DA:368,1
DA:370,1
DA:371,1
DA:372,0
DA:376,1
DA:377,1
DA:378,1
DA:379,1
DA:380,1
DA:382,1
DA:383,1
DA:384,1
DA:385,1
DA:387,0
DA:389,1
DA:392,1
DA:393,1
DA:394,1
DA:397,1
DA:398,1
DA:399,1
DA:401,1
DA:402,1
DA:403,1
DA:405,1
DA:406,1
DA:408,1
DA:409,1
DA:410,1
DA:411,1
DA:413,1
DA:414,1
DA:416,1
DA:417,1
DA:418,1
DA:419,1
DA:420,1
DA:423,1
DA:424,1
DA:425,1
DA:428,1
DA:429,1
DA:430,1
DA:432,1
DA:433,1
DA:434,1
DA:437,1
DA:438,1
DA:439,1
DA:440,1
DA:441,1
DA:444,1
DA:445,1
DA:448,1
DA:449,1
DA:452,1
DA:453,1
DA:454,1
DA:457,1
DA:458,1
DA:461,1
DA:462,1
DA:465,1
DA:466,1
DA:469,1
DA:470,1
DA:473,1
DA:476,1
DA:477,1
DA:478,1
DA:481,1
DA:482,1
DA:483,1
DA:486,1
DA:487,1
DA:488,1
DA:489,1
DA:490,1
DA:491,1
DA:494,1
DA:497,1
DA:498,1
DA:499,1
DA:502,1
DA:503,1
DA:506,1
DA:507,1
DA:512,1
DA:513,1
DA:516,1
DA:517,1
DA:520,1
DA:523,1
DA:524,1
DA:527,1
DA:530,1
DA:533,1
DA:534,1
DA:535,1
DA:536,1
DA:537,1
DA:540,1
DA:541,1
DA:544,1
DA:547,1
DA:548,1
DA:549,1
DA:550,0
DA:553,1
DA:554,1
DA:555,1
DA:556,1
DA:557,1
DA:558,1
DA:559,1
DA:560,1
DA:562,0
DA:565,1
DA:566,1
DA:567,1
DA:568,1
DA:569,1
DA:570,1
DA:571,1
DA:572,1
DA:573,1
DA:574,1
DA:575,1
DA:576,1
DA:577,1
DA:578,1
DA:579,1
DA:581,0
DA:584,1
DA:585,1
DA:586,1
DA:587,0
DA:589,1
DA:592,1
DA:595,1
DA:596,1
DA:597,1
DA:598,0
DA:601,1
DA:602,1
DA:603,1
DA:604,0
DA:607,1
DA:608,1
DA:609,1
DA:610,0
DA:613,1
DA:614,1
DA:615,1
DA:616,0
DA:619,1
DA:620,1
DA:621,1
DA:622,0
DA:624,1
BRF:0
BRH:0
LF:338
LH:320
end_of_record
SF:C:\Users\Admin\RustProjects\RustBD\src\cli.rs
FN:111,_RNCNvMNtCsioRnW7FrYT6_6rustdb3cliNtB4_3Cli11load_config0B6_
FN:204,_RNCNCNvMNtCsioRnW7FrYT6_6rustdb3cliNtB6_3Cli15create_database00B8_
FN:146,_RNCNvMNtCsioRnW7FrYT6_6rustdb3cliNtB4_3Cli10run_server0B6_
FN:218,_RNCNvMNtCsioRnW7FrYT6_6rustdb3cliNtB4_3Cli13execute_query0B6_
FN:201,_RNCNvMNtCsioRnW7FrYT6_6rustdb3cliNtB4_3Cli15create_database0B6_
FN:160,_RNCNvMNtCsioRnW7FrYT6_6rustdb3cliNtB4_3Cli23handle_language_command0B6_
FN:130,_RNCNvMNtCsioRnW7FrYT6_6rustdb3cliNtB4_3Cli7execute0B6_
FN:232,_RNCNvMNtCsioRnW7FrYT6_6rustdb3cliNtB4_3Cli9show_help0B6_
FN:187,_RNCNvMNtCsioRnW7FrYT6_6rustdb3cliNtB4_3Cli9show_info0B6_
FN:146,_RNvMNtCsioRnW7FrYT6_6rustdb3cliNtB2_3Cli10run_server
FN:105,_RNvMNtCsioRnW7FrYT6_6rustdb3cliNtB2_3Cli11load_config
FN:214,_RNvMNtCsioRnW7FrYT6_6rustdb3cliNtB2_3Cli13execute_query
FN:197,_RNvMNtCsioRnW7FrYT6_6rustdb3cliNtB2_3Cli15create_database
FN:157,_RNvMNtCsioRnW7FrYT6_6rustdb3cliNtB2_3Cli23handle_language_command
FN:91,_RNvMNtCsioRnW7FrYT6_6rustdb3cliNtB2_3Cli4init
FN:130,_RNvMNtCsioRnW7FrYT6_6rustdb3cliNtB2_3Cli7execute
FN:232,_RNvMNtCsioRnW7FrYT6_6rustdb3cliNtB2_3Cli9show_help
FN:187,_RNvMNtCsioRnW7FrYT6_6rustdb3cliNtB2_3Cli9show_info
FN:204,_RNCNCNvMNtCs9nxHbwgHRMj_6rustdb3cliNtB6_3Cli15create_database00B8_
FN:146,_RNCNvMNtCs9nxHbwgHRMj_6rustdb3cliNtB4_3Cli10run_server0B6_
FN:111,_RNCNvMNtCs9nxHbwgHRMj_6rustdb3cliNtB4_3Cli11load_config0B6_
FN:218,_RNCNvMNtCs9nxHbwgHRMj_6rustdb3cliNtB4_3Cli13execute_query0B6_
FN:201,_RNCNvMNtCs9nxHbwgHRMj_6rustdb3cliNtB4_3Cli15create_database0B6_
FN:160,_RNCNvMNtCs9nxHbwgHRMj_6rustdb3cliNtB4_3Cli23handle_language_command0B6_
FN:130,_RNCNvMNtCs9nxHbwgHRMj_6rustdb3cliNtB4_3Cli7execute0B6_
FN:232,_RNCNvMNtCs9nxHbwgHRMj_6rustdb3cliNtB4_3Cli9show_help0B6_
FN:187,_RNCNvMNtCs9nxHbwgHRMj_6rustdb3cliNtB4_3Cli9show_info0B6_
FN:146,_RNvMNtCs9nxHbwgHRMj_6rustdb3cliNtB2_3Cli10run_server
FN:105,_RNvMNtCs9nxHbwgHRMj_6rustdb3cliNtB2_3Cli11load_config
FN:214,_RNvMNtCs9nxHbwgHRMj_6rustdb3cliNtB2_3Cli13execute_query
FN:197,_RNvMNtCs9nxHbwgHRMj_6rustdb3cliNtB2_3Cli15create_database
FN:157,_RNvMNtCs9nxHbwgHRMj_6rustdb3cliNtB2_3Cli23handle_language_command
FN:91,_RNvMNtCs9nxHbwgHRMj_6rustdb3cliNtB2_3Cli4init
FN:130,_RNvMNtCs9nxHbwgHRMj_6rustdb3cliNtB2_3Cli7execute
FN:232,_RNvMNtCs9nxHbwgHRMj_6rustdb3cliNtB2_3Cli9show_help
FN:187,_RNvMNtCs9nxHbwgHRMj_6rustdb3cliNtB2_3Cli9show_info
FN:247,_RNvNtNtCs9nxHbwgHRMj_6rustdb3cli5testss_16test_cli_parsing
FN:256,_RNvNtNtCs9nxHbwgHRMj_6rustdb3cli5testss_22test_language_commands
FN:204,_RNCNCNvMNtCsioRnW7FrYT6_6rustdb3cliNtB6_3Cli15create_database00CsktuZgBlJo9G_6rustdb
FN:146,_RNCNvMNtCsioRnW7FrYT6_6rustdb3cliNtB4_3Cli10run_server0CsktuZgBlJo9G_6rustdb
FN:218,_RNCNvMNtCsioRnW7FrYT6_6rustdb3cliNtB4_3Cli13execute_query0CsktuZgBlJo9G_6rustdb
FN:201,_RNCNvMNtCsioRnW7FrYT6_6rustdb3cliNtB4_3Cli15create_database0CsktuZgBlJo9G_6rustdb
FN:160,_RNCNvMNtCsioRnW7FrYT6_6rustdb3cliNtB4_3Cli23handle_language_command0CsktuZgBlJo9G_6rustdb
FN:130,_RNCNvMNtCsioRnW7FrYT6_6rustdb3cliNtB4_3Cli7execute0CsktuZgBlJo9G_6rustdb
FN:232,_RNCNvMNtCsioRnW7FrYT6_6rustdb3cliNtB4_3Cli9show_help0CsktuZgBlJo9G_6rustdb
FN:187,_RNCNvMNtCsioRnW7FrYT6_6rustdb3cliNtB4_3Cli9show_info0CsktuZgBlJo9G_6rustdb
FNDA:0,_RNCNvMNtCsioRnW7FrYT6_6rustdb3cliNtB4_3Cli11load_config0B6_
FNDA:0,_RNCNCNvMNtCsioRnW7FrYT6_6rustdb3cliNtB6_3Cli15create_database00B8_
FNDA:0,_RNCNvMNtCsioRnW7FrYT6_6rustdb3cliNtB4_3Cli10run_server0B6_
FNDA:0,_RNCNvMNtCsioRnW7FrYT6_6rustdb3cliNtB4_3Cli13execute_query0B6_
FNDA:0,_RNCNvMNtCsioRnW7FrYT6_6rustdb3cliNtB4_3Cli15create_database0B6_
FNDA:0,_RNCNvMNtCsioRnW7FrYT6_6rustdb3cliNtB4_3Cli23handle_language_command0B6_
FNDA:0,_RNCNvMNtCsioRnW7FrYT6_6rustdb3cliNtB4_3Cli7execute0B6_
FNDA:0,_RNCNvMNtCsioRnW7FrYT6_6rustdb3cliNtB4_3Cli9show_help0B6_
FNDA:0,_RNCNvMNtCsioRnW7FrYT6_6rustdb3cliNtB4_3Cli9show_info0B6_
FNDA:0,_RNvMNtCsioRnW7FrYT6_6rustdb3cliNtB2_3Cli10run_server
FNDA:0,_RNvMNtCsioRnW7FrYT6_6rustdb3cliNtB2_3Cli11load_config
FNDA:0,_RNvMNtCsioRnW7FrYT6_6rustdb3cliNtB2_3Cli13execute_query
FNDA:0,_RNvMNtCsioRnW7FrYT6_6rustdb3cliNtB2_3Cli15create_database
FNDA:0,_RNvMNtCsioRnW7FrYT6_6rustdb3cliNtB2_3Cli23handle_language_command
FNDA:0,_RNvMNtCsioRnW7FrYT6_6rustdb3cliNtB2_3Cli4init
FNDA:0,_RNvMNtCsioRnW7FrYT6_6rustdb3cliNtB2_3Cli7execute
FNDA:0,_RNvMNtCsioRnW7FrYT6_6rustdb3cliNtB2_3Cli9show_help
FNDA:0,_RNvMNtCsioRnW7FrYT6_6rustdb3cliNtB2_3Cli9show_info
FNDA:0,_RNCNCNvMNtCs9nxHbwgHRMj_6rustdb3cliNtB6_3Cli15create_database00B8_
FNDA:0,_RNCNvMNtCs9nxHbwgHRMj_6rustdb3cliNtB4_3Cli10run_server0B6_
FNDA:0,_RNCNvMNtCs9nxHbwgHRMj_6rustdb3cliNtB4_3Cli11load_config0B6_
FNDA:0,_RNCNvMNtCs9nxHbwgHRMj_6rustdb3cliNtB4_3Cli13execute_query0B6_
FNDA:0,_RNCNvMNtCs9nxHbwgHRMj_6rustdb3cliNtB4_3Cli15create_database0B6_
FNDA:0,_RNCNvMNtCs9nxHbwgHRMj_6rustdb3cliNtB4_3Cli23handle_language_command0B6_
FNDA:0,_RNCNvMNtCs9nxHbwgHRMj_6rustdb3cliNtB4_3Cli7execute0B6_
FNDA:0,_RNCNvMNtCs9nxHbwgHRMj_6rustdb3cliNtB4_3Cli9show_help0B6_
FNDA:0,_RNCNvMNtCs9nxHbwgHRMj_6rustdb3cliNtB4_3Cli9show_info0B6_
FNDA:0,_RNvMNtCs9nxHbwgHRMj_6rustdb3cliNtB2_3Cli10run_server
FNDA:0,_RNvMNtCs9nxHbwgHRMj_6rustdb3cliNtB2_3Cli11load_config
FNDA:0,_RNvMNtCs9nxHbwgHRMj_6rustdb3cliNtB2_3Cli13execute_query
FNDA:0,_RNvMNtCs9nxHbwgHRMj_6rustdb3cliNtB2_3Cli15create_database
FNDA:0,_RNvMNtCs9nxHbwgHRMj_6rustdb3cliNtB2_3Cli23handle_language_command
FNDA:0,_RNvMNtCs9nxHbwgHRMj_6rustdb3cliNtB2_3Cli4init
FNDA:0,_RNvMNtCs9nxHbwgHRMj_6rustdb3cliNtB2_3Cli7execute
FNDA:0,_RNvMNtCs9nxHbwgHRMj_6rustdb3cliNtB2_3Cli9show_help
FNDA:0,_RNvMNtCs9nxHbwgHRMj_6rustdb3cliNtB2_3Cli9show_info
FNDA:1,_RNvNtNtCs9nxHbwgHRMj_6rustdb3cli5testss_16test_cli_parsing
FNDA:1,_RNvNtNtCs9nxHbwgHRMj_6rustdb3cli5testss_22test_language_commands
FNDA:0,_RNCNCNvMNtCsioRnW7FrYT6_6rustdb3cliNtB6_3Cli15create_database00CsktuZgBlJo9G_6rustdb
FNDA:0,_RNCNvMNtCsioRnW7FrYT6_6rustdb3cliNtB4_3Cli10run_server0CsktuZgBlJo9G_6rustdb
FNDA:0,_RNCNvMNtCsioRnW7FrYT6_6rustdb3cliNtB4_3Cli13execute_query0CsktuZgBlJo9G_6rustdb
FNDA:0,_RNCNvMNtCsioRnW7FrYT6_6rustdb3cliNtB4_3Cli15create_database0CsktuZgBlJo9G_6rustdb
FNDA:0,_RNCNvMNtCsioRnW7FrYT6_6rustdb3cliNtB4_3Cli23handle_language_command0CsktuZgBlJo9G_6rustdb
FNDA:0,_RNCNvMNtCsioRnW7FrYT6_6rustdb3cliNtB4_3Cli7execute0CsktuZgBlJo9G_6rustdb
FNDA:0,_RNCNvMNtCsioRnW7FrYT6_6rustdb3cliNtB4_3Cli9show_help0CsktuZgBlJo9G_6rustdb
FNDA:0,_RNCNvMNtCsioRnW7FrYT6_6rustdb3cliNtB4_3Cli9show_info0CsktuZgBlJo9G_6rustdb
FNF:20
FNH:2
DA:91,0
DA:92,0
DA:95,0
DA:96,0
DA:97,0
DA:98,0
DA:99,0
DA:101,0
DA:102,0
DA:105,0
DA:106,0
DA:107,0
DA:110,0
DA:111,0
DA:115,0
DA:116,0
DA:117,0
DA:118,0
DA:119,0
DA:120,0
DA:126,0
DA:127,0
DA:130,0
DA:131,0
DA:132,0
DA:133,0
DA:134,0
DA:135,0
DA:136,0
DA:138,0
DA:139,0
DA:141,0
DA:143,0
DA:146,0
DA:147,0
DA:148,0
DA:151,0
DA:153,0
DA:154,0
DA:157,0
DA:158,0
DA:159,0
DA:160,0
DA:162,0
DA:163,0
DA:164,0
DA:166,0
DA:168,0
DA:169,0
DA:171,0
DA:172,0
DA:173,0
DA:174,0
DA:177,0
DA:178,0
DA:179,0
DA:180,0
DA:183,0
DA:184,0
DA:187,0
DA:188,0
DA:189,0
DA:190,0
DA:191,0
DA:193,0
DA:194,0
DA:197,0
DA:198,0
DA:199,0
DA:200,0
DA:201,0
DA:202,0
DA:204,0
DA:205,0
DA:208,0
DA:210,0
DA:211,0
DA:214,0
DA:215,0
DA:216,0
DA:217,0
DA:218,0
DA:219,0
DA:221,0
DA:222,0
DA:223,0
DA:226,0
DA:228,0
DA:229,0
DA:232,0
DA:233,0
DA:234,0
DA:238,0
DA:239,0
DA:247,1
DA:248,1
DA:249,1
DA:251,1
DA:252,1
DA:253,1
DA:256,1
DA:257,1
DA:258,1
DA:260,1
DA:261,1
DA:263,0
DA:265,1
BRF:0
BRH:0
LF:116
LH:12
end_of_record
SF:C:\Users\Admin\RustProjects\RustBD\src\common\config.rs
FN:253,_RNvMs4_NtNtCsioRnW7FrYT6_6rustdb6common6configNtB5_13StorageConfig5merge
FN:274,_RNvMs5_NtNtCsioRnW7FrYT6_6rustdb6common6configNtB5_13LoggingConfig5merge
FN:293,_RNvMs6_NtNtCsioRnW7FrYT6_6rustdb6common6configNtB5_13NetworkConfig5merge
FN:308,_RNvMs7_NtNtCsioRnW7FrYT6_6rustdb6common6configNtB5_17PerformanceConfig5merge
FN:193,_RNvMs3_NtNtCsioRnW7FrYT6_6rustdb6common6configNtB5_14DatabaseConfig5merge
FN:151,_RNvMs3_NtNtCsioRnW7FrYT6_6rustdb6common6configNtB5_14DatabaseConfig7to_file
FN:158,_RNvMs3_NtNtCsioRnW7FrYT6_6rustdb6common6configNtB5_14DatabaseConfig8from_env
FN:223,_RNvMs3_NtNtCsioRnW7FrYT6_6rustdb6common6configNtB5_14DatabaseConfig8validate
FN:144,_RNvMs3_NtNtCsioRnW7FrYT6_6rustdb6common6configNtB5_14DatabaseConfig9from_file
FN:28,_RNvXNtNtCsioRnW7FrYT6_6rustdb6common6configNtB2_14DatabaseConfigNtNtCsixiwFwjEgS7_4core7default7Default7default
FN:81,_RNvXs0_NtNtCsioRnW7FrYT6_6rustdb6common6configNtB5_13LoggingConfigNtNtCsixiwFwjEgS7_4core7default7Default7default
FN:103,_RNvXs1_NtNtCsioRnW7FrYT6_6rustdb6common6configNtB5_13NetworkConfigNtNtCsixiwFwjEgS7_4core7default7Default7default
FN:130,_RNvXs2_NtNtCsioRnW7FrYT6_6rustdb6common6configNtB5_17PerformanceConfigNtNtCsixiwFwjEgS7_4core7default7Default7default
FN:56,_RNvXs_NtNtCsioRnW7FrYT6_6rustdb6common6configNtB4_13StorageConfigNtNtCsixiwFwjEgS7_4core7default7Default7default
FN:151,_RNvMs3_NtNtCs9nxHbwgHRMj_6rustdb6common6configNtB5_14DatabaseConfig7to_file
FN:158,_RNvMs3_NtNtCs9nxHbwgHRMj_6rustdb6common6configNtB5_14DatabaseConfig8from_env
FN:144,_RNvMs3_NtNtCs9nxHbwgHRMj_6rustdb6common6configNtB5_14DatabaseConfig9from_file
FN:253,_RNvMs4_NtNtCs9nxHbwgHRMj_6rustdb6common6configNtB5_13StorageConfig5merge
FN:274,_RNvMs5_NtNtCs9nxHbwgHRMj_6rustdb6common6configNtB5_13LoggingConfig5merge
FN:293,_RNvMs6_NtNtCs9nxHbwgHRMj_6rustdb6common6configNtB5_13NetworkConfig5merge
FN:308,_RNvMs7_NtNtCs9nxHbwgHRMj_6rustdb6common6configNtB5_17PerformanceConfig5merge
FN:81,_RNvXs0_NtNtCs9nxHbwgHRMj_6rustdb6common6configNtB5_13LoggingConfigNtNtCsixiwFwjEgS7_4core7default7Default7default
FN:103,_RNvXs1_NtNtCs9nxHbwgHRMj_6rustdb6common6configNtB5_13NetworkConfigNtNtCsixiwFwjEgS7_4core7default7Default7default
FN:130,_RNvXs2_NtNtCs9nxHbwgHRMj_6rustdb6common6configNtB5_17PerformanceConfigNtNtCsixiwFwjEgS7_4core7default7Default7default
FN:56,_RNvXs_NtNtCs9nxHbwgHRMj_6rustdb6common6configNtB4_13StorageConfigNtNtCsixiwFwjEgS7_4core7default7Default7default
FN:193,_RNvMs3_NtNtCs9nxHbwgHRMj_6rustdb6common6configNtB5_14DatabaseConfig5merge
FN:223,_RNvMs3_NtNtCs9nxHbwgHRMj_6rustdb6common6configNtB5_14DatabaseConfig8validate
FN:28,_RNvXNtNtCs9nxHbwgHRMj_6rustdb6common6configNtB2_14DatabaseConfigNtNtCsixiwFwjEgS7_4core7default7Default7default
FN:355,_RNvNtNtNtCs9nxHbwgHRMj_6rustdb6common6config5testss_17test_config_merge
FN:333,_RNvNtNtNtCs9nxHbwgHRMj_6rustdb6common6config5testss_19test_default_config
FN:342,_RNvNtNtNtCs9nxHbwgHRMj_6rustdb6common6config5testss_22test_config_validation
FNDA:0,_RNvMs4_NtNtCsioRnW7FrYT6_6rustdb6common6configNtB5_13StorageConfig5merge
FNDA:0,_RNvMs5_NtNtCsioRnW7FrYT6_6rustdb6common6configNtB5_13LoggingConfig5merge
FNDA:0,_RNvMs6_NtNtCsioRnW7FrYT6_6rustdb6common6configNtB5_13NetworkConfig5merge
FNDA:0,_RNvMs7_NtNtCsioRnW7FrYT6_6rustdb6common6configNtB5_17PerformanceConfig5merge
FNDA:0,_RNvMs3_NtNtCsioRnW7FrYT6_6rustdb6common6configNtB5_14DatabaseConfig5merge
FNDA:0,_RNvMs3_NtNtCsioRnW7FrYT6_6rustdb6common6configNtB5_14DatabaseConfig7to_file
FNDA:0,_RNvMs3_NtNtCsioRnW7FrYT6_6rustdb6common6configNtB5_14DatabaseConfig8from_env
FNDA:0,_RNvMs3_NtNtCsioRnW7FrYT6_6rustdb6common6configNtB5_14DatabaseConfig8validate
FNDA:0,_RNvMs3_NtNtCsioRnW7FrYT6_6rustdb6common6configNtB5_14DatabaseConfig9from_file
FNDA:0,_RNvXNtNtCsioRnW7FrYT6_6rustdb6common6configNtB2_14DatabaseConfigNtNtCsixiwFwjEgS7_4core7default7Default7default
FNDA:0,_RNvXs0_NtNtCsioRnW7FrYT6_6rustdb6common6configNtB5_13LoggingConfigNtNtCsixiwFwjEgS7_4core7default7Default7default
FNDA:0,_RNvXs1_NtNtCsioRnW7FrYT6_6rustdb6common6configNtB5_13NetworkConfigNtNtCsixiwFwjEgS7_4core7default7Default7default
FNDA:0,_RNvXs2_NtNtCsioRnW7FrYT6_6rustdb6common6configNtB5_17PerformanceConfigNtNtCsixiwFwjEgS7_4core7default7Default7default
FNDA:0,_RNvXs_NtNtCsioRnW7FrYT6_6rustdb6common6configNtB4_13StorageConfigNtNtCsixiwFwjEgS7_4core7default7Default7default
FNDA:0,_RNvMs3_NtNtCs9nxHbwgHRMj_6rustdb6common6configNtB5_14DatabaseConfig7to_file
FNDA:0,_RNvMs3_NtNtCs9nxHbwgHRMj_6rustdb6common6configNtB5_14DatabaseConfig8from_env
FNDA:0,_RNvMs3_NtNtCs9nxHbwgHRMj_6rustdb6common6configNtB5_14DatabaseConfig9from_file
FNDA:0,_RNvMs4_NtNtCs9nxHbwgHRMj_6rustdb6common6configNtB5_13StorageConfig5merge
FNDA:0,_RNvMs5_NtNtCs9nxHbwgHRMj_6rustdb6common6configNtB5_13LoggingConfig5merge
FNDA:0,_RNvMs6_NtNtCs9nxHbwgHRMj_6rustdb6common6configNtB5_13NetworkConfig5merge
FNDA:0,_RNvMs7_NtNtCs9nxHbwgHRMj_6rustdb6common6configNtB5_17PerformanceConfig5merge
FNDA:0,_RNvXs0_NtNtCs9nxHbwgHRMj_6rustdb6common6configNtB5_13LoggingConfigNtNtCsixiwFwjEgS7_4core7default7Default7default
FNDA:0,_RNvXs1_NtNtCs9nxHbwgHRMj_6rustdb6common6configNtB5_13NetworkConfigNtNtCsixiwFwjEgS7_4core7default7Default7default
FNDA:0,_RNvXs2_NtNtCs9nxHbwgHRMj_6rustdb6common6configNtB5_17PerformanceConfigNtNtCsixiwFwjEgS7_4core7default7Default7default
FNDA:0,_RNvXs_NtNtCs9nxHbwgHRMj_6rustdb6common6configNtB4_13StorageConfigNtNtCsixiwFwjEgS7_4core7default7Default7default
FNDA:1,_RNvMs3_NtNtCs9nxHbwgHRMj_6rustdb6common6configNtB5_14DatabaseConfig5merge
FNDA:3,_RNvMs3_NtNtCs9nxHbwgHRMj_6rustdb6common6configNtB5_14DatabaseConfig8validate
FNDA:5,_RNvXNtNtCs9nxHbwgHRMj_6rustdb6common6configNtB2_14DatabaseConfigNtNtCsixiwFwjEgS7_4core7default7Default7default
FNDA:1,_RNvNtNtNtCs9nxHbwgHRMj_6rustdb6common6config5testss_17test_config_merge
FNDA:1,_RNvNtNtNtCs9nxHbwgHRMj_6rustdb6common6config5testss_19test_default_config
FNDA:1,_RNvNtNtNtCs9nxHbwgHRMj_6rustdb6common6config5testss_22test_config_validation
FNF:17
FNH:6
DA:28,5
DA:29,5
DA:30,5
DA:31,5
DA:32,5
DA:33,5
DA:34,5
DA:35,5
DA:36,5
DA:37,5
DA:56,0
DA:57,0
DA:58,0
DA:59,0
DA:60,0
DA:61,0
DA:62,0
DA:63,0
DA:64,0
DA:81,0
DA:82,0
DA:83,0
DA:84,0
DA:85,0
DA:86,0
DA:87,0
DA:88,0
DA:103,0
DA:104,0
DA:105,0
DA:106,0
DA:107,0
DA:108,0
DA:109,0
DA:130,0
DA:131,0
DA:132,0
DA:133,0
DA:134,0
DA:135,0
DA:136,0
DA:137,0
DA:138,0
DA:139,0
DA:144,0
DA:145,0
DA:146,0
DA:147,0
DA:148,0
DA:151,0
DA:152,0
DA:153,0
DA:154,0
DA:155,0
DA:158,0
DA:159,0
DA:161,0
DA:162,0
DA:163,0
DA:165,0
DA:166,0
DA:167,0
DA:169,0
DA:170,0
DA:171,0
DA:173,0
DA:174,0
DA:175,0
DA:189,0
DA:190,0
DA:193,1
DA:194,1
DA:195,1
DA:196,1
DA:197,1
DA:198,0
DA:199,1
DA:200,1
DA:201,0
DA:202,1
DA:203,1
DA:204,1
DA:205,1
DA:206,1
DA:207,0
DA:208,1
DA:209,1
DA:210,0
DA:211,1
DA:219,1
DA:220,1
DA:223,3
DA:224,3
DA:225,1
DA:226,2
DA:228,2
DA:229,1
DA:230,1
DA:248,1
DA:249,3
DA:253,0
DA:254,0
DA:255,0
DA:256,0
DA:257,0
DA:258,0
DA:259,0
DA:260,0
DA:261,0
DA:262,0
DA:263,0
DA:264,0
DA:265,0
DA:266,0
DA:267,0
DA:268,0
DA:269,0
DA:270,0
DA:274,0
DA:275,0
DA:276,0
DA:277,0
DA:278,0
DA:279,0
DA:280,0
DA:281,0
DA:282,0
DA:283,0
DA:284,0
DA:285,0
DA:286,0
DA:287,0
DA:288,0
DA:289,0
DA:293,0
DA:294,0
DA:295,0
DA:296,0
DA:297,0
DA:298,0
DA:299,0
DA:300,0
DA:301,0
DA:302,0
DA:303,0
DA:304,0
DA:308,0
DA:309,0
DA:310,0
DA:311,0
DA:312,0
DA:313,0
DA:314,0
DA:315,0
DA:316,0
DA:317,0
DA:318,0
DA:319,0
DA:320,0
DA:321,0
DA:322,0
DA:323,0
DA:324,0
DA:325,0
DA:333,1
DA:334,1
DA:335,1
DA:336,1
DA:337,1
DA:338,1
DA:339,1
DA:342,1
DA:343,1
DA:344,1
DA:346,1
DA:347,1
DA:349,1
DA:350,1
DA:351,1
DA:352,1
DA:355,1
DA:356,1
DA:357,1
DA:359,1
DA:360,1
DA:361,1
DA:363,1
DA:364,1
DA:365,1
DA:366,1
DA:367,1
BRF:0
BRH:0
LF:191
LH:63
end_of_record
SF:C:\Users\Admin\RustProjects\RustBD\src\common\error.rs
FN:160,_RINvMNtNtCsioRnW7FrYT6_6rustdb6common5errorNtB3_5Error10validationNtNtCs6L9tbza1LrC_5alloc6string6StringEB7_
FN:160,_RINvMNtNtCsioRnW7FrYT6_6rustdb6common5errorNtB3_5Error10validationRNtNtCs6L9tbza1LrC_5alloc6string6StringEB7_
FN:160,_RINvMNtNtCsioRnW7FrYT6_6rustdb6common5errorNtB3_5Error10validationReEB7_
FN:99,_RINvMNtNtCsioRnW7FrYT6_6rustdb6common5errorNtB3_5Error11sql_parsingNtNtCs6L9tbza1LrC_5alloc6string6StringEB7_
FN:139,_RINvMNtNtCsioRnW7FrYT6_6rustdb6common5errorNtB3_5Error15query_executionNtNtCs6L9tbza1LrC_5alloc6string6StringEB7_
FN:139,_RINvMNtNtCsioRnW7FrYT6_6rustdb6common5errorNtB3_5Error15query_executionReEB7_
FN:125,_RINvMNtNtCsioRnW7FrYT6_6rustdb6common5errorNtB3_5Error17semantic_analysisNtNtCs6L9tbza1LrC_5alloc6string6StringEB7_
FN:125,_RINvMNtNtCsioRnW7FrYT6_6rustdb6common5errorNtB3_5Error17semantic_analysisReEB7_
FN:106,_RINvMNtNtCsioRnW7FrYT6_6rustdb6common5errorNtB3_5Error6parserNtNtCs6L9tbza1LrC_5alloc6string6StringEB7_
FN:118,_RINvMNtNtCsioRnW7FrYT6_6rustdb6common5errorNtB3_5Error8conflictReEB7_
FN:92,_RINvMNtNtCsioRnW7FrYT6_6rustdb6common5errorNtB3_5Error8databaseNtNtCs6L9tbza1LrC_5alloc6string6StringEB7_
FN:92,_RINvMNtNtCsioRnW7FrYT6_6rustdb6common5errorNtB3_5Error8databaseReEB7_
FN:181,_RINvMNtNtCsioRnW7FrYT6_6rustdb6common5errorNtB3_5Error8internalNtNtCs6L9tbza1LrC_5alloc6string6StringEB7_
FN:181,_RINvMNtNtCsioRnW7FrYT6_6rustdb6common5errorNtB3_5Error8internalRNtNtCs6L9tbza1LrC_5alloc6string6StringEB7_
FN:181,_RINvMNtNtCsioRnW7FrYT6_6rustdb6common5errorNtB3_5Error8internalReEB7_
FN:146,_RINvMNtNtCsioRnW7FrYT6_6rustdb6common5errorNtB3_5Error11transactionpEB7_
FN:174,_RINvMNtNtCsioRnW7FrYT6_6rustdb6common5errorNtB3_5Error11unsupportedpEB7_
FN:167,_RINvMNtNtCsioRnW7FrYT6_6rustdb6common5errorNtB3_5Error13configurationpEB7_
FN:132,_RINvMNtNtCsioRnW7FrYT6_6rustdb6common5errorNtB3_5Error14query_planningpEB7_
FN:153,_RINvMNtNtCsioRnW7FrYT6_6rustdb6common5errorNtB3_5Error4lockpEB7_
FN:111,_RINvMNtNtCsioRnW7FrYT6_6rustdb6common5errorNtB3_5Error7timeoutpEB7_
FN:222,_RNvMNtNtCsioRnW7FrYT6_6rustdb6common5errorNtB2_5Error14localized_lock
FN:188,_RNvMNtNtCsioRnW7FrYT6_6rustdb6common5errorNtB2_5Error18localized_database
FN:256,_RNvMNtNtCsioRnW7FrYT6_6rustdb6common5errorNtB2_5Error18localized_internal
FN:232,_RNvMNtNtCsioRnW7FrYT6_6rustdb6common5errorNtB2_5Error20localized_validation
FN:200,_RNvMNtNtCsioRnW7FrYT6_6rustdb6common5errorNtB2_5Error21localized_sql_parsing
FN:212,_RNvMNtNtCsioRnW7FrYT6_6rustdb6common5errorNtB2_5Error21localized_transaction
FN:244,_RNvMNtNtCsioRnW7FrYT6_6rustdb6common5errorNtB2_5Error23localized_configuration
FN:227,_RNvMNtNtCsioRnW7FrYT6_6rustdb6common5errorNtB2_5Error26localized_lock_with_params
FN:193,_RNvMNtNtCsioRnW7FrYT6_6rustdb6common5errorNtB2_5Error30localized_database_with_params
FN:261,_RNvMNtNtCsioRnW7FrYT6_6rustdb6common5errorNtB2_5Error30localized_internal_with_params
FN:237,_RNvMNtNtCsioRnW7FrYT6_6rustdb6common5errorNtB2_5Error32localized_validation_with_params
FN:205,_RNvMNtNtCsioRnW7FrYT6_6rustdb6common5errorNtB2_5Error33localized_sql_parsing_with_params
FN:217,_RNvMNtNtCsioRnW7FrYT6_6rustdb6common5errorNtB2_5Error33localized_transaction_with_params
FN:249,_RNvMNtNtCsioRnW7FrYT6_6rustdb6common5errorNtB2_5Error35localized_configuration_with_params
FN:146,_RINvMNtNtCs9nxHbwgHRMj_6rustdb6common5errorNtB3_5Error11transactionpEB7_
FN:174,_RINvMNtNtCs9nxHbwgHRMj_6rustdb6common5errorNtB3_5Error11unsupportedpEB7_
FN:167,_RINvMNtNtCs9nxHbwgHRMj_6rustdb6common5errorNtB3_5Error13configurationpEB7_
FN:132,_RINvMNtNtCs9nxHbwgHRMj_6rustdb6common5errorNtB3_5Error14query_planningpEB7_
FN:139,_RINvMNtNtCs9nxHbwgHRMj_6rustdb6common5errorNtB3_5Error15query_executionpEB7_
FN:153,_RINvMNtNtCs9nxHbwgHRMj_6rustdb6common5errorNtB3_5Error4lockpEB7_
FN:222,_RNvMNtNtCs9nxHbwgHRMj_6rustdb6common5errorNtB2_5Error14localized_lock
FN:188,_RNvMNtNtCs9nxHbwgHRMj_6rustdb6common5errorNtB2_5Error18localized_database
FN:256,_RNvMNtNtCs9nxHbwgHRMj_6rustdb6common5errorNtB2_5Error18localized_internal
FN:232,_RNvMNtNtCs9nxHbwgHRMj_6rustdb6common5errorNtB2_5Error20localized_validation
FN:200,_RNvMNtNtCs9nxHbwgHRMj_6rustdb6common5errorNtB2_5Error21localized_sql_parsing
FN:212,_RNvMNtNtCs9nxHbwgHRMj_6rustdb6common5errorNtB2_5Error21localized_transaction
FN:244,_RNvMNtNtCs9nxHbwgHRMj_6rustdb6common5errorNtB2_5Error23localized_configuration
FN:227,_RNvMNtNtCs9nxHbwgHRMj_6rustdb6common5errorNtB2_5Error26localized_lock_with_params
FN:193,_RNvMNtNtCs9nxHbwgHRMj_6rustdb6common5errorNtB2_5Error30localized_database_with_params
FN:261,_RNvMNtNtCs9nxHbwgHRMj_6rustdb6common5errorNtB2_5Error30localized_internal_with_params
FN:237,_RNvMNtNtCs9nxHbwgHRMj_6rustdb6common5errorNtB2_5Error32localized_validation_with_params
FN:205,_RNvMNtNtCs9nxHbwgHRMj_6rustdb6common5errorNtB2_5Error33localized_sql_parsing_with_params
FN:217,_RNvMNtNtCs9nxHbwgHRMj_6rustdb6common5errorNtB2_5Error33localized_transaction_with_params
FN:249,_RNvMNtNtCs9nxHbwgHRMj_6rustdb6common5errorNtB2_5Error35localized_configuration_with_params
FN:160,_RINvMNtNtCs9nxHbwgHRMj_6rustdb6common5errorNtB3_5Error10validationNtNtCs6L9tbza1LrC_5alloc6string6StringEB7_
FN:160,_RINvMNtNtCs9nxHbwgHRMj_6rustdb6common5errorNtB3_5Error10validationRNtNtCs6L9tbza1LrC_5alloc6string6StringEB7_
FN:160,_RINvMNtNtCs9nxHbwgHRMj_6rustdb6common5errorNtB3_5Error10validationReEB7_
FN:99,_RINvMNtNtCs9nxHbwgHRMj_6rustdb6common5errorNtB3_5Error11sql_parsingNtNtCs6L9tbza1LrC_5alloc6string6StringEB7_
FN:125,_RINvMNtNtCs9nxHbwgHRMj_6rustdb6common5errorNtB3_5Error17semantic_analysisNtNtCs6L9tbza1LrC_5alloc6string6StringEB7_
FN:125,_RINvMNtNtCs9nxHbwgHRMj_6rustdb6common5errorNtB3_5Error17semantic_analysisReEB7_
FN:106,_RINvMNtNtCs9nxHbwgHRMj_6rustdb6common5errorNtB3_5Error6parserNtNtCs6L9tbza1LrC_5alloc6string6StringEB7_
FN:111,_RINvMNtNtCs9nxHbwgHRMj_6rustdb6common5errorNtB3_5Error7timeoutNtNtCs6L9tbza1LrC_5alloc6string6StringEB7_
FN:118,_RINvMNtNtCs9nxHbwgHRMj_6rustdb6common5errorNtB3_5Error8conflictNtNtCs6L9tbza1LrC_5alloc6string6StringEB7_
FN:118,_RINvMNtNtCs9nxHbwgHRMj_6rustdb6common5errorNtB3_5Error8conflictReEB7_
FN:92,_RINvMNtNtCs9nxHbwgHRMj_6rustdb6common5errorNtB3_5Error8databaseNtNtCs6L9tbza1LrC_5alloc6string6StringEB7_
FN:92,_RINvMNtNtCs9nxHbwgHRMj_6rustdb6common5errorNtB3_5Error8databaseReEB7_
FN:181,_RINvMNtNtCs9nxHbwgHRMj_6rustdb6common5errorNtB3_5Error8internalNtNtCs6L9tbza1LrC_5alloc6string6StringEB7_
FN:181,_RINvMNtNtCs9nxHbwgHRMj_6rustdb6common5errorNtB3_5Error8internalRNtNtCs6L9tbza1LrC_5alloc6string6StringEB7_
FN:181,_RINvMNtNtCs9nxHbwgHRMj_6rustdb6common5errorNtB3_5Error8internalReEB7_
FNDA:0,_RINvMNtNtCsioRnW7FrYT6_6rustdb6common5errorNtB3_5Error10validationNtNtCs6L9tbza1LrC_5alloc6string6StringEB7_
FNDA:0,_RINvMNtNtCsioRnW7FrYT6_6rustdb6common5errorNtB3_5Error10validationRNtNtCs6L9tbza1LrC_5alloc6string6StringEB7_
FNDA:0,_RINvMNtNtCsioRnW7FrYT6_6rustdb6common5errorNtB3_5Error10validationReEB7_
FNDA:2,_RINvMNtNtCsioRnW7FrYT6_6rustdb6common5errorNtB3_5Error11sql_parsingNtNtCs6L9tbza1LrC_5alloc6string6StringEB7_
FNDA:0,_RINvMNtNtCsioRnW7FrYT6_6rustdb6common5errorNtB3_5Error15query_executionNtNtCs6L9tbza1LrC_5alloc6string6StringEB7_
FNDA:0,_RINvMNtNtCsioRnW7FrYT6_6rustdb6common5errorNtB3_5Error15query_executionReEB7_
FNDA:0,_RINvMNtNtCsioRnW7FrYT6_6rustdb6common5errorNtB3_5Error17semantic_analysisNtNtCs6L9tbza1LrC_5alloc6string6StringEB7_
FNDA:0,_RINvMNtNtCsioRnW7FrYT6_6rustdb6common5errorNtB3_5Error17semantic_analysisReEB7_
FNDA:2,_RINvMNtNtCsioRnW7FrYT6_6rustdb6common5errorNtB3_5Error6parserNtNtCs6L9tbza1LrC_5alloc6string6StringEB7_
FNDA:0,_RINvMNtNtCsioRnW7FrYT6_6rustdb6common5errorNtB3_5Error8conflictReEB7_
FNDA:0,_RINvMNtNtCsioRnW7FrYT6_6rustdb6common5errorNtB3_5Error8databaseNtNtCs6L9tbza1LrC_5alloc6string6StringEB7_
FNDA:0,_RINvMNtNtCsioRnW7FrYT6_6rustdb6common5errorNtB3_5Error8databaseReEB7_
FNDA:2,_RINvMNtNtCsioRnW7FrYT6_6rustdb6common5errorNtB3_5Error8internalNtNtCs6L9tbza1LrC_5alloc6string6StringEB7_
FNDA:0,_RINvMNtNtCsioRnW7FrYT6_6rustdb6common5errorNtB3_5Error8internalRNtNtCs6L9tbza1LrC_5alloc6string6StringEB7_
FNDA:0,_RINvMNtNtCsioRnW7FrYT6_6rustdb6common5errorNtB3_5Error8internalReEB7_
FNDA:0,_RINvMNtNtCsioRnW7FrYT6_6rustdb6common5errorNtB3_5Error11transactionpEB7_
FNDA:0,_RINvMNtNtCsioRnW7FrYT6_6rustdb6common5errorNtB3_5Error11unsupportedpEB7_
FNDA:0,_RINvMNtNtCsioRnW7FrYT6_6rustdb6common5errorNtB3_5Error13configurationpEB7_
FNDA:0,_RINvMNtNtCsioRnW7FrYT6_6rustdb6common5errorNtB3_5Error14query_planningpEB7_
FNDA:0,_RINvMNtNtCsioRnW7FrYT6_6rustdb6common5errorNtB3_5Error4lockpEB7_
FNDA:0,_RINvMNtNtCsioRnW7FrYT6_6rustdb6common5errorNtB3_5Error7timeoutpEB7_
FNDA:0,_RNvMNtNtCsioRnW7FrYT6_6rustdb6common5errorNtB2_5Error14localized_lock
FNDA:0,_RNvMNtNtCsioRnW7FrYT6_6rustdb6common5errorNtB2_5Error18localized_database
FNDA:0,_RNvMNtNtCsioRnW7FrYT6_6rustdb6common5errorNtB2_5Error18localized_internal
FNDA:0,_RNvMNtNtCsioRnW7FrYT6_6rustdb6common5errorNtB2_5Error20localized_validation
FNDA:0,_RNvMNtNtCsioRnW7FrYT6_6rustdb6common5errorNtB2_5Error21localized_sql_parsing
FNDA:0,_RNvMNtNtCsioRnW7FrYT6_6rustdb6common5errorNtB2_5Error21localized_transaction
FNDA:0,_RNvMNtNtCsioRnW7FrYT6_6rustdb6common5errorNtB2_5Error23localized_configuration
FNDA:0,_RNvMNtNtCsioRnW7FrYT6_6rustdb6common5errorNtB2_5Error26localized_lock_with_params
FNDA:0,_RNvMNtNtCsioRnW7FrYT6_6rustdb6common5errorNtB2_5Error30localized_database_with_params
FNDA:0,_RNvMNtNtCsioRnW7FrYT6_6rustdb6common5errorNtB2_5Error30localized_internal_with_params
FNDA:0,_RNvMNtNtCsioRnW7FrYT6_6rustdb6common5errorNtB2_5Error32localized_validation_with_params
FNDA:0,_RNvMNtNtCsioRnW7FrYT6_6rustdb6common5errorNtB2_5Error33localized_sql_parsing_with_params
FNDA:0,_RNvMNtNtCsioRnW7FrYT6_6rustdb6common5errorNtB2_5Error33localized_transaction_with_params
FNDA:0,_RNvMNtNtCsioRnW7FrYT6_6rustdb6common5errorNtB2_5Error35localized_configuration_with_params
FNDA:0,_RINvMNtNtCs9nxHbwgHRMj_6rustdb6common5errorNtB3_5Error11transactionpEB7_
FNDA:0,_RINvMNtNtCs9nxHbwgHRMj_6rustdb6common5errorNtB3_5Error11unsupportedpEB7_
FNDA:0,_RINvMNtNtCs9nxHbwgHRMj_6rustdb6common5errorNtB3_5Error13configurationpEB7_
FNDA:0,_RINvMNtNtCs9nxHbwgHRMj_6rustdb6common5errorNtB3_5Error14query_planningpEB7_
FNDA:0,_RINvMNtNtCs9nxHbwgHRMj_6rustdb6common5errorNtB3_5Error15query_executionpEB7_
FNDA:0,_RINvMNtNtCs9nxHbwgHRMj_6rustdb6common5errorNtB3_5Error4lockpEB7_
FNDA:0,_RNvMNtNtCs9nxHbwgHRMj_6rustdb6common5errorNtB2_5Error14localized_lock
FNDA:0,_RNvMNtNtCs9nxHbwgHRMj_6rustdb6common5errorNtB2_5Error18localized_database
FNDA:0,_RNvMNtNtCs9nxHbwgHRMj_6rustdb6common5errorNtB2_5Error18localized_internal
FNDA:0,_RNvMNtNtCs9nxHbwgHRMj_6rustdb6common5errorNtB2_5Error20localized_validation
FNDA:0,_RNvMNtNtCs9nxHbwgHRMj_6rustdb6common5errorNtB2_5Error21localized_sql_parsing
FNDA:0,_RNvMNtNtCs9nxHbwgHRMj_6rustdb6common5errorNtB2_5Error21localized_transaction
FNDA:0,_RNvMNtNtCs9nxHbwgHRMj_6rustdb6common5errorNtB2_5Error23localized_configuration
FNDA:0,_RNvMNtNtCs9nxHbwgHRMj_6rustdb6common5errorNtB2_5Error26localized_lock_with_params
FNDA:0,_RNvMNtNtCs9nxHbwgHRMj_6rustdb6common5errorNtB2_5Error30localized_database_with_params
FNDA:0,_RNvMNtNtCs9nxHbwgHRMj_6rustdb6common5errorNtB2_5Error30localized_internal_with_params
FNDA:0,_RNvMNtNtCs9nxHbwgHRMj_6rustdb6common5errorNtB2_5Error32localized_validation_with_params
FNDA:0,_RNvMNtNtCs9nxHbwgHRMj_6rustdb6common5errorNtB2_5Error33localized_sql_parsing_with_params
FNDA:0,_RNvMNtNtCs9nxHbwgHRMj_6rustdb6common5errorNtB2_5Error33localized_transaction_with_params
FNDA:0,_RNvMNtNtCs9nxHbwgHRMj_6rustdb6common5errorNtB2_5Error35localized_configuration_with_params
FNDA:0,_RINvMNtNtCs9nxHbwgHRMj_6rustdb6common5errorNtB3_5Error10validationNtNtCs6L9tbza1LrC_5alloc6string6StringEB7_
FNDA:0,_RINvMNtNtCs9nxHbwgHRMj_6rustdb6common5errorNtB3_5Error10validationRNtNtCs6L9tbza1LrC_5alloc6string6StringEB7_
FNDA:10,_RINvMNtNtCs9nxHbwgHRMj_6rustdb6common5errorNtB3_5Error10validationReEB7_
FNDA:6,_RINvMNtNtCs9nxHbwgHRMj_6rustdb6common5errorNtB3_5Error11sql_parsingNtNtCs6L9tbza1LrC_5alloc6string6StringEB7_
FNDA:3,_RINvMNtNtCs9nxHbwgHRMj_6rustdb6common5errorNtB3_5Error17semantic_analysisNtNtCs6L9tbza1LrC_5alloc6string6StringEB7_
FNDA:0,_RINvMNtNtCs9nxHbwgHRMj_6rustdb6common5errorNtB3_5Error17semantic_analysisReEB7_
FNDA:6,_RINvMNtNtCs9nxHbwgHRMj_6rustdb6common5errorNtB3_5Error6parserNtNtCs6L9tbza1LrC_5alloc6string6StringEB7_
FNDA:1,_RINvMNtNtCs9nxHbwgHRMj_6rustdb6common5errorNtB3_5Error7timeoutNtNtCs6L9tbza1LrC_5alloc6string6StringEB7_
FNDA:1,_RINvMNtNtCs9nxHbwgHRMj_6rustdb6common5errorNtB3_5Error8conflictNtNtCs6L9tbza1LrC_5alloc6string6StringEB7_
FNDA:70,_RINvMNtNtCs9nxHbwgHRMj_6rustdb6common5errorNtB3_5Error8conflictReEB7_
FNDA:35,_RINvMNtNtCs9nxHbwgHRMj_6rustdb6common5errorNtB3_5Error8databaseNtNtCs6L9tbza1LrC_5alloc6string6StringEB7_
FNDA:3,_RINvMNtNtCs9nxHbwgHRMj_6rustdb6common5errorNtB3_5Error8databaseReEB7_
FNDA:0,_RINvMNtNtCs9nxHbwgHRMj_6rustdb6common5errorNtB3_5Error8internalNtNtCs6L9tbza1LrC_5alloc6string6StringEB7_
FNDA:15,_RINvMNtNtCs9nxHbwgHRMj_6rustdb6common5errorNtB3_5Error8internalRNtNtCs6L9tbza1LrC_5alloc6string6StringEB7_
FNDA:0,_RINvMNtNtCs9nxHbwgHRMj_6rustdb6common5errorNtB3_5Error8internalReEB7_
FNF:28
FNH:8
DA:92,38
DA:93,38
DA:94,38
DA:95,38
DA:96,38
DA:99,8
DA:100,8
DA:101,8
DA:102,8
DA:103,8
DA:106,8
DA:107,8
DA:108,8
DA:111,1
DA:112,1
DA:113,1
DA:114,1
DA:115,1
DA:118,71
DA:119,71
DA:120,71
DA:121,71
DA:122,71
DA:125,3
DA:126,3
DA:127,3
DA:128,3
DA:129,3
DA:132,0
DA:133,0
DA:134,0
DA:135,0
DA:136,0
DA:139,0
DA:140,0
DA:141,0
DA:142,0
DA:143,0
DA:146,0
DA:147,0
DA:148,0
DA:149,0
DA:150,0
DA:153,0
DA:154,0
DA:155,0
DA:156,0
DA:157,0
DA:160,10
DA:161,10
DA:162,10
DA:163,10
DA:164,10
DA:167,0
DA:168,0
DA:169,0
DA:170,0
DA:171,0
DA:174,0
DA:175,0
DA:176,0
DA:177,0
DA:178,0
DA:181,17
DA:182,17
DA:183,17
DA:184,17
DA:185,17
DA:188,0
DA:189,0
DA:190,0
DA:193,0
DA:194,0
DA:195,0
DA:196,0
DA:197,0
DA:200,0
DA:201,0
DA:202,0
DA:205,0
DA:206,0
DA:207,0
DA:208,0
DA:209,0
DA:212,0
DA:213,0
DA:214,0
DA:217,0
DA:218,0
DA:219,0
DA:222,0
DA:223,0
DA:224,0
DA:227,0
DA:228,0
DA:229,0
DA:232,0
DA:233,0
DA:234,0
DA:237,0
DA:238,0
DA:239,0
DA:240,0
DA:241,0
DA:244,0
DA:245,0
DA:246,0
DA:249,0
DA:250,0
DA:251,0
DA:252,0
DA:253,0
DA:256,0
DA:257,0
DA:258,0
DA:261,0
DA:262,0
DA:263,0
DA:264,0
DA:265,0
BRF:0
BRH:0
LF:120
LH:38
end_of_record
SF:C:\Users\Admin\RustProjects\RustBD\src\common\i18n.rs
FN:282,_RNCNCNvMs1_NtNtCsioRnW7FrYT6_6rustdb6common4i18nNtB9_11I18nManager11get_messages_00Bd_
FN:284,_RNCNCNvMs1_NtNtCsioRnW7FrYT6_6rustdb6common4i18nNtB9_11I18nManager11get_messages_0s_0Bd_
FN:276,_RNCNvMs1_NtNtCsioRnW7FrYT6_6rustdb6common4i18nNtB7_11I18nManager11get_message0Bb_
FN:278,_RNCNvMs1_NtNtCsioRnW7FrYT6_6rustdb6common4i18nNtB7_11I18nManager11get_messages_0Bb_
FN:267,_RNCNvMs1_NtNtCsioRnW7FrYT6_6rustdb6common4i18nNtB7_11I18nManager12get_language0Bb_
FN:260,_RNCNvMs1_NtNtCsioRnW7FrYT6_6rustdb6common4i18nNtB7_11I18nManager12set_language0Bb_
FN:272,_RNvMs1_NtNtCsioRnW7FrYT6_6rustdb6common4i18nNtB5_11I18nManager11get_message
FN:266,_RNvMs1_NtNtCsioRnW7FrYT6_6rustdb6common4i18nNtB5_11I18nManager12get_language
FN:259,_RNvMs1_NtNtCsioRnW7FrYT6_6rustdb6common4i18nNtB5_11I18nManager12set_language
FN:133,_RNvMs1_NtNtCsioRnW7FrYT6_6rustdb6common4i18nNtB5_11I18nManager13load_messages
FN:139,_RNvMs1_NtNtCsioRnW7FrYT6_6rustdb6common4i18nNtB5_11I18nManager16english_messages
FN:306,_RNvMs1_NtNtCsioRnW7FrYT6_6rustdb6common4i18nNtB5_11I18nManager17get_language_name
FN:301,_RNvMs1_NtNtCsioRnW7FrYT6_6rustdb6common4i18nNtB5_11I18nManager19supported_languages
FN:289,_RNvMs1_NtNtCsioRnW7FrYT6_6rustdb6common4i18nNtB5_11I18nManager23get_message_with_params
FN:121,_RNvMs1_NtNtCsioRnW7FrYT6_6rustdb6common4i18nNtB5_11I18nManager3new
FN:340,_RNvNtNtCsioRnW7FrYT6_6rustdb6common4i18n12get_language
FN:335,_RNvNtNtCsioRnW7FrYT6_6rustdb6common4i18n12set_language
FN:330,_RNvNtNtCsioRnW7FrYT6_6rustdb6common4i18n13t_with_params
FN:325,_RNvNtNtCsioRnW7FrYT6_6rustdb6common4i18n1t
FN:19,_RNvXNtNtCsioRnW7FrYT6_6rustdb6common4i18nNtB2_8LanguageNtNtCsixiwFwjEgS7_4core7default7Default7default
FN:35,_RNvXs0_NtNtCsioRnW7FrYT6_6rustdb6common4i18nNtB5_8LanguageNtNtNtCsixiwFwjEgS7_4core3str6traits7FromStr8from_str
FN:314,_RNvXs2_NtNtCsioRnW7FrYT6_6rustdb6common4i18nNtB5_11I18nManagerNtNtCsixiwFwjEgS7_4core7default7Default7default
FN:25,_RNvXs_NtNtCsioRnW7FrYT6_6rustdb6common4i18nNtB4_8LanguageNtNtCsixiwFwjEgS7_4core3fmt7Display3fmt
FN:306,_RNvMs1_NtNtCs9nxHbwgHRMj_6rustdb6common4i18nNtB5_11I18nManager17get_language_name
FN:289,_RNvMs1_NtNtCs9nxHbwgHRMj_6rustdb6common4i18nNtB5_11I18nManager23get_message_with_params
FN:340,_RNvNtNtCs9nxHbwgHRMj_6rustdb6common4i18n12get_language
FN:330,_RNvNtNtCs9nxHbwgHRMj_6rustdb6common4i18n13t_with_params
FN:19,_RNvXNtNtCs9nxHbwgHRMj_6rustdb6common4i18nNtB2_8LanguageNtNtCsixiwFwjEgS7_4core7default7Default7default
FN:314,_RNvXs2_NtNtCs9nxHbwgHRMj_6rustdb6common4i18nNtB5_11I18nManagerNtNtCsixiwFwjEgS7_4core7default7Default7default
FN:360,_RNvNtNtNtCs9nxHbwgHRMj_6rustdb6common4i18n5testss_17test_i18n_manager
FN:373,_RNvNtNtNtCs9nxHbwgHRMj_6rustdb6common4i18n5testss_21test_global_functions
FN:355,_RNvNtNtNtCs9nxHbwgHRMj_6rustdb6common4i18n5testss_21test_language_display
FN:349,_RNvNtNtNtCs9nxHbwgHRMj_6rustdb6common4i18n5testss_21test_language_parsing
FN:380,_RNvNtNtNtCs9nxHbwgHRMj_6rustdb6common4i18n5testss_24test_supported_languages
FN:282,_RNCNCNvMs1_NtNtCs9nxHbwgHRMj_6rustdb6common4i18nNtB9_11I18nManager11get_messages_00Bd_
FN:284,_RNCNCNvMs1_NtNtCs9nxHbwgHRMj_6rustdb6common4i18nNtB9_11I18nManager11get_messages_0s_0Bd_
FN:276,_RNCNvMs1_NtNtCs9nxHbwgHRMj_6rustdb6common4i18nNtB7_11I18nManager11get_message0Bb_
FN:278,_RNCNvMs1_NtNtCs9nxHbwgHRMj_6rustdb6common4i18nNtB7_11I18nManager11get_messages_0Bb_
FN:267,_RNCNvMs1_NtNtCs9nxHbwgHRMj_6rustdb6common4i18nNtB7_11I18nManager12get_language0Bb_
FN:260,_RNCNvMs1_NtNtCs9nxHbwgHRMj_6rustdb6common4i18nNtB7_11I18nManager12set_language0Bb_
FN:272,_RNvMs1_NtNtCs9nxHbwgHRMj_6rustdb6common4i18nNtB5_11I18nManager11get_message
FN:266,_RNvMs1_NtNtCs9nxHbwgHRMj_6rustdb6common4i18nNtB5_11I18nManager12get_language
FN:259,_RNvMs1_NtNtCs9nxHbwgHRMj_6rustdb6common4i18nNtB5_11I18nManager12set_language
FN:133,_RNvMs1_NtNtCs9nxHbwgHRMj_6rustdb6common4i18nNtB5_11I18nManager13load_messages
FN:139,_RNvMs1_NtNtCs9nxHbwgHRMj_6rustdb6common4i18nNtB5_11I18nManager16english_messages
FN:301,_RNvMs1_NtNtCs9nxHbwgHRMj_6rustdb6common4i18nNtB5_11I18nManager19supported_languages
FN:121,_RNvMs1_NtNtCs9nxHbwgHRMj_6rustdb6common4i18nNtB5_11I18nManager3new
FN:335,_RNvNtNtCs9nxHbwgHRMj_6rustdb6common4i18n12set_language
FN:325,_RNvNtNtCs9nxHbwgHRMj_6rustdb6common4i18n1t
FN:35,_RNvXs0_NtNtCs9nxHbwgHRMj_6rustdb6common4i18nNtB5_8LanguageNtNtNtCsixiwFwjEgS7_4core3str6traits7FromStr8from_str
FN:25,_RNvXs_NtNtCs9nxHbwgHRMj_6rustdb6common4i18nNtB4_8LanguageNtNtCsixiwFwjEgS7_4core3fmt7Display3fmt
FNDA:0,_RNCNCNvMs1_NtNtCsioRnW7FrYT6_6rustdb6common4i18nNtB9_11I18nManager11get_messages_00Bd_
FNDA:0,_RNCNCNvMs1_NtNtCsioRnW7FrYT6_6rustdb6common4i18nNtB9_11I18nManager11get_messages_0s_0Bd_
FNDA:0,_RNCNvMs1_NtNtCsioRnW7FrYT6_6rustdb6common4i18nNtB7_11I18nManager11get_message0Bb_
FNDA:0,_RNCNvMs1_NtNtCsioRnW7FrYT6_6rustdb6common4i18nNtB7_11I18nManager11get_messages_0Bb_
FNDA:0,_RNCNvMs1_NtNtCsioRnW7FrYT6_6rustdb6common4i18nNtB7_11I18nManager12get_language0Bb_
FNDA:0,_RNCNvMs1_NtNtCsioRnW7FrYT6_6rustdb6common4i18nNtB7_11I18nManager12set_language0Bb_
FNDA:0,_RNvMs1_NtNtCsioRnW7FrYT6_6rustdb6common4i18nNtB5_11I18nManager11get_message
FNDA:0,_RNvMs1_NtNtCsioRnW7FrYT6_6rustdb6common4i18nNtB5_11I18nManager12get_language
FNDA:0,_RNvMs1_NtNtCsioRnW7FrYT6_6rustdb6common4i18nNtB5_11I18nManager12set_language
FNDA:0,_RNvMs1_NtNtCsioRnW7FrYT6_6rustdb6common4i18nNtB5_11I18nManager13load_messages
FNDA:0,_RNvMs1_NtNtCsioRnW7FrYT6_6rustdb6common4i18nNtB5_11I18nManager16english_messages
FNDA:0,_RNvMs1_NtNtCsioRnW7FrYT6_6rustdb6common4i18nNtB5_11I18nManager17get_language_name
FNDA:0,_RNvMs1_NtNtCsioRnW7FrYT6_6rustdb6common4i18nNtB5_11I18nManager19supported_languages
FNDA:0,_RNvMs1_NtNtCsioRnW7FrYT6_6rustdb6common4i18nNtB5_11I18nManager23get_message_with_params
FNDA:0,_RNvMs1_NtNtCsioRnW7FrYT6_6rustdb6common4i18nNtB5_11I18nManager3new
FNDA:0,_RNvNtNtCsioRnW7FrYT6_6rustdb6common4i18n12get_language
FNDA:0,_RNvNtNtCsioRnW7FrYT6_6rustdb6common4i18n12set_language
FNDA:0,_RNvNtNtCsioRnW7FrYT6_6rustdb6common4i18n13t_with_params
FNDA:0,_RNvNtNtCsioRnW7FrYT6_6rustdb6common4i18n1t
FNDA:0,_RNvXNtNtCsioRnW7FrYT6_6rustdb6common4i18nNtB2_8LanguageNtNtCsixiwFwjEgS7_4core7default7Default7default
FNDA:0,_RNvXs0_NtNtCsioRnW7FrYT6_6rustdb6common4i18nNtB5_8LanguageNtNtNtCsixiwFwjEgS7_4core3str6traits7FromStr8from_str
FNDA:0,_RNvXs2_NtNtCsioRnW7FrYT6_6rustdb6common4i18nNtB5_11I18nManagerNtNtCsixiwFwjEgS7_4core7default7Default7default
FNDA:0,_RNvXs_NtNtCsioRnW7FrYT6_6rustdb6common4i18nNtB4_8LanguageNtNtCsixiwFwjEgS7_4core3fmt7Display3fmt
FNDA:0,_RNvMs1_NtNtCs9nxHbwgHRMj_6rustdb6common4i18nNtB5_11I18nManager17get_language_name
FNDA:0,_RNvMs1_NtNtCs9nxHbwgHRMj_6rustdb6common4i18nNtB5_11I18nManager23get_message_with_params
FNDA:0,_RNvNtNtCs9nxHbwgHRMj_6rustdb6common4i18n12get_language
FNDA:0,_RNvNtNtCs9nxHbwgHRMj_6rustdb6common4i18n13t_with_params
FNDA:0,_RNvXNtNtCs9nxHbwgHRMj_6rustdb6common4i18nNtB2_8LanguageNtNtCsixiwFwjEgS7_4core7default7Default7default
FNDA:0,_RNvXs2_NtNtCs9nxHbwgHRMj_6rustdb6common4i18nNtB5_11I18nManagerNtNtCsixiwFwjEgS7_4core7default7Default7default
FNDA:1,_RNvNtNtNtCs9nxHbwgHRMj_6rustdb6common4i18n5testss_17test_i18n_manager
FNDA:1,_RNvNtNtNtCs9nxHbwgHRMj_6rustdb6common4i18n5testss_21test_global_functions
FNDA:1,_RNvNtNtNtCs9nxHbwgHRMj_6rustdb6common4i18n5testss_21test_language_display
FNDA:1,_RNvNtNtNtCs9nxHbwgHRMj_6rustdb6common4i18n5testss_21test_language_parsing
FNDA:1,_RNvNtNtNtCs9nxHbwgHRMj_6rustdb6common4i18n5testss_24test_supported_languages
FNDA:0,_RNCNCNvMs1_NtNtCs9nxHbwgHRMj_6rustdb6common4i18nNtB9_11I18nManager11get_messages_00Bd_
FNDA:0,_RNCNCNvMs1_NtNtCs9nxHbwgHRMj_6rustdb6common4i18nNtB9_11I18nManager11get_messages_0s_0Bd_
FNDA:4,_RNCNvMs1_NtNtCs9nxHbwgHRMj_6rustdb6common4i18nNtB7_11I18nManager11get_message0Bb_
FNDA:0,_RNCNvMs1_NtNtCs9nxHbwgHRMj_6rustdb6common4i18nNtB7_11I18nManager11get_messages_0Bb_
FNDA:0,_RNCNvMs1_NtNtCs9nxHbwgHRMj_6rustdb6common4i18nNtB7_11I18nManager12get_language0Bb_
FNDA:0,_RNCNvMs1_NtNtCs9nxHbwgHRMj_6rustdb6common4i18nNtB7_11I18nManager12set_language0Bb_
FNDA:4,_RNvMs1_NtNtCs9nxHbwgHRMj_6rustdb6common4i18nNtB5_11I18nManager11get_message
FNDA:4,_RNvMs1_NtNtCs9nxHbwgHRMj_6rustdb6common4i18nNtB5_11I18nManager12get_language
FNDA:3,_RNvMs1_NtNtCs9nxHbwgHRMj_6rustdb6common4i18nNtB5_11I18nManager12set_language
FNDA:2,_RNvMs1_NtNtCs9nxHbwgHRMj_6rustdb6common4i18nNtB5_11I18nManager13load_messages
FNDA:2,_RNvMs1_NtNtCs9nxHbwgHRMj_6rustdb6common4i18nNtB5_11I18nManager16english_messages
FNDA:1,_RNvMs1_NtNtCs9nxHbwgHRMj_6rustdb6common4i18nNtB5_11I18nManager19supported_languages
FNDA:2,_RNvMs1_NtNtCs9nxHbwgHRMj_6rustdb6common4i18nNtB5_11I18nManager3new
FNDA:2,_RNvNtNtCs9nxHbwgHRMj_6rustdb6common4i18n12set_language
FNDA:2,_RNvNtNtCs9nxHbwgHRMj_6rustdb6common4i18n1t
FNDA:2,_RNvXs0_NtNtCs9nxHbwgHRMj_6rustdb6common4i18nNtB5_8LanguageNtNtNtCsixiwFwjEgS7_4core3str6traits7FromStr8from_str
FNDA:1,_RNvXs_NtNtCs9nxHbwgHRMj_6rustdb6common4i18nNtB4_8LanguageNtNtCsixiwFwjEgS7_4core3fmt7Display3fmt
FNF:28
FNH:17
DA:19,0
DA:20,0
DA:21,0
DA:25,1
DA:26,1
DA:27,1
DA:29,1
DA:35,2
DA:36,2
DA:37,2
DA:38,0
DA:40,2
DA:121,2
DA:122,2
DA:123,2
DA:124,2
DA:125,2
DA:128,2
DA:129,2
DA:130,2
DA:133,2
DA:134,2
DA:135,2
DA:136,2
DA:139,2
DA:140,2
DA:143,2
DA:144,2
DA:145,2
DA:146,2
DA:147,2
DA:148,2
DA:149,2
DA:152,2
DA:153,2
DA:154,2
DA:155,2
DA:156,2
DA:158,2
DA:159,2
DA:160,2
DA:161,2
DA:163,2
DA:164,2
DA:165,2
DA:166,2
DA:167,2
DA:168,2
DA:169,2
DA:171,2
DA:172,2
DA:173,2
DA:175,2
DA:176,2
DA:177,2
DA:179,2
DA:180,2
DA:181,2
DA:183,2
DA:186,2
DA:187,2
DA:188,2
DA:190,2
DA:191,2
DA:192,2
DA:194,2
DA:195,2
DA:196,2
DA:198,2
DA:199,2
DA:200,2
DA:202,2
DA:203,2
DA:204,2
DA:206,2
DA:207,2
DA:208,2
DA:212,2
DA:213,2
DA:214,2
DA:215,2
DA:216,2
DA:219,2
DA:220,2
DA:221,2
DA:222,2
DA:224,2
DA:225,2
DA:226,2
DA:228,2
DA:231,2
DA:232,2
DA:233,2
DA:234,2
DA:235,2
DA:236,2
DA:240,2
DA:241,2
DA:242,2
DA:243,2
DA:245,2
DA:246,2
DA:247,2
DA:249,2
DA:250,2
DA:253,2
DA:255,2
DA:256,2
DA:259,3
DA:260,3
DA:261,3
DA:262,3
DA:263,3
DA:266,4
DA:267,4
DA:268,4
DA:269,4
DA:272,4
DA:273,4
DA:274,4
DA:275,4
DA:276,4
DA:277,4
DA:278,4
DA:280,0
DA:281,0
DA:282,0
DA:283,0
DA:284,0
DA:285,0
DA:286,4
DA:289,0
DA:290,0
DA:293,0
DA:294,0
DA:295,0
DA:297,0
DA:298,0
DA:301,1
DA:302,1
DA:303,1
DA:306,0
DA:307,0
DA:308,0
DA:310,0
DA:314,0
DA:315,0
DA:316,0
DA:325,2
DA:326,2
DA:327,2
DA:330,0
DA:331,0
DA:332,0
DA:335,2
DA:336,2
DA:337,2
DA:340,0
DA:341,0
DA:342,0
DA:349,1
DA:350,1
DA:351,1
DA:352,1
DA:355,1
DA:356,1
DA:357,1
DA:360,1
DA:361,1
DA:364,1
DA:365,1
DA:366,1
DA:369,1
DA:370,1
DA:373,1
DA:375,1
DA:376,1
DA:377,1
DA:380,1
DA:381,1
DA:382,1
DA:383,1
DA:384,1
BRF:0
BRH:0
LF:189
LH:154
end_of_record
SF:C:\Users\Admin\RustProjects\RustBD\src\common\test_utils.rs
FN:128,_RINvMs2_NtNtCs9nxHbwgHRMj_6rustdb6common10test_utilsNtB6_11TestCleanup3addpEBa_
FN:38,_RNvMNtNtCs9nxHbwgHRMj_6rustdb6common10test_utilsNtB2_17TestDataGenerator10table_name
FN:43,_RNvMNtNtCs9nxHbwgHRMj_6rustdb6common10test_utilsNtB2_17TestDataGenerator11column_name
FN:33,_RNvMNtNtCs9nxHbwgHRMj_6rustdb6common10test_utilsNtB2_17TestDataGenerator14generate_bytes
FN:96,_RNvMs0_NtNtCs9nxHbwgHRMj_6rustdb6common10test_utilsNtB5_11MockStorage3len
FN:90,_RNvMs0_NtNtCs9nxHbwgHRMj_6rustdb6common10test_utilsNtB5_11MockStorage5clear
FN:102,_RNvMs0_NtNtCs9nxHbwgHRMj_6rustdb6common10test_utilsNtB5_11MockStorage8is_empty
FN:121,_RNvMs2_NtNtCs9nxHbwgHRMj_6rustdb6common10test_utilsNtB5_11TestCleanup3new
FN:136,_RNvMs2_NtNtCs9nxHbwgHRMj_6rustdb6common10test_utilsNtB5_11TestCleanup7cleanup
FN:109,_RNvXs1_NtNtCs9nxHbwgHRMj_6rustdb6common10test_utilsNtB5_11MockStorageNtNtCsixiwFwjEgS7_4core7default7Default7default
FN:144,_RNvXs3_NtNtCs9nxHbwgHRMj_6rustdb6common10test_utilsNtB5_11TestCleanupNtNtCsixiwFwjEgS7_4core7default7Default7default
FN:150,_RNvXs4_NtNtCs9nxHbwgHRMj_6rustdb6common10test_utilsNtB5_11TestCleanupNtNtNtCsixiwFwjEgS7_4core3ops4drop4Drop4drop
FN:191,_RNvXs6_NtNtCs9nxHbwgHRMj_6rustdb6common10test_utilsNtB5_11CallCounterNtNtCsixiwFwjEgS7_4core7default7Default7default
FN:49,_RNvXs_NtNtCs9nxHbwgHRMj_6rustdb6common10test_utilsNtB4_17TestDataGeneratorNtNtCsixiwFwjEgS7_4core7default7Default7default
FN:28,_RNvMNtNtCs9nxHbwgHRMj_6rustdb6common10test_utilsNtB2_17TestDataGenerator15generate_string
FN:14,_RNvMNtNtCs9nxHbwgHRMj_6rustdb6common10test_utilsNtB2_17TestDataGenerator3new
FN:21,_RNvMNtNtCs9nxHbwgHRMj_6rustdb6common10test_utilsNtB2_17TestDataGenerator7next_id
FN:61,_RNvMs0_NtNtCs9nxHbwgHRMj_6rustdb6common10test_utilsNtB5_11MockStorage3new
FN:75,_RNvMs0_NtNtCs9nxHbwgHRMj_6rustdb6common10test_utilsNtB5_11MockStorage4read
FN:68,_RNvMs0_NtNtCs9nxHbwgHRMj_6rustdb6common10test_utilsNtB5_11MockStorage5write
FN:83,_RNvMs0_NtNtCs9nxHbwgHRMj_6rustdb6common10test_utilsNtB5_11MockStorage6delete
FN:178,_RNvMs5_NtNtCs9nxHbwgHRMj_6rustdb6common10test_utilsNtB5_11CallCounter3get
FN:165,_RNvMs5_NtNtCs9nxHbwgHRMj_6rustdb6common10test_utilsNtB5_11CallCounter3new
FN:184,_RNvMs5_NtNtCs9nxHbwgHRMj_6rustdb6common10test_utilsNtB5_11CallCounter5reset
FN:172,_RNvMs5_NtNtCs9nxHbwgHRMj_6rustdb6common10test_utilsNtB5_11CallCounter9increment
FN:79,_RNCNvMs0_NtNtCs9nxHbwgHRMj_6rustdb6common10test_utilsNtB7_11MockStorage4read0Bb_
FN:241,_RNvNtNtNtCs9nxHbwgHRMj_6rustdb6common10test_utils5testss_17test_call_counter
FN:221,_RNvNtNtNtCs9nxHbwgHRMj_6rustdb6common10test_utils5testss_17test_mock_storage
FN:202,_RNvNtNtNtCs9nxHbwgHRMj_6rustdb6common10test_utils5testss_19test_data_generator
FN:252,_RNvNtNtNtCs9nxHbwgHRMj_6rustdb6common10test_utils5testss_23test_call_counter_reset
FN:263,_RNvNtNtNtCs9nxHbwgHRMj_6rustdb6common10test_utils5testss_23test_i18n_in_test_utils
FN:231,_RNvNtNtNtCs9nxHbwgHRMj_6rustdb6common10test_utils5testss_24test_mock_storage_delete
FN:213,_RNvNtNtNtCs9nxHbwgHRMj_6rustdb6common10test_utils5testss_26test_data_generator_string
FNDA:0,_RINvMs2_NtNtCs9nxHbwgHRMj_6rustdb6common10test_utilsNtB6_11TestCleanup3addpEBa_
FNDA:0,_RNvMNtNtCs9nxHbwgHRMj_6rustdb6common10test_utilsNtB2_17TestDataGenerator10table_name
FNDA:0,_RNvMNtNtCs9nxHbwgHRMj_6rustdb6common10test_utilsNtB2_17TestDataGenerator11column_name
FNDA:0,_RNvMNtNtCs9nxHbwgHRMj_6rustdb6common10test_utilsNtB2_17TestDataGenerator14generate_bytes
FNDA:0,_RNvMs0_NtNtCs9nxHbwgHRMj_6rustdb6common10test_utilsNtB5_11MockStorage3len
FNDA:0,_RNvMs0_NtNtCs9nxHbwgHRMj_6rustdb6common10test_utilsNtB5_11MockStorage5clear
FNDA:0,_RNvMs0_NtNtCs9nxHbwgHRMj_6rustdb6common10test_utilsNtB5_11MockStorage8is_empty
FNDA:0,_RNvMs2_NtNtCs9nxHbwgHRMj_6rustdb6common10test_utilsNtB5_11TestCleanup3new
FNDA:0,_RNvMs2_NtNtCs9nxHbwgHRMj_6rustdb6common10test_utilsNtB5_11TestCleanup7cleanup
FNDA:0,_RNvXs1_NtNtCs9nxHbwgHRMj_6rustdb6common10test_utilsNtB5_11MockStorageNtNtCsixiwFwjEgS7_4core7default7Default7default
FNDA:0,_RNvXs3_NtNtCs9nxHbwgHRMj_6rustdb6common10test_utilsNtB5_11TestCleanupNtNtCsixiwFwjEgS7_4core7default7Default7default
FNDA:0,_RNvXs4_NtNtCs9nxHbwgHRMj_6rustdb6common10test_utilsNtB5_11TestCleanupNtNtNtCsixiwFwjEgS7_4core3ops4drop4Drop4drop
FNDA:0,_RNvXs6_NtNtCs9nxHbwgHRMj_6rustdb6common10test_utilsNtB5_11CallCounterNtNtCsixiwFwjEgS7_4core7default7Default7default
FNDA:0,_RNvXs_NtNtCs9nxHbwgHRMj_6rustdb6common10test_utilsNtB4_17TestDataGeneratorNtNtCsixiwFwjEgS7_4core7default7Default7default
FNDA:1,_RNvMNtNtCs9nxHbwgHRMj_6rustdb6common10test_utilsNtB2_17TestDataGenerator15generate_string
FNDA:2,_RNvMNtNtCs9nxHbwgHRMj_6rustdb6common10test_utilsNtB2_17TestDataGenerator3new
FNDA:2,_RNvMNtNtCs9nxHbwgHRMj_6rustdb6common10test_utilsNtB2_17TestDataGenerator7next_id
FNDA:2,_RNvMs0_NtNtCs9nxHbwgHRMj_6rustdb6common10test_utilsNtB5_11MockStorage3new
FNDA:2,_RNvMs0_NtNtCs9nxHbwgHRMj_6rustdb6common10test_utilsNtB5_11MockStorage4read
FNDA:2,_RNvMs0_NtNtCs9nxHbwgHRMj_6rustdb6common10test_utilsNtB5_11MockStorage5write
FNDA:1,_RNvMs0_NtNtCs9nxHbwgHRMj_6rustdb6common10test_utilsNtB5_11MockStorage6delete
FNDA:2,_RNvMs5_NtNtCs9nxHbwgHRMj_6rustdb6common10test_utilsNtB5_11CallCounter3get
FNDA:2,_RNvMs5_NtNtCs9nxHbwgHRMj_6rustdb6common10test_utilsNtB5_11CallCounter3new
FNDA:1,_RNvMs5_NtNtCs9nxHbwgHRMj_6rustdb6common10test_utilsNtB5_11CallCounter5reset
FNDA:5,_RNvMs5_NtNtCs9nxHbwgHRMj_6rustdb6common10test_utilsNtB5_11CallCounter9increment
FNDA:1,_RNCNvMs0_NtNtCs9nxHbwgHRMj_6rustdb6common10test_utilsNtB7_11MockStorage4read0Bb_
FNDA:1,_RNvNtNtNtCs9nxHbwgHRMj_6rustdb6common10test_utils5testss_17test_call_counter
FNDA:1,_RNvNtNtNtCs9nxHbwgHRMj_6rustdb6common10test_utils5testss_17test_mock_storage
FNDA:1,_RNvNtNtNtCs9nxHbwgHRMj_6rustdb6common10test_utils5testss_19test_data_generator
FNDA:1,_RNvNtNtNtCs9nxHbwgHRMj_6rustdb6common10test_utils5testss_23test_call_counter_reset
FNDA:1,_RNvNtNtNtCs9nxHbwgHRMj_6rustdb6common10test_utils5testss_23test_i18n_in_test_utils
FNDA:1,_RNvNtNtNtCs9nxHbwgHRMj_6rustdb6common10test_utils5testss_24test_mock_storage_delete
FNDA:1,_RNvNtNtNtCs9nxHbwgHRMj_6rustdb6common10test_utils5testss_26test_data_generator_string
FNF:33
FNH:19
DA:14,2
DA:15,2
DA:16,2
DA:17,2
DA:18,2
DA:21,2
DA:22,2
DA:23,2
DA:24,2
DA:25,2
DA:28,1
DA:29,1
DA:30,1
DA:33,0
DA:34,0
DA:35,0
DA:38,0
DA:39,0
DA:40,0
DA:43,0
DA:44,0
DA:45,0
DA:49,0
DA:50,0
DA:51,0
DA:61,2
DA:62,2
DA:63,2
DA:64,2
DA:65,2
DA:68,2
DA:69,2
DA:70,2
DA:71,2
DA:72,2
DA:75,2
DA:76,2
DA:77,2
DA:78,2
DA:79,2
DA:80,2
DA:83,1
DA:84,1
DA:85,1
DA:86,1
DA:87,1
DA:90,0
DA:91,0
DA:92,0
DA:93,0
DA:96,0
DA:97,0
DA:98,0
DA:99,0
DA:102,0
DA:103,0
DA:104,0
DA:105,0
DA:109,0
DA:110,0
DA:111,0
DA:121,0
DA:122,0
DA:123,0
DA:124,0
DA:125,0
DA:128,0
DA:129,0
DA:130,0
DA:132,0
DA:133,0
DA:136,0
DA:137,0
DA:138,0
DA:139,0
DA:140,0
DA:144,0
DA:145,0
DA:146,0
DA:150,0
DA:152,0
DA:153,0
DA:154,0
DA:155,0
DA:165,2
DA:166,2
DA:167,2
DA:168,2
DA:169,2
DA:172,5
DA:173,5
DA:174,5
DA:175,5
DA:178,2
DA:179,2
DA:180,2
DA:181,2
DA:184,1
DA:185,1
DA:186,1
DA:187,1
DA:191,0
DA:192,0
DA:193,0
DA:202,1
DA:203,1
DA:205,1
DA:206,1
DA:208,1
DA:209,1
DA:210,1
DA:213,1
DA:214,1
DA:215,1
DA:217,1
DA:218,1
DA:221,1
DA:222,1
DA:224,1
DA:225,1
DA:227,1
DA:228,1
DA:231,1
DA:232,1
DA:234,1
DA:235,1
DA:237,1
DA:238,1
DA:241,1
DA:242,1
DA:244,1
DA:245,1
DA:246,1
DA:248,1
DA:249,1
DA:252,1
DA:253,1
DA:255,1
DA:256,1
DA:257,1
DA:259,1
DA:260,1
DA:263,1
DA:265,1
DA:266,1
DA:267,1
BRF:0
BRH:0
LF:147
LH:94
end_of_record
SF:C:\Users\Admin\RustProjects\RustBD\src\common\types.rs
FN:93,_RNvMNtNtCsioRnW7FrYT6_6rustdb6common5typesNtB2_8DataType10is_numeric
FN:67,_RNvMNtNtCsioRnW7FrYT6_6rustdb6common5typesNtB2_8DataType4size
FN:88,_RNvMNtNtCsioRnW7FrYT6_6rustdb6common5typesNtB2_8DataType7is_null
FN:106,_RNvMNtNtCsioRnW7FrYT6_6rustdb6common5typesNtB2_8DataType9is_string
FN:178,_RNvMs0_NtNtCsioRnW7FrYT6_6rustdb6common5typesNtB5_6Column13default_value
FN:161,_RNvMs0_NtNtCsioRnW7FrYT6_6rustdb6common5typesNtB5_6Column3new
FN:184,_RNvMs0_NtNtCsioRnW7FrYT6_6rustdb6common5typesNtB5_6Column7comment
FN:172,_RNvMs0_NtNtCsioRnW7FrYT6_6rustdb6common5typesNtB5_6Column8not_null
FN:221,_RNvMs1_NtNtCsioRnW7FrYT6_6rustdb6common5typesNtB5_6Schema10add_column
FN:239,_RNvMs1_NtNtCsioRnW7FrYT6_6rustdb6common5typesNtB5_6Schema11foreign_key
FN:227,_RNvMs1_NtNtCsioRnW7FrYT6_6rustdb6common5typesNtB5_6Schema11primary_key
FN:209,_RNvMs1_NtNtCsioRnW7FrYT6_6rustdb6common5typesNtB5_6Schema3new
FN:245,_RNvMs1_NtNtCsioRnW7FrYT6_6rustdb6common5typesNtB5_6Schema5index
FN:233,_RNvMs1_NtNtCsioRnW7FrYT6_6rustdb6common5typesNtB5_6Schema6unique
FN:351,_RNvMs2_NtNtCsioRnW7FrYT6_6rustdb6common5typesNtB5_3Row10has_column
FN:322,_RNvMs2_NtNtCsioRnW7FrYT6_6rustdb6common5typesNtB5_3Row3new
FN:346,_RNvMs2_NtNtCsioRnW7FrYT6_6rustdb6common5typesNtB5_3Row9get_value
FN:337,_RNvMs2_NtNtCsioRnW7FrYT6_6rustdb6common5typesNtB5_3Row9set_value
FN:125,_RNvMs_NtNtCsioRnW7FrYT6_6rustdb6common5typesNtB4_11ColumnValue3new
FN:131,_RNvMs_NtNtCsioRnW7FrYT6_6rustdb6common5typesNtB4_11ColumnValue4null
FN:139,_RNvMs_NtNtCsioRnW7FrYT6_6rustdb6common5typesNtB4_11ColumnValue7is_null
FN:93,_RNvMNtNtCs9nxHbwgHRMj_6rustdb6common5typesNtB2_8DataType10is_numeric
FN:67,_RNvMNtNtCs9nxHbwgHRMj_6rustdb6common5typesNtB2_8DataType4size
FN:106,_RNvMNtNtCs9nxHbwgHRMj_6rustdb6common5typesNtB2_8DataType9is_string
FN:178,_RNvMs0_NtNtCs9nxHbwgHRMj_6rustdb6common5typesNtB5_6Column13default_value
FN:184,_RNvMs0_NtNtCs9nxHbwgHRMj_6rustdb6common5typesNtB5_6Column7comment
FN:239,_RNvMs1_NtNtCs9nxHbwgHRMj_6rustdb6common5typesNtB5_6Schema11foreign_key
FN:233,_RNvMs1_NtNtCs9nxHbwgHRMj_6rustdb6common5typesNtB5_6Schema6unique
FN:351,_RNvMs2_NtNtCs9nxHbwgHRMj_6rustdb6common5typesNtB5_3Row10has_column
FN:322,_RNvMs2_NtNtCs9nxHbwgHRMj_6rustdb6common5typesNtB5_3Row3new
FN:346,_RNvMs2_NtNtCs9nxHbwgHRMj_6rustdb6common5typesNtB5_3Row9get_value
FN:337,_RNvMs2_NtNtCs9nxHbwgHRMj_6rustdb6common5typesNtB5_3Row9set_value
FN:131,_RNvMs_NtNtCs9nxHbwgHRMj_6rustdb6common5typesNtB4_11ColumnValue4null
FN:88,_RNvMNtNtCs9nxHbwgHRMj_6rustdb6common5typesNtB2_8DataType7is_null
FN:161,_RNvMs0_NtNtCs9nxHbwgHRMj_6rustdb6common5typesNtB5_6Column3new
FN:172,_RNvMs0_NtNtCs9nxHbwgHRMj_6rustdb6common5typesNtB5_6Column8not_null
FN:221,_RNvMs1_NtNtCs9nxHbwgHRMj_6rustdb6common5typesNtB5_6Schema10add_column
FN:227,_RNvMs1_NtNtCs9nxHbwgHRMj_6rustdb6common5typesNtB5_6Schema11primary_key
FN:209,_RNvMs1_NtNtCs9nxHbwgHRMj_6rustdb6common5typesNtB5_6Schema3new
FN:245,_RNvMs1_NtNtCs9nxHbwgHRMj_6rustdb6common5typesNtB5_6Schema5index
FN:125,_RNvMs_NtNtCs9nxHbwgHRMj_6rustdb6common5typesNtB4_11ColumnValue3new
FN:139,_RNvMs_NtNtCs9nxHbwgHRMj_6rustdb6common5typesNtB4_11ColumnValue7is_null
FNDA:0,_RNvMNtNtCsioRnW7FrYT6_6rustdb6common5typesNtB2_8DataType10is_numeric
FNDA:0,_RNvMNtNtCsioRnW7FrYT6_6rustdb6common5typesNtB2_8DataType4size
FNDA:521176,_RNvMNtNtCsioRnW7FrYT6_6rustdb6common5typesNtB2_8DataType7is_null
FNDA:0,_RNvMNtNtCsioRnW7FrYT6_6rustdb6common5typesNtB2_8DataType9is_string
FNDA:0,_RNvMs0_NtNtCsioRnW7FrYT6_6rustdb6common5typesNtB5_6Column13default_value
FNDA:0,_RNvMs0_NtNtCsioRnW7FrYT6_6rustdb6common5typesNtB5_6Column3new
FNDA:0,_RNvMs0_NtNtCsioRnW7FrYT6_6rustdb6common5typesNtB5_6Column7comment
FNDA:0,_RNvMs0_NtNtCsioRnW7FrYT6_6rustdb6common5typesNtB5_6Column8not_null
FNDA:0,_RNvMs1_NtNtCsioRnW7FrYT6_6rustdb6common5typesNtB5_6Schema10add_column
FNDA:0,_RNvMs1_NtNtCsioRnW7FrYT6_6rustdb6common5typesNtB5_6Schema11foreign_key
FNDA:0,_RNvMs1_NtNtCsioRnW7FrYT6_6rustdb6common5typesNtB5_6Schema11primary_key
FNDA:0,_RNvMs1_NtNtCsioRnW7FrYT6_6rustdb6common5typesNtB5_6Schema3new
FNDA:0,_RNvMs1_NtNtCsioRnW7FrYT6_6rustdb6common5typesNtB5_6Schema5index
FNDA:0,_RNvMs1_NtNtCsioRnW7FrYT6_6rustdb6common5typesNtB5_6Schema6unique
FNDA:0,_RNvMs2_NtNtCsioRnW7FrYT6_6rustdb6common5typesNtB5_3Row10has_column
FNDA:0,_RNvMs2_NtNtCsioRnW7FrYT6_6rustdb6common5typesNtB5_3Row3new
FNDA:0,_RNvMs2_NtNtCsioRnW7FrYT6_6rustdb6common5typesNtB5_3Row9get_value
FNDA:0,_RNvMs2_NtNtCsioRnW7FrYT6_6rustdb6common5typesNtB5_3Row9set_value
FNDA:521176,_RNvMs_NtNtCsioRnW7FrYT6_6rustdb6common5typesNtB4_11ColumnValue3new
FNDA:0,_RNvMs_NtNtCsioRnW7FrYT6_6rustdb6common5typesNtB4_11ColumnValue4null
FNDA:0,_RNvMs_NtNtCsioRnW7FrYT6_6rustdb6common5typesNtB4_11ColumnValue7is_null
FNDA:0,_RNvMNtNtCs9nxHbwgHRMj_6rustdb6common5typesNtB2_8DataType10is_numeric
FNDA:0,_RNvMNtNtCs9nxHbwgHRMj_6rustdb6common5typesNtB2_8DataType4size
FNDA:0,_RNvMNtNtCs9nxHbwgHRMj_6rustdb6common5typesNtB2_8DataType9is_string
FNDA:0,_RNvMs0_NtNtCs9nxHbwgHRMj_6rustdb6common5typesNtB5_6Column13default_value
FNDA:0,_RNvMs0_NtNtCs9nxHbwgHRMj_6rustdb6common5typesNtB5_6Column7comment
FNDA:0,_RNvMs1_NtNtCs9nxHbwgHRMj_6rustdb6common5typesNtB5_6Schema11foreign_key
FNDA:0,_RNvMs1_NtNtCs9nxHbwgHRMj_6rustdb6common5typesNtB5_6Schema6unique
FNDA:0,_RNvMs2_NtNtCs9nxHbwgHRMj_6rustdb6common5typesNtB5_3Row10has_column
FNDA:0,_RNvMs2_NtNtCs9nxHbwgHRMj_6rustdb6common5typesNtB5_3Row3new
FNDA:0,_RNvMs2_NtNtCs9nxHbwgHRMj_6rustdb6common5typesNtB5_3Row9get_value
FNDA:0,_RNvMs2_NtNtCs9nxHbwgHRMj_6rustdb6common5typesNtB5_3Row9set_value
FNDA:0,_RNvMs_NtNtCs9nxHbwgHRMj_6rustdb6common5typesNtB4_11ColumnValue4null
FNDA:4,_RNvMNtNtCs9nxHbwgHRMj_6rustdb6common5typesNtB2_8DataType7is_null
FNDA:4,_RNvMs0_NtNtCs9nxHbwgHRMj_6rustdb6common5typesNtB5_6Column3new
FNDA:1,_RNvMs0_NtNtCs9nxHbwgHRMj_6rustdb6common5typesNtB5_6Column8not_null
FNDA:4,_RNvMs1_NtNtCs9nxHbwgHRMj_6rustdb6common5typesNtB5_6Schema10add_column
FNDA:0,_RNvMs1_NtNtCs9nxHbwgHRMj_6rustdb6common5typesNtB5_6Schema11primary_key
FNDA:9,_RNvMs1_NtNtCs9nxHbwgHRMj_6rustdb6common5typesNtB5_6Schema3new
FNDA:0,_RNvMs1_NtNtCs9nxHbwgHRMj_6rustdb6common5typesNtB5_6Schema5index
FNDA:4,_RNvMs_NtNtCs9nxHbwgHRMj_6rustdb6common5typesNtB4_11ColumnValue3new
FNDA:1,_RNvMs_NtNtCs9nxHbwgHRMj_6rustdb6common5typesNtB4_11ColumnValue7is_null
FNF:21
FNH:7
DA:67,0
DA:68,0
DA:69,0
DA:70,0
DA:71,0
DA:72,0
DA:73,0
DA:74,0
DA:75,0
DA:76,0
DA:77,0
DA:78,0
DA:79,0
DA:80,0
DA:81,0
DA:82,0
DA:83,0
DA:85,0
DA:88,521180
DA:89,521180
DA:90,521180
DA:93,0
DA:94,0
DA:95,0
DA:103,0
DA:106,0
DA:107,0
DA:108,0
DA:111,0
DA:125,521180
DA:126,521180
DA:127,521180
DA:128,521180
DA:131,0
DA:132,0
DA:133,0
DA:134,0
DA:135,0
DA:136,0
DA:139,1
DA:140,1
DA:141,1
DA:161,4
DA:162,4
DA:163,4
DA:164,4
DA:165,4
DA:166,4
DA:167,4
DA:168,4
DA:169,4
DA:172,1
DA:173,1
DA:174,1
DA:175,1
DA:178,0
DA:179,0
DA:180,0
DA:181,0
DA:184,0
DA:185,0
DA:186,0
DA:187,0
DA:209,9
DA:210,9
DA:211,9
DA:212,9
DA:213,9
DA:214,9
DA:215,9
DA:216,9
DA:217,9
DA:218,9
DA:221,4
DA:222,4
DA:223,4
DA:224,4
DA:227,0
DA:228,0
DA:229,0
DA:230,0
DA:233,0
DA:234,0
DA:235,0
DA:236,0
DA:239,0
DA:240,0
DA:241,0
DA:242,0
DA:245,0
DA:246,0
DA:247,0
DA:248,0
DA:322,0
DA:323,0
DA:324,0
DA:325,0
DA:326,0
DA:328,0
DA:329,0
DA:330,0
DA:331,0
DA:332,0
DA:333,0
DA:334,0
DA:337,0
DA:338,0
DA:339,0
DA:340,0
DA:341,0
DA:342,0
DA:343,0
DA:346,0
DA:347,0
DA:348,0
DA:351,0
DA:352,0
DA:353,0
BRF:0
BRH:0
LF:118
LH:37
end_of_record
SF:C:\Users\Admin\RustProjects\RustBD\src\common\utils.rs
FN:61,_RNCNvNtNtCsioRnW7FrYT6_6rustdb6common5utils19is_valid_index_name0B7_
FN:31,_RNCNvNtNtCsioRnW7FrYT6_6rustdb6common5utils19is_valid_table_name0B7_
FN:46,_RNCNvNtNtCsioRnW7FrYT6_6rustdb6common5utils20is_valid_column_name0B7_
FN:8,_RINvNtNtCsioRnW7FrYT6_6rustdb6common5utils14calculate_hashpEB6_
FN:8,_RINvNtNtCs9nxHbwgHRMj_6rustdb6common5utils14calculate_hashpEB6_
FN:61,_RNCNvNtNtCs9nxHbwgHRMj_6rustdb6common5utils19is_valid_index_name0B7_
FN:102,_RNvNtNtCs9nxHbwgHRMj_6rustdb6common5utils17should_split_page
FN:15,_RNvNtNtCs9nxHbwgHRMj_6rustdb6common5utils18is_valid_page_size
FN:108,_RNvNtNtCs9nxHbwgHRMj_6rustdb6common5utils18should_merge_pages
FN:50,_RNvNtNtCs9nxHbwgHRMj_6rustdb6common5utils19is_valid_index_name
FN:80,_RNvNtNtCs9nxHbwgHRMj_6rustdb6common5utils22calculate_pages_needed
FN:144,_RNvNtNtCs9nxHbwgHRMj_6rustdb6common5utils24should_expand_hash_table
FN:150,_RNvNtNtCs9nxHbwgHRMj_6rustdb6common5utils24should_shrink_hash_table
FN:90,_RNvNtNtCs9nxHbwgHRMj_6rustdb6common5utils27calculate_optimal_page_size
FN:114,_RNvNtNtCs9nxHbwgHRMj_6rustdb6common5utils29calculate_optimal_btree_order
FN:129,_RNvNtNtCs9nxHbwgHRMj_6rustdb6common5utils33calculate_optimal_hash_table_size
FN:31,_RNCNvNtNtCs9nxHbwgHRMj_6rustdb6common5utils19is_valid_table_name0B7_
FN:46,_RNCNvNtNtCs9nxHbwgHRMj_6rustdb6common5utils20is_valid_column_name0B7_
FN:156,_RNvNtNtCs9nxHbwgHRMj_6rustdb6common5utils12format_bytes
FN:175,_RNvNtNtCs9nxHbwgHRMj_6rustdb6common5utils15format_duration
FN:198,_RNvNtNtCs9nxHbwgHRMj_6rustdb6common5utils15is_power_of_two
FN:203,_RNvNtNtCs9nxHbwgHRMj_6rustdb6common5utils17next_power_of_two
FN:216,_RNvNtNtCs9nxHbwgHRMj_6rustdb6common5utils17prev_power_of_two
FN:20,_RNvNtNtCs9nxHbwgHRMj_6rustdb6common5utils19is_valid_table_name
FN:35,_RNvNtNtCs9nxHbwgHRMj_6rustdb6common5utils20is_valid_column_name
FN:75,_RNvNtNtCs9nxHbwgHRMj_6rustdb6common5utils22can_fit_record_on_page
FN:70,_RNvNtNtCs9nxHbwgHRMj_6rustdb6common5utils25calculate_max_record_size
FN:65,_RNvNtNtCs9nxHbwgHRMj_6rustdb6common5utils26calculate_page_header_size
FN:302,_RNvNtNtNtCs9nxHbwgHRMj_6rustdb6common5utils5testss_17test_format_bytes
FN:309,_RNvNtNtNtCs9nxHbwgHRMj_6rustdb6common5utils5testss_20test_format_duration
FN:271,_RNvNtNtNtCs9nxHbwgHRMj_6rustdb6common5utils5testss_20test_is_power_of_two
FN:282,_RNvNtNtNtCs9nxHbwgHRMj_6rustdb6common5utils5testss_22test_next_power_of_two
FN:292,_RNvNtNtNtCs9nxHbwgHRMj_6rustdb6common5utils5testss_22test_prev_power_of_two
FN:233,_RNvNtNtNtCs9nxHbwgHRMj_6rustdb6common5utils5testss_24test_is_valid_table_name
FN:243,_RNvNtNtNtCs9nxHbwgHRMj_6rustdb6common5utils5testss_25test_is_valid_column_name
FN:265,_RNvNtNtNtCs9nxHbwgHRMj_6rustdb6common5utils5testss_27test_can_fit_record_on_page
FN:259,_RNvNtNtNtCs9nxHbwgHRMj_6rustdb6common5utils5testss_30test_calculate_max_record_size
FN:253,_RNvNtNtNtCs9nxHbwgHRMj_6rustdb6common5utils5testss_31test_calculate_page_header_size
FNDA:0,_RNCNvNtNtCsioRnW7FrYT6_6rustdb6common5utils19is_valid_index_name0B7_
FNDA:0,_RNCNvNtNtCsioRnW7FrYT6_6rustdb6common5utils19is_valid_table_name0B7_
FNDA:0,_RNCNvNtNtCsioRnW7FrYT6_6rustdb6common5utils20is_valid_column_name0B7_
FNDA:0,_RINvNtNtCsioRnW7FrYT6_6rustdb6common5utils14calculate_hashpEB6_
FNDA:0,_RINvNtNtCs9nxHbwgHRMj_6rustdb6common5utils14calculate_hashpEB6_
FNDA:0,_RNCNvNtNtCs9nxHbwgHRMj_6rustdb6common5utils19is_valid_index_name0B7_
FNDA:0,_RNvNtNtCs9nxHbwgHRMj_6rustdb6common5utils17should_split_page
FNDA:0,_RNvNtNtCs9nxHbwgHRMj_6rustdb6common5utils18is_valid_page_size
FNDA:0,_RNvNtNtCs9nxHbwgHRMj_6rustdb6common5utils18should_merge_pages
FNDA:0,_RNvNtNtCs9nxHbwgHRMj_6rustdb6common5utils19is_valid_index_name
FNDA:0,_RNvNtNtCs9nxHbwgHRMj_6rustdb6common5utils22calculate_pages_needed
FNDA:0,_RNvNtNtCs9nxHbwgHRMj_6rustdb6common5utils24should_expand_hash_table
FNDA:0,_RNvNtNtCs9nxHbwgHRMj_6rustdb6common5utils24should_shrink_hash_table
FNDA:0,_RNvNtNtCs9nxHbwgHRMj_6rustdb6common5utils27calculate_optimal_page_size
FNDA:0,_RNvNtNtCs9nxHbwgHRMj_6rustdb6common5utils29calculate_optimal_btree_order
FNDA:0,_RNvNtNtCs9nxHbwgHRMj_6rustdb6common5utils33calculate_optimal_hash_table_size
FNDA:29,_RNCNvNtNtCs9nxHbwgHRMj_6rustdb6common5utils19is_valid_table_name0B7_
FNDA:25,_RNCNvNtNtCs9nxHbwgHRMj_6rustdb6common5utils20is_valid_column_name0B7_
FNDA:3,_RNvNtNtCs9nxHbwgHRMj_6rustdb6common5utils12format_bytes
FNDA:4,_RNvNtNtCs9nxHbwgHRMj_6rustdb6common5utils15format_duration
FNDA:7,_RNvNtNtCs9nxHbwgHRMj_6rustdb6common5utils15is_power_of_two
FNDA:6,_RNvNtNtCs9nxHbwgHRMj_6rustdb6common5utils17next_power_of_two
FNDA:6,_RNvNtNtCs9nxHbwgHRMj_6rustdb6common5utils17prev_power_of_two
FNDA:6,_RNvNtNtCs9nxHbwgHRMj_6rustdb6common5utils19is_valid_table_name
FNDA:6,_RNvNtNtCs9nxHbwgHRMj_6rustdb6common5utils20is_valid_column_name
FNDA:2,_RNvNtNtCs9nxHbwgHRMj_6rustdb6common5utils22can_fit_record_on_page
FNDA:4,_RNvNtNtCs9nxHbwgHRMj_6rustdb6common5utils25calculate_max_record_size
FNDA:6,_RNvNtNtCs9nxHbwgHRMj_6rustdb6common5utils26calculate_page_header_size
FNDA:1,_RNvNtNtNtCs9nxHbwgHRMj_6rustdb6common5utils5testss_17test_format_bytes
FNDA:1,_RNvNtNtNtCs9nxHbwgHRMj_6rustdb6common5utils5testss_20test_format_duration
FNDA:1,_RNvNtNtNtCs9nxHbwgHRMj_6rustdb6common5utils5testss_20test_is_power_of_two
FNDA:1,_RNvNtNtNtCs9nxHbwgHRMj_6rustdb6common5utils5testss_22test_next_power_of_two
FNDA:1,_RNvNtNtNtCs9nxHbwgHRMj_6rustdb6common5utils5testss_22test_prev_power_of_two
FNDA:1,_RNvNtNtNtCs9nxHbwgHRMj_6rustdb6common5utils5testss_24test_is_valid_table_name
FNDA:1,_RNvNtNtNtCs9nxHbwgHRMj_6rustdb6common5utils5testss_25test_is_valid_column_name
FNDA:1,_RNvNtNtNtCs9nxHbwgHRMj_6rustdb6common5utils5testss_27test_can_fit_record_on_page
FNDA:1,_RNvNtNtNtCs9nxHbwgHRMj_6rustdb6common5utils5testss_30test_calculate_max_record_size
FNDA:1,_RNvNtNtNtCs9nxHbwgHRMj_6rustdb6common5utils5testss_31test_calculate_page_header_size
FNF:34
FNH:22
DA:8,0
DA:9,0
DA:10,0
DA:11,0
DA:12,0
DA:15,0
DA:16,0
DA:17,0
DA:20,6
DA:21,6
DA:22,1
DA:23,5
DA:26,5
DA:27,1
DA:28,4
DA:31,29
DA:32,6
DA:35,6
DA:36,6
DA:37,1
DA:38,5
DA:41,5
DA:42,1
DA:43,4
DA:46,25
DA:47,6
DA:50,0
DA:51,0
DA:52,0
DA:53,0
DA:56,0
DA:57,0
DA:58,0
DA:61,0
DA:62,0
DA:65,6
DA:66,6
DA:67,6
DA:70,4
DA:71,4
DA:72,4
DA:75,2
DA:76,2
DA:77,2
DA:80,0
DA:81,0
DA:82,0
DA:83,0
DA:84,0
DA:86,0
DA:87,0
DA:90,0
DA:91,0
DA:92,0
DA:93,0
DA:94,0
DA:98,0
DA:99,0
DA:102,0
DA:103,0
DA:104,0
DA:105,0
DA:108,0
DA:109,0
DA:110,0
DA:111,0
DA:114,0
DA:115,0
DA:116,0
DA:117,0
DA:121,0
DA:122,0
DA:125,0
DA:126,0
DA:129,0
DA:130,0
DA:131,0
DA:134,0
DA:135,0
DA:136,0
DA:137,0
DA:140,0
DA:141,0
DA:144,0
DA:145,0
DA:146,0
DA:147,0
DA:150,0
DA:151,0
DA:152,0
DA:153,0
DA:156,3
DA:159,3
DA:160,3
DA:162,6
DA:163,3
DA:164,3
DA:165,3
DA:167,3
DA:168,1
DA:170,2
DA:172,3
DA:175,4
DA:176,4
DA:177,1
DA:178,3
DA:179,1
DA:180,1
DA:181,1
DA:182,0
DA:184,1
DA:187,2
DA:188,2
DA:189,2
DA:190,1
DA:192,1
DA:195,4
DA:198,7
DA:199,7
DA:200,7
DA:203,6
DA:204,6
DA:205,1
DA:206,5
DA:208,5
DA:209,14
DA:210,9
DA:211,9
DA:212,5
DA:213,6
DA:216,6
DA:217,6
DA:218,1
DA:219,5
DA:221,5
DA:222,12
DA:223,7
DA:224,7
DA:225,5
DA:226,6
DA:233,1
DA:234,1
DA:235,1
DA:236,1
DA:237,1
DA:238,1
DA:239,1
DA:240,1
DA:243,1
DA:244,1
DA:245,1
DA:246,1
DA:247,1
DA:248,1
DA:249,1
DA:250,1
DA:253,1
DA:254,1
DA:255,1
DA:256,1
DA:259,1
DA:260,1
DA:261,1
DA:262,1
DA:265,1
DA:266,1
DA:267,1
DA:268,1
DA:271,1
DA:272,1
DA:273,1
DA:274,1
DA:275,1
DA:276,1
DA:277,1
DA:278,1
DA:279,1
DA:282,1
DA:283,1
DA:284,1
DA:285,1
DA:286,1
DA:287,1
DA:288,1
DA:289,1
DA:292,1
DA:293,1
DA:294,1
DA:295,1
DA:296,1
DA:297,1
DA:298,1
DA:299,1
DA:302,1
DA:303,1
DA:304,1
DA:305,1
DA:306,1
DA:309,1
DA:310,1
DA:311,1
DA:312,1
DA:313,1
DA:314,1
BRF:0
BRH:0
LF:207
LH:141
end_of_record
SF:C:\Users\Admin\RustProjects\RustBD\src\core\acid_manager.rs
FN:297,_RNvMs0_NtNtCsioRnW7FrYT6_6rustdb4core12acid_managerNtB5_11AcidManager11read_record
FN:232,_RNvMs0_NtNtCsioRnW7FrYT6_6rustdb4core12acid_managerNtB5_11AcidManager12acquire_lock
FN:278,_RNvMs0_NtNtCsioRnW7FrYT6_6rustdb4core12acid_managerNtB5_11AcidManager12release_lock
FN:326,_RNvMs0_NtNtCsioRnW7FrYT6_6rustdb4core12acid_managerNtB5_11AcidManager12write_record
FN:581,_RNvMs0_NtNtCsioRnW7FrYT6_6rustdb4core12acid_managerNtB5_11AcidManager14get_statistics
FN:432,_RNvMs0_NtNtCsioRnW7FrYT6_6rustdb4core12acid_managerNtB5_11AcidManager16remove_wait_edge
FN:203,_RNvMs0_NtNtCsioRnW7FrYT6_6rustdb4core12acid_managerNtB5_11AcidManager17abort_transaction
FN:143,_RNvMs0_NtNtCsioRnW7FrYT6_6rustdb4core12acid_managerNtB5_11AcidManager17begin_transaction
FN:169,_RNvMs0_NtNtCsioRnW7FrYT6_6rustdb4core12acid_managerNtB5_11AcidManager18commit_transaction
FN:527,_RNvMs0_NtNtCsioRnW7FrYT6_6rustdb4core12acid_managerNtB5_11AcidManager20get_transaction_info
FN:493,_RNvMs0_NtNtCsioRnW7FrYT6_6rustdb4core12acid_managerNtB5_11AcidManager21read_committed_record
FN:499,_RNvMs0_NtNtCsioRnW7FrYT6_6rustdb4core12acid_managerNtB5_11AcidManager22read_repeatable_record
FN:487,_RNvMs0_NtNtCsioRnW7FrYT6_6rustdb4core12acid_managerNtB5_11AcidManager23read_uncommitted_record
FN:549,_RNvMs0_NtNtCsioRnW7FrYT6_6rustdb4core12acid_managerNtB5_11AcidManager23remove_transaction_lock
FN:510,_RNvMs0_NtNtCsioRnW7FrYT6_6rustdb4core12acid_managerNtB5_11AcidManager24read_serializable_record
FN:562,_RNvMs0_NtNtCsioRnW7FrYT6_6rustdb4core12acid_managerNtB5_11AcidManager30update_transaction_dirty_pages
FN:123,_RNvMs0_NtNtCsioRnW7FrYT6_6rustdb4core12acid_managerNtB5_11AcidManager3new
FN:69,_RNvXs_NtNtCsioRnW7FrYT6_6rustdb4core12acid_managerNtB4_10AcidConfigNtNtCsixiwFwjEgS7_4core7default7Default7default
FN:572,_RNvMs0_NtNtCsioRnW7FrYT6_6rustdb4core12acid_managerNtB5_11AcidManager12get_next_lsn
FN:422,_RNvMs0_NtNtCsioRnW7FrYT6_6rustdb4core12acid_managerNtB5_11AcidManager13add_wait_edge
FN:449,_RNvMs0_NtNtCsioRnW7FrYT6_6rustdb4core12acid_managerNtB5_11AcidManager14create_version
FN:377,_RNvMs0_NtNtCsioRnW7FrYT6_6rustdb4core12acid_managerNtB5_11AcidManager15detect_deadlock
FN:521,_RNvMs0_NtNtCsioRnW7FrYT6_6rustdb4core12acid_managerNtB5_11AcidManager24undo_transaction_changes
FN:536,_RNvMs0_NtNtCsioRnW7FrYT6_6rustdb4core12acid_managerNtB5_11AcidManager24update_transaction_locks
FN:384,_RNvNvMs0_NtNtCsioRnW7FrYT6_6rustdb4core12acid_managerNtB7_11AcidManager15detect_deadlock9has_cycle
FN:44,_RNvXNtNtCsioRnW7FrYT6_6rustdb4core12acid_managerNtNtNtB6_6common5error5ErrorINtNtCsixiwFwjEgS7_4core7convert4FromNtB2_9AcidErrorE4from
FN:589,_RNCNvMs0_NtNtCsioRnW7FrYT6_6rustdb4core12acid_managerNtB7_11AcidManager14get_statistics0Bb_
FN:532,_RNCNvMs0_NtNtCsioRnW7FrYT6_6rustdb4core12acid_managerNtB7_11AcidManager20get_transaction_info0Bb_
FN:297,_RNvMs0_NtNtCs9nxHbwgHRMj_6rustdb4core12acid_managerNtB5_11AcidManager11read_record
FN:572,_RNvMs0_NtNtCs9nxHbwgHRMj_6rustdb4core12acid_managerNtB5_11AcidManager12get_next_lsn
FN:278,_RNvMs0_NtNtCs9nxHbwgHRMj_6rustdb4core12acid_managerNtB5_11AcidManager12release_lock
FN:422,_RNvMs0_NtNtCs9nxHbwgHRMj_6rustdb4core12acid_managerNtB5_11AcidManager13add_wait_edge
FN:449,_RNvMs0_NtNtCs9nxHbwgHRMj_6rustdb4core12acid_managerNtB5_11AcidManager14create_version
FN:377,_RNvMs0_NtNtCs9nxHbwgHRMj_6rustdb4core12acid_managerNtB5_11AcidManager15detect_deadlock
FN:432,_RNvMs0_NtNtCs9nxHbwgHRMj_6rustdb4core12acid_managerNtB5_11AcidManager16remove_wait_edge
FN:493,_RNvMs0_NtNtCs9nxHbwgHRMj_6rustdb4core12acid_managerNtB5_11AcidManager21read_committed_record
FN:499,_RNvMs0_NtNtCs9nxHbwgHRMj_6rustdb4core12acid_managerNtB5_11AcidManager22read_repeatable_record
FN:487,_RNvMs0_NtNtCs9nxHbwgHRMj_6rustdb4core12acid_managerNtB5_11AcidManager23read_uncommitted_record
FN:549,_RNvMs0_NtNtCs9nxHbwgHRMj_6rustdb4core12acid_managerNtB5_11AcidManager23remove_transaction_lock
FN:510,_RNvMs0_NtNtCs9nxHbwgHRMj_6rustdb4core12acid_managerNtB5_11AcidManager24read_serializable_record
FN:521,_RNvMs0_NtNtCs9nxHbwgHRMj_6rustdb4core12acid_managerNtB5_11AcidManager24undo_transaction_changes
FN:536,_RNvMs0_NtNtCs9nxHbwgHRMj_6rustdb4core12acid_managerNtB5_11AcidManager24update_transaction_locks
FN:384,_RNvNvMs0_NtNtCs9nxHbwgHRMj_6rustdb4core12acid_managerNtB7_11AcidManager15detect_deadlock9has_cycle
FN:589,_RNCNvMs0_NtNtCs9nxHbwgHRMj_6rustdb4core12acid_managerNtB7_11AcidManager14get_statistics0Bb_
FN:532,_RNCNvMs0_NtNtCs9nxHbwgHRMj_6rustdb4core12acid_managerNtB7_11AcidManager20get_transaction_info0Bb_
FN:232,_RNvMs0_NtNtCs9nxHbwgHRMj_6rustdb4core12acid_managerNtB5_11AcidManager12acquire_lock
FN:326,_RNvMs0_NtNtCs9nxHbwgHRMj_6rustdb4core12acid_managerNtB5_11AcidManager12write_record
FN:581,_RNvMs0_NtNtCs9nxHbwgHRMj_6rustdb4core12acid_managerNtB5_11AcidManager14get_statistics
FN:203,_RNvMs0_NtNtCs9nxHbwgHRMj_6rustdb4core12acid_managerNtB5_11AcidManager17abort_transaction
FN:143,_RNvMs0_NtNtCs9nxHbwgHRMj_6rustdb4core12acid_managerNtB5_11AcidManager17begin_transaction
FN:169,_RNvMs0_NtNtCs9nxHbwgHRMj_6rustdb4core12acid_managerNtB5_11AcidManager18commit_transaction
FN:527,_RNvMs0_NtNtCs9nxHbwgHRMj_6rustdb4core12acid_managerNtB5_11AcidManager20get_transaction_info
FN:562,_RNvMs0_NtNtCs9nxHbwgHRMj_6rustdb4core12acid_managerNtB5_11AcidManager30update_transaction_dirty_pages
FN:123,_RNvMs0_NtNtCs9nxHbwgHRMj_6rustdb4core12acid_managerNtB5_11AcidManager3new
FN:69,_RNvXs_NtNtCs9nxHbwgHRMj_6rustdb4core12acid_managerNtB4_10AcidConfigNtNtCsixiwFwjEgS7_4core7default7Default7default
FN:44,_RNvXNtNtCs9nxHbwgHRMj_6rustdb4core12acid_managerNtNtNtB6_6common5error5ErrorINtNtCsixiwFwjEgS7_4core7convert4FromNtB2_9AcidErrorE4from
FNDA:0,_RNvMs0_NtNtCsioRnW7FrYT6_6rustdb4core12acid_managerNtB5_11AcidManager11read_record
FNDA:0,_RNvMs0_NtNtCsioRnW7FrYT6_6rustdb4core12acid_managerNtB5_11AcidManager12acquire_lock
FNDA:0,_RNvMs0_NtNtCsioRnW7FrYT6_6rustdb4core12acid_managerNtB5_11AcidManager12release_lock
FNDA:0,_RNvMs0_NtNtCsioRnW7FrYT6_6rustdb4core12acid_managerNtB5_11AcidManager12write_record
FNDA:0,_RNvMs0_NtNtCsioRnW7FrYT6_6rustdb4core12acid_managerNtB5_11AcidManager14get_statistics
FNDA:0,_RNvMs0_NtNtCsioRnW7FrYT6_6rustdb4core12acid_managerNtB5_11AcidManager16remove_wait_edge
FNDA:0,_RNvMs0_NtNtCsioRnW7FrYT6_6rustdb4core12acid_managerNtB5_11AcidManager17abort_transaction
FNDA:0,_RNvMs0_NtNtCsioRnW7FrYT6_6rustdb4core12acid_managerNtB5_11AcidManager17begin_transaction
FNDA:0,_RNvMs0_NtNtCsioRnW7FrYT6_6rustdb4core12acid_managerNtB5_11AcidManager18commit_transaction
FNDA:0,_RNvMs0_NtNtCsioRnW7FrYT6_6rustdb4core12acid_managerNtB5_11AcidManager20get_transaction_info
FNDA:0,_RNvMs0_NtNtCsioRnW7FrYT6_6rustdb4core12acid_managerNtB5_11AcidManager21read_committed_record
FNDA:0,_RNvMs0_NtNtCsioRnW7FrYT6_6rustdb4core12acid_managerNtB5_11AcidManager22read_repeatable_record
FNDA:0,_RNvMs0_NtNtCsioRnW7FrYT6_6rustdb4core12acid_managerNtB5_11AcidManager23read_uncommitted_record
FNDA:0,_RNvMs0_NtNtCsioRnW7FrYT6_6rustdb4core12acid_managerNtB5_11AcidManager23remove_transaction_lock
FNDA:0,_RNvMs0_NtNtCsioRnW7FrYT6_6rustdb4core12acid_managerNtB5_11AcidManager24read_serializable_record
FNDA:0,_RNvMs0_NtNtCsioRnW7FrYT6_6rustdb4core12acid_managerNtB5_11AcidManager30update_transaction_dirty_pages
FNDA:82,_RNvMs0_NtNtCsioRnW7FrYT6_6rustdb4core12acid_managerNtB5_11AcidManager3new
FNDA:82,_RNvXs_NtNtCsioRnW7FrYT6_6rustdb4core12acid_managerNtB4_10AcidConfigNtNtCsixiwFwjEgS7_4core7default7Default7default
FNDA:0,_RNvMs0_NtNtCsioRnW7FrYT6_6rustdb4core12acid_managerNtB5_11AcidManager12get_next_lsn
FNDA:0,_RNvMs0_NtNtCsioRnW7FrYT6_6rustdb4core12acid_managerNtB5_11AcidManager13add_wait_edge
FNDA:0,_RNvMs0_NtNtCsioRnW7FrYT6_6rustdb4core12acid_managerNtB5_11AcidManager14create_version
FNDA:0,_RNvMs0_NtNtCsioRnW7FrYT6_6rustdb4core12acid_managerNtB5_11AcidManager15detect_deadlock
FNDA:0,_RNvMs0_NtNtCsioRnW7FrYT6_6rustdb4core12acid_managerNtB5_11AcidManager24undo_transaction_changes
FNDA:0,_RNvMs0_NtNtCsioRnW7FrYT6_6rustdb4core12acid_managerNtB5_11AcidManager24update_transaction_locks
FNDA:0,_RNvNvMs0_NtNtCsioRnW7FrYT6_6rustdb4core12acid_managerNtB7_11AcidManager15detect_deadlock9has_cycle
FNDA:0,_RNvXNtNtCsioRnW7FrYT6_6rustdb4core12acid_managerNtNtNtB6_6common5error5ErrorINtNtCsixiwFwjEgS7_4core7convert4FromNtB2_9AcidErrorE4from
FNDA:0,_RNCNvMs0_NtNtCsioRnW7FrYT6_6rustdb4core12acid_managerNtB7_11AcidManager14get_statistics0Bb_
FNDA:0,_RNCNvMs0_NtNtCsioRnW7FrYT6_6rustdb4core12acid_managerNtB7_11AcidManager20get_transaction_info0Bb_
FNDA:0,_RNvMs0_NtNtCs9nxHbwgHRMj_6rustdb4core12acid_managerNtB5_11AcidManager11read_record
FNDA:0,_RNvMs0_NtNtCs9nxHbwgHRMj_6rustdb4core12acid_managerNtB5_11AcidManager12get_next_lsn
FNDA:0,_RNvMs0_NtNtCs9nxHbwgHRMj_6rustdb4core12acid_managerNtB5_11AcidManager12release_lock
FNDA:0,_RNvMs0_NtNtCs9nxHbwgHRMj_6rustdb4core12acid_managerNtB5_11AcidManager13add_wait_edge
FNDA:0,_RNvMs0_NtNtCs9nxHbwgHRMj_6rustdb4core12acid_managerNtB5_11AcidManager14create_version
FNDA:0,_RNvMs0_NtNtCs9nxHbwgHRMj_6rustdb4core12acid_managerNtB5_11AcidManager15detect_deadlock
FNDA:0,_RNvMs0_NtNtCs9nxHbwgHRMj_6rustdb4core12acid_managerNtB5_11AcidManager16remove_wait_edge
FNDA:0,_RNvMs0_NtNtCs9nxHbwgHRMj_6rustdb4core12acid_managerNtB5_11AcidManager21read_committed_record
FNDA:0,_RNvMs0_NtNtCs9nxHbwgHRMj_6rustdb4core12acid_managerNtB5_11AcidManager22read_repeatable_record
FNDA:0,_RNvMs0_NtNtCs9nxHbwgHRMj_6rustdb4core12acid_managerNtB5_11AcidManager23read_uncommitted_record
FNDA:0,_RNvMs0_NtNtCs9nxHbwgHRMj_6rustdb4core12acid_managerNtB5_11AcidManager23remove_transaction_lock
FNDA:0,_RNvMs0_NtNtCs9nxHbwgHRMj_6rustdb4core12acid_managerNtB5_11AcidManager24read_serializable_record
FNDA:0,_RNvMs0_NtNtCs9nxHbwgHRMj_6rustdb4core12acid_managerNtB5_11AcidManager24undo_transaction_changes
FNDA:0,_RNvMs0_NtNtCs9nxHbwgHRMj_6rustdb4core12acid_managerNtB5_11AcidManager24update_transaction_locks
FNDA:0,_RNvNvMs0_NtNtCs9nxHbwgHRMj_6rustdb4core12acid_managerNtB7_11AcidManager15detect_deadlock9has_cycle
FNDA:0,_RNCNvMs0_NtNtCs9nxHbwgHRMj_6rustdb4core12acid_managerNtB7_11AcidManager14get_statistics0Bb_
FNDA:2,_RNCNvMs0_NtNtCs9nxHbwgHRMj_6rustdb4core12acid_managerNtB7_11AcidManager20get_transaction_info0Bb_
FNDA:1,_RNvMs0_NtNtCs9nxHbwgHRMj_6rustdb4core12acid_managerNtB5_11AcidManager12acquire_lock
FNDA:1,_RNvMs0_NtNtCs9nxHbwgHRMj_6rustdb4core12acid_managerNtB5_11AcidManager12write_record
FNDA:6,_RNvMs0_NtNtCs9nxHbwgHRMj_6rustdb4core12acid_managerNtB5_11AcidManager14get_statistics
FNDA:2,_RNvMs0_NtNtCs9nxHbwgHRMj_6rustdb4core12acid_managerNtB5_11AcidManager17abort_transaction
FNDA:8,_RNvMs0_NtNtCs9nxHbwgHRMj_6rustdb4core12acid_managerNtB5_11AcidManager17begin_transaction
FNDA:8,_RNvMs0_NtNtCs9nxHbwgHRMj_6rustdb4core12acid_managerNtB5_11AcidManager18commit_transaction
FNDA:11,_RNvMs0_NtNtCs9nxHbwgHRMj_6rustdb4core12acid_managerNtB5_11AcidManager20get_transaction_info
FNDA:0,_RNvMs0_NtNtCs9nxHbwgHRMj_6rustdb4core12acid_managerNtB5_11AcidManager30update_transaction_dirty_pages
FNDA:7,_RNvMs0_NtNtCs9nxHbwgHRMj_6rustdb4core12acid_managerNtB5_11AcidManager3new
FNDA:8,_RNvXs_NtNtCs9nxHbwgHRMj_6rustdb4core12acid_managerNtB4_10AcidConfigNtNtCsixiwFwjEgS7_4core7default7Default7default
FNDA:3,_RNvXNtNtCs9nxHbwgHRMj_6rustdb4core12acid_managerNtNtNtB6_6common5error5ErrorINtNtCsixiwFwjEgS7_4core7convert4FromNtB2_9AcidErrorE4from
FNF:28
FNH:11
DA:44,3
DA:45,3
DA:46,3
DA:69,90
DA:70,90
DA:71,90
DA:72,90
DA:73,90
DA:74,90
DA:75,90
DA:76,90
DA:77,90
DA:78,90
DA:79,90
DA:123,89
DA:124,89
DA:125,89
DA:126,89
DA:127,89
DA:128,89
DA:129,89
DA:130,89
DA:131,89
DA:132,89
DA:133,89
DA:134,89
DA:135,89
DA:136,89
DA:137,89
DA:138,89
DA:139,89
DA:140,89
DA:143,8
DA:144,8
DA:145,8
DA:146,8
DA:147,8
DA:148,8
DA:150,8
DA:151,8
DA:154,8
DA:155,8
DA:160,8
DA:161,8
DA:162,8
DA:163,8
DA:165,8
DA:166,8
DA:169,8
DA:171,8
DA:173,7
DA:174,0
DA:175,0
DA:176,0
DA:177,0
DA:178,0
DA:179,7
DA:182,7
DA:188,7
DA:189,7
DA:190,7
DA:191,7
DA:194,7
DA:195,7
DA:196,7
DA:197,7
DA:199,7
DA:200,8
DA:203,2
DA:205,2
DA:208,1
DA:217,1
DA:218,1
DA:219,1
DA:220,1
DA:223,1
DA:224,1
DA:225,1
DA:226,1
DA:228,1
DA:229,2
DA:232,1
DA:233,1
DA:234,1
DA:235,1
DA:236,1
DA:237,1
DA:238,1
DA:239,1
DA:241,1
DA:254,1
DA:255,1
DA:258,1
DA:270,0
DA:271,0
DA:272,0
DA:273,0
DA:274,0
DA:275,1
DA:278,0
DA:282,0
DA:283,0
DA:288,0
DA:291,0
DA:293,0
DA:294,0
DA:297,0
DA:298,0
DA:299,0
DA:300,0
DA:301,0
DA:302,0
DA:303,0
DA:305,0
DA:308,0
DA:312,0
DA:316,0
DA:320,0
DA:323,0
DA:326,1
DA:327,1
DA:328,1
DA:329,1
DA:330,1
DA:331,1
DA:332,1
DA:333,1
DA:335,1
DA:336,1
DA:337,1
DA:338,1
DA:339,1
DA:340,0
DA:343,0
DA:344,0
DA:345,0
DA:346,0
DA:347,0
DA:353,0
DA:354,0
DA:355,0
DA:356,0
DA:365,0
DA:366,0
DA:371,0
DA:373,0
DA:374,1
DA:377,0
DA:378,0
DA:381,0
DA:382,0
DA:384,0
DA:385,0
DA:386,0
DA:387,0
DA:388,0
DA:389,0
DA:390,0
DA:391,0
DA:392,0
DA:394,0
DA:395,0
DA:396,0
DA:398,0
DA:399,0
DA:401,0
DA:402,0
DA:403,0
DA:404,0
DA:405,0
DA:407,0
DA:409,0
DA:410,0
DA:411,0
DA:413,0
DA:414,0
DA:415,0
DA:416,0
DA:417,0
DA:418,0
DA:419,0
DA:422,0
DA:428,0
DA:429,0
DA:432,0
DA:433,0
DA:436,0
DA:437,0
DA:438,0
DA:441,0
DA:442,0
DA:443,0
DA:445,0
DA:446,0
DA:449,0
DA:450,0
DA:451,0
DA:452,0
DA:453,0
DA:454,0
DA:455,0
DA:456,0
DA:457,0
DA:458,0
DA:460,0
DA:461,0
DA:462,0
DA:463,0
DA:464,0
DA:465,0
DA:466,0
DA:467,0
DA:469,0
DA:470,0
DA:471,0
DA:472,0
DA:473,0
DA:474,0
DA:477,0
DA:478,0
DA:479,0
DA:480,0
DA:481,0
DA:483,0
DA:484,0
DA:487,0
DA:489,0
DA:490,0
DA:493,0
DA:495,0
DA:496,0
DA:499,0
DA:500,0
DA:501,0
DA:502,0
DA:503,0
DA:504,0
DA:506,0
DA:507,0
DA:510,0
DA:511,0
DA:512,0
DA:513,0
DA:514,0
DA:515,0
DA:517,0
DA:518,0
DA:521,0
DA:523,0
DA:524,0
DA:527,11
DA:528,11
DA:529,11
DA:530,11
DA:531,11
DA:532,11
DA:533,11
DA:536,0
DA:537,0
DA:538,0
DA:539,0
DA:540,0
DA:541,0
DA:542,0
DA:543,0
DA:544,0
DA:545,0
DA:546,0
DA:549,0
DA:550,0
DA:551,0
DA:552,0
DA:553,0
DA:554,0
DA:555,0
DA:556,0
DA:557,0
DA:558,0
DA:559,0
DA:562,0
DA:563,0
DA:564,0
DA:565,0
DA:566,0
DA:568,0
DA:569,0
DA:572,0
DA:574,0
DA:575,0
DA:576,0
DA:577,0
DA:578,0
DA:581,6
DA:582,6
DA:583,6
DA:584,6
DA:585,6
DA:586,6
DA:587,6
DA:588,6
DA:589,6
DA:590,6
DA:592,6
DA:593,6
DA:594,6
DA:595,6
DA:596,6
DA:597,6
DA:598,6
DA:599,6
DA:600,6
BRF:0
BRH:0
LF:313
LH:130
end_of_record
SF:C:\Users\Admin\RustProjects\RustBD\src\core\advanced_lock_manager.rs
FN:365,_RNCNvMs3_NtNtCsioRnW7FrYT6_6rustdb4core21advanced_lock_managerNtB7_19AdvancedLockManager12acquire_lock0Bb_
FN:432,_RNvMs3_NtNtCsioRnW7FrYT6_6rustdb4core21advanced_lock_managerNtB5_19AdvancedLockManager18is_lock_compatible
FN:788,_RNvMs3_NtNtCsioRnW7FrYT6_6rustdb4core21advanced_lock_managerNtB5_19AdvancedLockManager25update_statistics_upgrade
FN:258,_RNvMs0_NtNtCsioRnW7FrYT6_6rustdb4core21advanced_lock_managerNtB5_20AdvancedWaitForGraph15get_waiting_for
FN:171,_RNvMs0_NtNtCsioRnW7FrYT6_6rustdb4core21advanced_lock_managerNtB5_20AdvancedWaitForGraph18remove_transaction
FN:211,_RNvMs0_NtNtCsioRnW7FrYT6_6rustdb4core21advanced_lock_managerNtB5_20AdvancedWaitForGraph19dfs_cycle_detection
FN:248,_RNvMs0_NtNtCsioRnW7FrYT6_6rustdb4core21advanced_lock_managerNtB5_20AdvancedWaitForGraph24get_waiting_transactions
FN:149,_RNvMs0_NtNtCsioRnW7FrYT6_6rustdb4core21advanced_lock_managerNtB5_20AdvancedWaitForGraph3new
FN:158,_RNvMs0_NtNtCsioRnW7FrYT6_6rustdb4core21advanced_lock_managerNtB5_20AdvancedWaitForGraph8add_edge
FN:194,_RNvMs0_NtNtCsioRnW7FrYT6_6rustdb4core21advanced_lock_managerNtB5_20AdvancedWaitForGraph9has_cycle
FN:333,_RNvMs2_NtNtCsioRnW7FrYT6_6rustdb4core21advanced_lock_managerNtB5_22AdvancedLockStatistics3new
FN:359,_RNvMs3_NtNtCsioRnW7FrYT6_6rustdb4core21advanced_lock_managerNtB5_19AdvancedLockManager12acquire_lock
FN:537,_RNvMs3_NtNtCsioRnW7FrYT6_6rustdb4core21advanced_lock_managerNtB5_19AdvancedLockManager12release_lock
FN:690,_RNvMs3_NtNtCsioRnW7FrYT6_6rustdb4core21advanced_lock_managerNtB5_19AdvancedLockManager14can_grant_lock
FN:635,_RNvMs3_NtNtCsioRnW7FrYT6_6rustdb4core21advanced_lock_managerNtB5_19AdvancedLockManager14get_lock_owner
FN:802,_RNvMs3_NtNtCsioRnW7FrYT6_6rustdb4core21advanced_lock_managerNtB5_19AdvancedLockManager14get_statistics
FN:709,_RNvMs3_NtNtCsioRnW7FrYT6_6rustdb4core21advanced_lock_managerNtB5_19AdvancedLockManager15detect_deadlock
FN:715,_RNvMs3_NtNtCsioRnW7FrYT6_6rustdb4core21advanced_lock_managerNtB5_19AdvancedLockManager16resolve_deadlock
FN:445,_RNvMs3_NtNtCsioRnW7FrYT6_6rustdb4core21advanced_lock_managerNtB5_19AdvancedLockManager16try_acquire_lock
FN:824,_RNvMs3_NtNtCsioRnW7FrYT6_6rustdb4core21advanced_lock_managerNtB5_19AdvancedLockManager17get_waiting_count
FN:578,_RNvMs3_NtNtCsioRnW7FrYT6_6rustdb4core21advanced_lock_managerNtB5_19AdvancedLockManager17release_all_locks
FN:807,_RNvMs3_NtNtCsioRnW7FrYT6_6rustdb4core21advanced_lock_managerNtB5_19AdvancedLockManager18get_resource_locks
FN:496,_RNvMs3_NtNtCsioRnW7FrYT6_6rustdb4core21advanced_lock_managerNtB5_19AdvancedLockManager20add_to_waiting_queue
FN:813,_RNvMs3_NtNtCsioRnW7FrYT6_6rustdb4core21advanced_lock_managerNtB5_19AdvancedLockManager21get_transaction_locks
FN:650,_RNvMs3_NtNtCsioRnW7FrYT6_6rustdb4core21advanced_lock_managerNtB5_19AdvancedLockManager21process_waiting_queue
FN:597,_RNvMs3_NtNtCsioRnW7FrYT6_6rustdb4core21advanced_lock_managerNtB5_19AdvancedLockManager21release_lock_internal
FN:740,_RNvMs3_NtNtCsioRnW7FrYT6_6rustdb4core21advanced_lock_managerNtB5_19AdvancedLockManager24should_abort_transaction
FN:753,_RNvMs3_NtNtCsioRnW7FrYT6_6rustdb4core21advanced_lock_managerNtB5_19AdvancedLockManager25remove_from_waiting_queue
FN:781,_RNvMs3_NtNtCsioRnW7FrYT6_6rustdb4core21advanced_lock_managerNtB5_19AdvancedLockManager25update_statistics_timeout
FN:774,_RNvMs3_NtNtCsioRnW7FrYT6_6rustdb4core21advanced_lock_managerNtB5_19AdvancedLockManager31update_statistics_lock_acquired
FN:795,_RNvMs3_NtNtCsioRnW7FrYT6_6rustdb4core21advanced_lock_managerNtB5_19AdvancedLockManager31update_statistics_lock_released
FN:347,_RNvMs3_NtNtCsioRnW7FrYT6_6rustdb4core21advanced_lock_managerNtB5_19AdvancedLockManager3new
FN:67,_RNvMs_NtNtCsioRnW7FrYT6_6rustdb4core21advanced_lock_managerNtB4_8LockMode13is_compatible
FN:93,_RNvMs_NtNtCsioRnW7FrYT6_6rustdb4core21advanced_lock_managerNtB4_8LockMode5level
FN:35,_RNvXNtNtCsioRnW7FrYT6_6rustdb4core21advanced_lock_managerNtB2_12ResourceTypeNtNtCsixiwFwjEgS7_4core3fmt7Display3fmt
FN:302,_RNvXs1_NtNtCsioRnW7FrYT6_6rustdb4core21advanced_lock_managerNtB5_18AdvancedLockConfigNtNtCsixiwFwjEgS7_4core7default7Default7default
FN:220,_RNCNvMs0_NtNtCsioRnW7FrYT6_6rustdb4core21advanced_lock_managerNtB7_20AdvancedWaitForGraph19dfs_cycle_detection0Bb_
FN:546,_RNCNvMs3_NtNtCsioRnW7FrYT6_6rustdb4core21advanced_lock_managerNtB7_19AdvancedLockManager12release_lock0Bb_
FN:640,_RNCNvMs3_NtNtCsioRnW7FrYT6_6rustdb4core21advanced_lock_managerNtB7_19AdvancedLockManager14get_lock_owner0Bb_
FN:725,_RNCNvMs3_NtNtCsioRnW7FrYT6_6rustdb4core21advanced_lock_managerNtB7_19AdvancedLockManager16resolve_deadlock0Bb_
FN:464,_RNCNvMs3_NtNtCsioRnW7FrYT6_6rustdb4core21advanced_lock_managerNtB7_19AdvancedLockManager16try_acquire_lock0Bb_
FN:826,_RNCNvMs3_NtNtCsioRnW7FrYT6_6rustdb4core21advanced_lock_managerNtB7_19AdvancedLockManager17get_waiting_count0Bb_
FN:584,_RNCNvMs3_NtNtCsioRnW7FrYT6_6rustdb4core21advanced_lock_managerNtB7_19AdvancedLockManager17release_all_locks0Bb_
FN:606,_RNCNvMs3_NtNtCsioRnW7FrYT6_6rustdb4core21advanced_lock_managerNtB7_19AdvancedLockManager21release_lock_internal0Bb_
FN:760,_RNCNvMs3_NtNtCsioRnW7FrYT6_6rustdb4core21advanced_lock_managerNtB7_19AdvancedLockManager25remove_from_waiting_queue0Bb_
FN:826,_RNCNvMs3_NtNtCs9nxHbwgHRMj_6rustdb4core21advanced_lock_managerNtB7_19AdvancedLockManager17get_waiting_count0Bb_
FN:258,_RNvMs0_NtNtCs9nxHbwgHRMj_6rustdb4core21advanced_lock_managerNtB5_20AdvancedWaitForGraph15get_waiting_for
FN:248,_RNvMs0_NtNtCs9nxHbwgHRMj_6rustdb4core21advanced_lock_managerNtB5_20AdvancedWaitForGraph24get_waiting_transactions
FN:824,_RNvMs3_NtNtCs9nxHbwgHRMj_6rustdb4core21advanced_lock_managerNtB5_19AdvancedLockManager17get_waiting_count
FN:432,_RNvMs3_NtNtCs9nxHbwgHRMj_6rustdb4core21advanced_lock_managerNtB5_19AdvancedLockManager18is_lock_compatible
FN:813,_RNvMs3_NtNtCs9nxHbwgHRMj_6rustdb4core21advanced_lock_managerNtB5_19AdvancedLockManager21get_transaction_locks
FN:788,_RNvMs3_NtNtCs9nxHbwgHRMj_6rustdb4core21advanced_lock_managerNtB5_19AdvancedLockManager25update_statistics_upgrade
FN:35,_RNvXNtNtCs9nxHbwgHRMj_6rustdb4core21advanced_lock_managerNtB2_12ResourceTypeNtNtCsixiwFwjEgS7_4core3fmt7Display3fmt
FN:220,_RNCNvMs0_NtNtCs9nxHbwgHRMj_6rustdb4core21advanced_lock_managerNtB7_20AdvancedWaitForGraph19dfs_cycle_detection0Bb_
FN:365,_RNCNvMs3_NtNtCs9nxHbwgHRMj_6rustdb4core21advanced_lock_managerNtB7_19AdvancedLockManager12acquire_lock0Bb_
FN:546,_RNCNvMs3_NtNtCs9nxHbwgHRMj_6rustdb4core21advanced_lock_managerNtB7_19AdvancedLockManager12release_lock0Bb_
FN:640,_RNCNvMs3_NtNtCs9nxHbwgHRMj_6rustdb4core21advanced_lock_managerNtB7_19AdvancedLockManager14get_lock_owner0Bb_
FN:725,_RNCNvMs3_NtNtCs9nxHbwgHRMj_6rustdb4core21advanced_lock_managerNtB7_19AdvancedLockManager16resolve_deadlock0Bb_
FN:464,_RNCNvMs3_NtNtCs9nxHbwgHRMj_6rustdb4core21advanced_lock_managerNtB7_19AdvancedLockManager16try_acquire_lock0Bb_
FN:584,_RNCNvMs3_NtNtCs9nxHbwgHRMj_6rustdb4core21advanced_lock_managerNtB7_19AdvancedLockManager17release_all_locks0Bb_
FN:606,_RNCNvMs3_NtNtCs9nxHbwgHRMj_6rustdb4core21advanced_lock_managerNtB7_19AdvancedLockManager21release_lock_internal0Bb_
FN:760,_RNCNvMs3_NtNtCs9nxHbwgHRMj_6rustdb4core21advanced_lock_managerNtB7_19AdvancedLockManager25remove_from_waiting_queue0Bb_
FN:171,_RNvMs0_NtNtCs9nxHbwgHRMj_6rustdb4core21advanced_lock_managerNtB5_20AdvancedWaitForGraph18remove_transaction
FN:211,_RNvMs0_NtNtCs9nxHbwgHRMj_6rustdb4core21advanced_lock_managerNtB5_20AdvancedWaitForGraph19dfs_cycle_detection
FN:149,_RNvMs0_NtNtCs9nxHbwgHRMj_6rustdb4core21advanced_lock_managerNtB5_20AdvancedWaitForGraph3new
FN:158,_RNvMs0_NtNtCs9nxHbwgHRMj_6rustdb4core21advanced_lock_managerNtB5_20AdvancedWaitForGraph8add_edge
FN:194,_RNvMs0_NtNtCs9nxHbwgHRMj_6rustdb4core21advanced_lock_managerNtB5_20AdvancedWaitForGraph9has_cycle
FN:333,_RNvMs2_NtNtCs9nxHbwgHRMj_6rustdb4core21advanced_lock_managerNtB5_22AdvancedLockStatistics3new
FN:359,_RNvMs3_NtNtCs9nxHbwgHRMj_6rustdb4core21advanced_lock_managerNtB5_19AdvancedLockManager12acquire_lock
FN:537,_RNvMs3_NtNtCs9nxHbwgHRMj_6rustdb4core21advanced_lock_managerNtB5_19AdvancedLockManager12release_lock
FN:690,_RNvMs3_NtNtCs9nxHbwgHRMj_6rustdb4core21advanced_lock_managerNtB5_19AdvancedLockManager14can_grant_lock
FN:635,_RNvMs3_NtNtCs9nxHbwgHRMj_6rustdb4core21advanced_lock_managerNtB5_19AdvancedLockManager14get_lock_owner
FN:802,_RNvMs3_NtNtCs9nxHbwgHRMj_6rustdb4core21advanced_lock_managerNtB5_19AdvancedLockManager14get_statistics
FN:709,_RNvMs3_NtNtCs9nxHbwgHRMj_6rustdb4core21advanced_lock_managerNtB5_19AdvancedLockManager15detect_deadlock
FN:715,_RNvMs3_NtNtCs9nxHbwgHRMj_6rustdb4core21advanced_lock_managerNtB5_19AdvancedLockManager16resolve_deadlock
FN:445,_RNvMs3_NtNtCs9nxHbwgHRMj_6rustdb4core21advanced_lock_managerNtB5_19AdvancedLockManager16try_acquire_lock
FN:578,_RNvMs3_NtNtCs9nxHbwgHRMj_6rustdb4core21advanced_lock_managerNtB5_19AdvancedLockManager17release_all_locks
FN:807,_RNvMs3_NtNtCs9nxHbwgHRMj_6rustdb4core21advanced_lock_managerNtB5_19AdvancedLockManager18get_resource_locks
FN:496,_RNvMs3_NtNtCs9nxHbwgHRMj_6rustdb4core21advanced_lock_managerNtB5_19AdvancedLockManager20add_to_waiting_queue
FN:650,_RNvMs3_NtNtCs9nxHbwgHRMj_6rustdb4core21advanced_lock_managerNtB5_19AdvancedLockManager21process_waiting_queue
FN:597,_RNvMs3_NtNtCs9nxHbwgHRMj_6rustdb4core21advanced_lock_managerNtB5_19AdvancedLockManager21release_lock_internal
FN:740,_RNvMs3_NtNtCs9nxHbwgHRMj_6rustdb4core21advanced_lock_managerNtB5_19AdvancedLockManager24should_abort_transaction
FN:753,_RNvMs3_NtNtCs9nxHbwgHRMj_6rustdb4core21advanced_lock_managerNtB5_19AdvancedLockManager25remove_from_waiting_queue
FN:781,_RNvMs3_NtNtCs9nxHbwgHRMj_6rustdb4core21advanced_lock_managerNtB5_19AdvancedLockManager25update_statistics_timeout
FN:774,_RNvMs3_NtNtCs9nxHbwgHRMj_6rustdb4core21advanced_lock_managerNtB5_19AdvancedLockManager31update_statistics_lock_acquired
FN:795,_RNvMs3_NtNtCs9nxHbwgHRMj_6rustdb4core21advanced_lock_managerNtB5_19AdvancedLockManager31update_statistics_lock_released
FN:347,_RNvMs3_NtNtCs9nxHbwgHRMj_6rustdb4core21advanced_lock_managerNtB5_19AdvancedLockManager3new
FN:67,_RNvMs_NtNtCs9nxHbwgHRMj_6rustdb4core21advanced_lock_managerNtB4_8LockMode13is_compatible
FN:93,_RNvMs_NtNtCs9nxHbwgHRMj_6rustdb4core21advanced_lock_managerNtB4_8LockMode5level
FN:302,_RNvXs1_NtNtCs9nxHbwgHRMj_6rustdb4core21advanced_lock_managerNtB5_18AdvancedLockConfigNtNtCsixiwFwjEgS7_4core7default7Default7default
FNDA:0,_RNCNvMs3_NtNtCsioRnW7FrYT6_6rustdb4core21advanced_lock_managerNtB7_19AdvancedLockManager12acquire_lock0Bb_
FNDA:0,_RNvMs3_NtNtCsioRnW7FrYT6_6rustdb4core21advanced_lock_managerNtB5_19AdvancedLockManager18is_lock_compatible
FNDA:0,_RNvMs3_NtNtCsioRnW7FrYT6_6rustdb4core21advanced_lock_managerNtB5_19AdvancedLockManager25update_statistics_upgrade
FNDA:0,_RNvMs0_NtNtCsioRnW7FrYT6_6rustdb4core21advanced_lock_managerNtB5_20AdvancedWaitForGraph15get_waiting_for
FNDA:0,_RNvMs0_NtNtCsioRnW7FrYT6_6rustdb4core21advanced_lock_managerNtB5_20AdvancedWaitForGraph18remove_transaction
FNDA:0,_RNvMs0_NtNtCsioRnW7FrYT6_6rustdb4core21advanced_lock_managerNtB5_20AdvancedWaitForGraph19dfs_cycle_detection
FNDA:0,_RNvMs0_NtNtCsioRnW7FrYT6_6rustdb4core21advanced_lock_managerNtB5_20AdvancedWaitForGraph24get_waiting_transactions
FNDA:82,_RNvMs0_NtNtCsioRnW7FrYT6_6rustdb4core21advanced_lock_managerNtB5_20AdvancedWaitForGraph3new
FNDA:0,_RNvMs0_NtNtCsioRnW7FrYT6_6rustdb4core21advanced_lock_managerNtB5_20AdvancedWaitForGraph8add_edge
FNDA:0,_RNvMs0_NtNtCsioRnW7FrYT6_6rustdb4core21advanced_lock_managerNtB5_20AdvancedWaitForGraph9has_cycle
FNDA:82,_RNvMs2_NtNtCsioRnW7FrYT6_6rustdb4core21advanced_lock_managerNtB5_22AdvancedLockStatistics3new
FNDA:0,_RNvMs3_NtNtCsioRnW7FrYT6_6rustdb4core21advanced_lock_managerNtB5_19AdvancedLockManager12acquire_lock
FNDA:0,_RNvMs3_NtNtCsioRnW7FrYT6_6rustdb4core21advanced_lock_managerNtB5_19AdvancedLockManager12release_lock
FNDA:0,_RNvMs3_NtNtCsioRnW7FrYT6_6rustdb4core21advanced_lock_managerNtB5_19AdvancedLockManager14can_grant_lock
FNDA:0,_RNvMs3_NtNtCsioRnW7FrYT6_6rustdb4core21advanced_lock_managerNtB5_19AdvancedLockManager14get_lock_owner
FNDA:0,_RNvMs3_NtNtCsioRnW7FrYT6_6rustdb4core21advanced_lock_managerNtB5_19AdvancedLockManager14get_statistics
FNDA:0,_RNvMs3_NtNtCsioRnW7FrYT6_6rustdb4core21advanced_lock_managerNtB5_19AdvancedLockManager15detect_deadlock
FNDA:0,_RNvMs3_NtNtCsioRnW7FrYT6_6rustdb4core21advanced_lock_managerNtB5_19AdvancedLockManager16resolve_deadlock
FNDA:0,_RNvMs3_NtNtCsioRnW7FrYT6_6rustdb4core21advanced_lock_managerNtB5_19AdvancedLockManager16try_acquire_lock
FNDA:0,_RNvMs3_NtNtCsioRnW7FrYT6_6rustdb4core21advanced_lock_managerNtB5_19AdvancedLockManager17get_waiting_count
FNDA:0,_RNvMs3_NtNtCsioRnW7FrYT6_6rustdb4core21advanced_lock_managerNtB5_19AdvancedLockManager17release_all_locks
FNDA:0,_RNvMs3_NtNtCsioRnW7FrYT6_6rustdb4core21advanced_lock_managerNtB5_19AdvancedLockManager18get_resource_locks
FNDA:0,_RNvMs3_NtNtCsioRnW7FrYT6_6rustdb4core21advanced_lock_managerNtB5_19AdvancedLockManager20add_to_waiting_queue
FNDA:0,_RNvMs3_NtNtCsioRnW7FrYT6_6rustdb4core21advanced_lock_managerNtB5_19AdvancedLockManager21get_transaction_locks
FNDA:0,_RNvMs3_NtNtCsioRnW7FrYT6_6rustdb4core21advanced_lock_managerNtB5_19AdvancedLockManager21process_waiting_queue
FNDA:0,_RNvMs3_NtNtCsioRnW7FrYT6_6rustdb4core21advanced_lock_managerNtB5_19AdvancedLockManager21release_lock_internal
FNDA:0,_RNvMs3_NtNtCsioRnW7FrYT6_6rustdb4core21advanced_lock_managerNtB5_19AdvancedLockManager24should_abort_transaction
FNDA:0,_RNvMs3_NtNtCsioRnW7FrYT6_6rustdb4core21advanced_lock_managerNtB5_19AdvancedLockManager25remove_from_waiting_queue
FNDA:0,_RNvMs3_NtNtCsioRnW7FrYT6_6rustdb4core21advanced_lock_managerNtB5_19AdvancedLockManager25update_statistics_timeout
FNDA:0,_RNvMs3_NtNtCsioRnW7FrYT6_6rustdb4core21advanced_lock_managerNtB5_19AdvancedLockManager31update_statistics_lock_acquired
FNDA:0,_RNvMs3_NtNtCsioRnW7FrYT6_6rustdb4core21advanced_lock_managerNtB5_19AdvancedLockManager31update_statistics_lock_released
FNDA:82,_RNvMs3_NtNtCsioRnW7FrYT6_6rustdb4core21advanced_lock_managerNtB5_19AdvancedLockManager3new
FNDA:0,_RNvMs_NtNtCsioRnW7FrYT6_6rustdb4core21advanced_lock_managerNtB4_8LockMode13is_compatible
FNDA:0,_RNvMs_NtNtCsioRnW7FrYT6_6rustdb4core21advanced_lock_managerNtB4_8LockMode5level
FNDA:0,_RNvXNtNtCsioRnW7FrYT6_6rustdb4core21advanced_lock_managerNtB2_12ResourceTypeNtNtCsixiwFwjEgS7_4core3fmt7Display3fmt
FNDA:82,_RNvXs1_NtNtCsioRnW7FrYT6_6rustdb4core21advanced_lock_managerNtB5_18AdvancedLockConfigNtNtCsixiwFwjEgS7_4core7default7Default7default
FNDA:0,_RNCNvMs0_NtNtCsioRnW7FrYT6_6rustdb4core21advanced_lock_managerNtB7_20AdvancedWaitForGraph19dfs_cycle_detection0Bb_
FNDA:0,_RNCNvMs3_NtNtCsioRnW7FrYT6_6rustdb4core21advanced_lock_managerNtB7_19AdvancedLockManager12release_lock0Bb_
FNDA:0,_RNCNvMs3_NtNtCsioRnW7FrYT6_6rustdb4core21advanced_lock_managerNtB7_19AdvancedLockManager14get_lock_owner0Bb_
FNDA:0,_RNCNvMs3_NtNtCsioRnW7FrYT6_6rustdb4core21advanced_lock_managerNtB7_19AdvancedLockManager16resolve_deadlock0Bb_
FNDA:0,_RNCNvMs3_NtNtCsioRnW7FrYT6_6rustdb4core21advanced_lock_managerNtB7_19AdvancedLockManager16try_acquire_lock0Bb_
FNDA:0,_RNCNvMs3_NtNtCsioRnW7FrYT6_6rustdb4core21advanced_lock_managerNtB7_19AdvancedLockManager17get_waiting_count0Bb_
FNDA:0,_RNCNvMs3_NtNtCsioRnW7FrYT6_6rustdb4core21advanced_lock_managerNtB7_19AdvancedLockManager17release_all_locks0Bb_
FNDA:0,_RNCNvMs3_NtNtCsioRnW7FrYT6_6rustdb4core21advanced_lock_managerNtB7_19AdvancedLockManager21release_lock_internal0Bb_
FNDA:0,_RNCNvMs3_NtNtCsioRnW7FrYT6_6rustdb4core21advanced_lock_managerNtB7_19AdvancedLockManager25remove_from_waiting_queue0Bb_
FNDA:0,_RNCNvMs3_NtNtCs9nxHbwgHRMj_6rustdb4core21advanced_lock_managerNtB7_19AdvancedLockManager17get_waiting_count0Bb_
FNDA:0,_RNvMs0_NtNtCs9nxHbwgHRMj_6rustdb4core21advanced_lock_managerNtB5_20AdvancedWaitForGraph15get_waiting_for
FNDA:0,_RNvMs0_NtNtCs9nxHbwgHRMj_6rustdb4core21advanced_lock_managerNtB5_20AdvancedWaitForGraph24get_waiting_transactions
FNDA:0,_RNvMs3_NtNtCs9nxHbwgHRMj_6rustdb4core21advanced_lock_managerNtB5_19AdvancedLockManager17get_waiting_count
FNDA:0,_RNvMs3_NtNtCs9nxHbwgHRMj_6rustdb4core21advanced_lock_managerNtB5_19AdvancedLockManager18is_lock_compatible
FNDA:0,_RNvMs3_NtNtCs9nxHbwgHRMj_6rustdb4core21advanced_lock_managerNtB5_19AdvancedLockManager21get_transaction_locks
FNDA:0,_RNvMs3_NtNtCs9nxHbwgHRMj_6rustdb4core21advanced_lock_managerNtB5_19AdvancedLockManager25update_statistics_upgrade
FNDA:0,_RNvXNtNtCs9nxHbwgHRMj_6rustdb4core21advanced_lock_managerNtB2_12ResourceTypeNtNtCsixiwFwjEgS7_4core3fmt7Display3fmt
FNDA:1,_RNCNvMs0_NtNtCs9nxHbwgHRMj_6rustdb4core21advanced_lock_managerNtB7_20AdvancedWaitForGraph19dfs_cycle_detection0Bb_
FNDA:26,_RNCNvMs3_NtNtCs9nxHbwgHRMj_6rustdb4core21advanced_lock_managerNtB7_19AdvancedLockManager12acquire_lock0Bb_
FNDA:13,_RNCNvMs3_NtNtCs9nxHbwgHRMj_6rustdb4core21advanced_lock_managerNtB7_19AdvancedLockManager12release_lock0Bb_
FNDA:69,_RNCNvMs3_NtNtCs9nxHbwgHRMj_6rustdb4core21advanced_lock_managerNtB7_19AdvancedLockManager14get_lock_owner0Bb_
FNDA:0,_RNCNvMs3_NtNtCs9nxHbwgHRMj_6rustdb4core21advanced_lock_managerNtB7_19AdvancedLockManager16resolve_deadlock0Bb_
FNDA:1,_RNCNvMs3_NtNtCs9nxHbwgHRMj_6rustdb4core21advanced_lock_managerNtB7_19AdvancedLockManager16try_acquire_lock0Bb_
FNDA:6,_RNCNvMs3_NtNtCs9nxHbwgHRMj_6rustdb4core21advanced_lock_managerNtB7_19AdvancedLockManager17release_all_locks0Bb_
FNDA:6,_RNCNvMs3_NtNtCs9nxHbwgHRMj_6rustdb4core21advanced_lock_managerNtB7_19AdvancedLockManager21release_lock_internal0Bb_
FNDA:1,_RNCNvMs3_NtNtCs9nxHbwgHRMj_6rustdb4core21advanced_lock_managerNtB7_19AdvancedLockManager25remove_from_waiting_queue0Bb_
FNDA:19,_RNvMs0_NtNtCs9nxHbwgHRMj_6rustdb4core21advanced_lock_managerNtB5_20AdvancedWaitForGraph18remove_transaction
FNDA:138,_RNvMs0_NtNtCs9nxHbwgHRMj_6rustdb4core21advanced_lock_managerNtB5_20AdvancedWaitForGraph19dfs_cycle_detection
FNDA:22,_RNvMs0_NtNtCs9nxHbwgHRMj_6rustdb4core21advanced_lock_managerNtB5_20AdvancedWaitForGraph3new
FNDA:69,_RNvMs0_NtNtCs9nxHbwgHRMj_6rustdb4core21advanced_lock_managerNtB5_20AdvancedWaitForGraph8add_edge
FNDA:69,_RNvMs0_NtNtCs9nxHbwgHRMj_6rustdb4core21advanced_lock_managerNtB5_20AdvancedWaitForGraph9has_cycle
FNDA:22,_RNvMs2_NtNtCs9nxHbwgHRMj_6rustdb4core21advanced_lock_managerNtB5_22AdvancedLockStatistics3new
FNDA:26,_RNvMs3_NtNtCs9nxHbwgHRMj_6rustdb4core21advanced_lock_managerNtB5_19AdvancedLockManager12acquire_lock
FNDA:12,_RNvMs3_NtNtCs9nxHbwgHRMj_6rustdb4core21advanced_lock_managerNtB5_19AdvancedLockManager12release_lock
FNDA:0,_RNvMs3_NtNtCs9nxHbwgHRMj_6rustdb4core21advanced_lock_managerNtB5_19AdvancedLockManager14can_grant_lock
FNDA:69,_RNvMs3_NtNtCs9nxHbwgHRMj_6rustdb4core21advanced_lock_managerNtB5_19AdvancedLockManager14get_lock_owner
FNDA:4,_RNvMs3_NtNtCs9nxHbwgHRMj_6rustdb4core21advanced_lock_managerNtB5_19AdvancedLockManager14get_statistics
FNDA:69,_RNvMs3_NtNtCs9nxHbwgHRMj_6rustdb4core21advanced_lock_managerNtB5_19AdvancedLockManager15detect_deadlock
FNDA:0,_RNvMs3_NtNtCs9nxHbwgHRMj_6rustdb4core21advanced_lock_managerNtB5_19AdvancedLockManager16resolve_deadlock
FNDA:93,_RNvMs3_NtNtCs9nxHbwgHRMj_6rustdb4core21advanced_lock_managerNtB5_19AdvancedLockManager16try_acquire_lock
FNDA:6,_RNvMs3_NtNtCs9nxHbwgHRMj_6rustdb4core21advanced_lock_managerNtB5_19AdvancedLockManager17release_all_locks
FNDA:6,_RNvMs3_NtNtCs9nxHbwgHRMj_6rustdb4core21advanced_lock_managerNtB5_19AdvancedLockManager18get_resource_locks
FNDA:69,_RNvMs3_NtNtCs9nxHbwgHRMj_6rustdb4core21advanced_lock_managerNtB5_19AdvancedLockManager20add_to_waiting_queue
FNDA:12,_RNvMs3_NtNtCs9nxHbwgHRMj_6rustdb4core21advanced_lock_managerNtB5_19AdvancedLockManager21process_waiting_queue
FNDA:6,_RNvMs3_NtNtCs9nxHbwgHRMj_6rustdb4core21advanced_lock_managerNtB5_19AdvancedLockManager21release_lock_internal
FNDA:1,_RNvMs3_NtNtCs9nxHbwgHRMj_6rustdb4core21advanced_lock_managerNtB5_19AdvancedLockManager24should_abort_transaction
FNDA:1,_RNvMs3_NtNtCs9nxHbwgHRMj_6rustdb4core21advanced_lock_managerNtB5_19AdvancedLockManager25remove_from_waiting_queue
FNDA:1,_RNvMs3_NtNtCs9nxHbwgHRMj_6rustdb4core21advanced_lock_managerNtB5_19AdvancedLockManager25update_statistics_timeout
FNDA:23,_RNvMs3_NtNtCs9nxHbwgHRMj_6rustdb4core21advanced_lock_managerNtB5_19AdvancedLockManager31update_statistics_lock_acquired
FNDA:18,_RNvMs3_NtNtCs9nxHbwgHRMj_6rustdb4core21advanced_lock_managerNtB5_19AdvancedLockManager31update_statistics_lock_released
FNDA:22,_RNvMs3_NtNtCs9nxHbwgHRMj_6rustdb4core21advanced_lock_managerNtB5_19AdvancedLockManager3new
FNDA:71,_RNvMs_NtNtCs9nxHbwgHRMj_6rustdb4core21advanced_lock_managerNtB4_8LockMode13is_compatible
FNDA:69,_RNvMs_NtNtCs9nxHbwgHRMj_6rustdb4core21advanced_lock_managerNtB4_8LockMode5level
FNDA:23,_RNvXs1_NtNtCs9nxHbwgHRMj_6rustdb4core21advanced_lock_managerNtB5_18AdvancedLockConfigNtNtCsixiwFwjEgS7_4core7default7Default7default
FNF:45
FNH:34
DA:35,0
DA:36,0
DA:37,0
DA:38,0
DA:39,0
DA:40,0
DA:41,0
DA:42,0
DA:44,0
DA:45,0
DA:47,0
DA:67,71
DA:68,71
DA:70,0
DA:71,0
DA:72,0
DA:73,0
DA:76,0
DA:77,0
DA:78,1
DA:81,0
DA:82,0
DA:85,70
DA:88,0
DA:90,71
DA:93,69
DA:94,69
DA:95,0
DA:96,0
DA:97,0
DA:98,0
DA:99,69
DA:101,69
DA:149,104
DA:150,104
DA:151,104
DA:152,104
DA:153,104
DA:154,104
DA:155,104
DA:158,69
DA:159,69
DA:160,69
DA:161,69
DA:162,69
DA:163,69
DA:164,69
DA:165,69
DA:166,69
DA:167,69
DA:168,69
DA:171,19
DA:173,19
DA:174,2
DA:175,1
DA:176,1
DA:177,1
DA:179,18
DA:182,19
DA:183,1
DA:184,0
DA:185,0
DA:186,0
DA:188,18
DA:190,19
DA:191,19
DA:194,69
DA:195,69
DA:196,69
DA:197,69
DA:199,69
DA:200,69
DA:201,69
DA:202,1
DA:203,68
DA:204,0
DA:207,68
DA:208,69
DA:211,138
DA:212,138
DA:213,138
DA:214,138
DA:215,138
DA:216,138
DA:217,138
DA:218,138
DA:220,1
DA:221,1
DA:222,1
DA:223,1
DA:224,137
DA:226,137
DA:227,0
DA:228,137
DA:230,137
DA:231,137
DA:232,137
DA:234,137
DA:235,137
DA:236,69
DA:237,1
DA:238,68
DA:240,68
DA:242,136
DA:243,136
DA:244,136
DA:245,138
DA:248,0
DA:249,0
DA:250,0
DA:251,0
DA:252,0
DA:253,0
DA:254,0
DA:255,0
DA:258,0
DA:259,0
DA:260,0
DA:261,0
DA:262,0
DA:263,0
DA:264,0
DA:265,0
DA:302,105
DA:303,105
DA:304,105
DA:305,105
DA:306,105
DA:307,105
DA:308,105
DA:309,105
DA:310,105
DA:311,105
DA:333,104
DA:334,104
DA:335,104
DA:336,104
DA:337,104
DA:338,104
DA:339,104
DA:340,104
DA:341,104
DA:342,104
DA:347,104
DA:348,104
DA:349,104
DA:350,104
DA:351,104
DA:352,104
DA:353,104
DA:354,104
DA:355,104
DA:356,104
DA:359,26
DA:360,26
DA:361,26
DA:362,26
DA:363,26
DA:364,26
DA:365,26
DA:366,26
DA:367,26
DA:368,26
DA:372,93
DA:374,23
DA:375,23
DA:379,70
DA:380,1
DA:381,1
DA:382,1
DA:383,1
DA:384,1
DA:385,69
DA:388,69
DA:389,69
DA:390,69
DA:391,69
DA:392,69
DA:393,69
DA:394,69
DA:395,0
DA:396,69
DA:399,69
DA:401,1
DA:403,1
DA:405,1
DA:407,1
DA:408,1
DA:409,1
DA:410,1
DA:413,0
DA:414,0
DA:415,0
DA:417,0
DA:418,68
DA:421,68
DA:424,0
DA:429,25
DA:432,0
DA:433,0
DA:434,0
DA:435,0
DA:436,0
DA:437,0
DA:438,0
DA:440,0
DA:441,0
DA:442,0
DA:445,93
DA:446,93
DA:447,93
DA:448,93
DA:449,93
DA:450,93
DA:451,93
DA:452,93
DA:455,93
DA:456,71
DA:457,70
DA:458,1
DA:462,23
DA:463,23
DA:464,23
DA:467,0
DA:468,0
DA:469,0
DA:470,23
DA:473,23
DA:474,23
DA:475,23
DA:476,23
DA:477,23
DA:478,23
DA:479,23
DA:481,23
DA:484,23
DA:485,23
DA:486,23
DA:487,23
DA:488,23
DA:489,23
DA:490,23
DA:492,23
DA:493,93
DA:496,69
DA:497,69
DA:498,69
DA:499,69
DA:500,69
DA:501,69
DA:502,69
DA:503,69
DA:504,69
DA:505,69
DA:506,69
DA:507,69
DA:508,69
DA:509,69
DA:510,69
DA:513,69
DA:514,69
DA:515,69
DA:516,69
DA:517,69
DA:518,69
DA:519,69
DA:522,69
DA:523,69
DA:524,69
DA:525,69
DA:528,69
DA:529,69
DA:530,69
DA:531,69
DA:533,69
DA:534,69
DA:537,12
DA:538,12
DA:539,12
DA:540,12
DA:541,12
DA:542,12
DA:544,12
DA:546,13
DA:549,12
DA:550,11
DA:551,11
DA:552,0
DA:556,12
DA:557,12
DA:558,12
DA:559,12
DA:563,12
DA:564,12
DA:565,12
DA:566,12
DA:569,12
DA:572,12
DA:574,12
DA:575,12
DA:578,6
DA:580,6
DA:581,6
DA:582,6
DA:583,6
DA:584,6
DA:585,6
DA:589,12
DA:590,6
DA:593,6
DA:594,6
DA:597,6
DA:598,6
DA:599,6
DA:600,6
DA:601,6
DA:602,6
DA:604,6
DA:606,6
DA:609,6
DA:610,6
DA:611,6
DA:612,0
DA:616,6
DA:617,6
DA:618,6
DA:619,6
DA:623,6
DA:624,6
DA:625,6
DA:626,6
DA:629,6
DA:631,6
DA:632,6
DA:635,69
DA:636,69
DA:638,69
DA:640,69
DA:642,69
DA:643,0
DA:644,0
DA:646,0
DA:647,69
DA:650,12
DA:651,12
DA:653,12
DA:654,0
DA:655,0
DA:657,0
DA:658,0
DA:659,0
DA:660,0
DA:663,0
DA:664,0
DA:667,0
DA:668,0
DA:669,0
DA:670,0
DA:671,0
DA:674,0
DA:675,0
DA:676,0
DA:677,0
DA:679,0
DA:681,0
DA:684,12
DA:686,12
DA:687,12
DA:690,0
DA:691,0
DA:692,0
DA:693,0
DA:694,0
DA:695,0
DA:697,0
DA:698,0
DA:699,0
DA:700,0
DA:701,0
DA:703,0
DA:705,0
DA:706,0
DA:709,69
DA:710,69
DA:711,69
DA:712,69
DA:715,0
DA:717,0
DA:719,0
DA:723,0
DA:724,0
DA:725,0
DA:730,0
DA:731,0
DA:732,0
DA:733,0
DA:734,0
DA:736,0
DA:737,0
DA:740,1
DA:741,1
DA:742,1
DA:743,1
DA:744,1
DA:746,1
DA:747,1
DA:748,0
DA:749,0
DA:750,1
DA:753,1
DA:754,1
DA:755,1
DA:756,1
DA:757,1
DA:758,1
DA:759,1
DA:760,1
DA:763,1
DA:764,1
DA:765,1
DA:766,0
DA:769,1
DA:770,1
DA:771,1
DA:774,23
DA:775,23
DA:776,23
DA:777,23
DA:778,23
DA:781,1
DA:782,1
DA:783,1
DA:784,1
DA:785,1
DA:788,0
DA:789,0
DA:790,0
DA:791,0
DA:792,0
DA:795,18
DA:796,18
DA:797,18
DA:798,18
DA:799,18
DA:802,4
DA:803,4
DA:804,4
DA:807,6
DA:808,6
DA:809,6
DA:810,6
DA:813,0
DA:814,0
DA:815,0
DA:816,0
DA:817,0
DA:818,0
DA:819,0
DA:820,0
DA:821,0
DA:824,0
DA:825,0
DA:826,0
DA:827,0
BRF:0
BRH:0
LF:474
LH:336
end_of_record
SF:C:\Users\Admin\RustProjects\RustBD\src\core\buffer.rs
FN:267,_RNCNvMs0_NtNtCsioRnW7FrYT6_6rustdb4core6bufferNtB7_13BufferManager11remove_page0Bb_
FN:371,_RNCNvMs0_NtNtCsioRnW7FrYT6_6rustdb4core6bufferNtB7_13BufferManager16update_lru_order0Bb_
FN:49,_RNvMNtNtCs9nxHbwgHRMj_6rustdb4core6bufferNtB2_11BufferStats10miss_ratio
FN:78,_RNvMNtNtCs9nxHbwgHRMj_6rustdb4core6bufferNtB2_11BufferStats12record_write
FN:58,_RNvMNtNtCs9nxHbwgHRMj_6rustdb4core6bufferNtB2_11BufferStats5reset
FN:389,_RNvMs0_NtNtCs9nxHbwgHRMj_6rustdb4core6bufferNtB5_13BufferManager10unpin_page
FN:404,_RNvMs0_NtNtCs9nxHbwgHRMj_6rustdb4core6bufferNtB5_13BufferManager11reset_stats
FN:196,_RNvMs0_NtNtCs9nxHbwgHRMj_6rustdb4core6bufferNtB5_13BufferManager12get_page_mut
FN:419,_RNvMs0_NtNtCs9nxHbwgHRMj_6rustdb4core6bufferNtB5_13BufferManager16dirty_page_count
FN:424,_RNvMs0_NtNtCs9nxHbwgHRMj_6rustdb4core6bufferNtB5_13BufferManager17flush_dirty_pages
FN:124,_RNvMs_NtNtCs9nxHbwgHRMj_6rustdb4core6bufferNtB4_8LRUEntry10mark_clean
FN:461,_RNvNtNtCs9nxHbwgHRMj_6rustdb4core6buffer28create_shared_buffer_manager
FN:530,_RNvNtNtNtCs9nxHbwgHRMj_6rustdb4core6buffer5testss_17test_buffer_stats
FN:495,_RNvNtNtNtCs9nxHbwgHRMj_6rustdb4core6buffer5testss_17test_lru_eviction
FN:511,_RNvNtNtNtCs9nxHbwgHRMj_6rustdb4core6buffer5testss_17test_page_pinning
FN:482,_RNvNtNtNtCs9nxHbwgHRMj_6rustdb4core6buffer5testss_21test_add_and_get_page
FN:547,_RNvNtNtNtCs9nxHbwgHRMj_6rustdb4core6buffer5testss_24test_eviction_strategies
FN:474,_RNvNtNtNtCs9nxHbwgHRMj_6rustdb4core6buffer5testss_28test_buffer_manager_creation
FN:267,_RNCNvMs0_NtNtCs9nxHbwgHRMj_6rustdb4core6bufferNtB7_13BufferManager11remove_page0Bb_
FN:371,_RNCNvMs0_NtNtCs9nxHbwgHRMj_6rustdb4core6bufferNtB7_13BufferManager16update_lru_order0Bb_
FN:83,_RNvMNtNtCs9nxHbwgHRMj_6rustdb4core6bufferNtB2_11BufferStats11record_read
FN:68,_RNvMNtNtCs9nxHbwgHRMj_6rustdb4core6bufferNtB2_11BufferStats13record_access
FN:28,_RNvMNtNtCs9nxHbwgHRMj_6rustdb4core6bufferNtB2_11BufferStats3new
FN:40,_RNvMNtNtCs9nxHbwgHRMj_6rustdb4core6bufferNtB2_11BufferStats9hit_ratio
FN:277,_RNvMs0_NtNtCs9nxHbwgHRMj_6rustdb4core6bufferNtB5_13BufferManager10evict_page
FN:409,_RNvMs0_NtNtCs9nxHbwgHRMj_6rustdb4core6bufferNtB5_13BufferManager10page_count
FN:319,_RNvMs0_NtNtCs9nxHbwgHRMj_6rustdb4core6bufferNtB5_13BufferManager11evict_clock
FN:264,_RNvMs0_NtNtCs9nxHbwgHRMj_6rustdb4core6bufferNtB5_13BufferManager11remove_page
FN:243,_RNvMs0_NtNtCs9nxHbwgHRMj_6rustdb4core6bufferNtB5_13BufferManager11update_page
FN:414,_RNvMs0_NtNtCs9nxHbwgHRMj_6rustdb4core6bufferNtB5_13BufferManager13contains_page
FN:352,_RNvMs0_NtNtCs9nxHbwgHRMj_6rustdb4core6bufferNtB5_13BufferManager14evict_adaptive
FN:369,_RNvMs0_NtNtCs9nxHbwgHRMj_6rustdb4core6bufferNtB5_13BufferManager16update_lru_order
FN:452,_RNvMs0_NtNtCs9nxHbwgHRMj_6rustdb4core6bufferNtB5_13BufferManager21get_eviction_strategy
FN:445,_RNvMs0_NtNtCs9nxHbwgHRMj_6rustdb4core6bufferNtB5_13BufferManager21set_eviction_strategy
FN:160,_RNvMs0_NtNtCs9nxHbwgHRMj_6rustdb4core6bufferNtB5_13BufferManager3new
FN:220,_RNvMs0_NtNtCs9nxHbwgHRMj_6rustdb4core6bufferNtB5_13BufferManager8add_page
FN:173,_RNvMs0_NtNtCs9nxHbwgHRMj_6rustdb4core6bufferNtB5_13BufferManager8get_page
FN:379,_RNvMs0_NtNtCs9nxHbwgHRMj_6rustdb4core6bufferNtB5_13BufferManager8pin_page
FN:296,_RNvMs0_NtNtCs9nxHbwgHRMj_6rustdb4core6bufferNtB5_13BufferManager9evict_lru
FN:399,_RNvMs0_NtNtCs9nxHbwgHRMj_6rustdb4core6bufferNtB5_13BufferManager9get_stats
FN:119,_RNvMs_NtNtCs9nxHbwgHRMj_6rustdb4core6bufferNtB4_8LRUEntry10mark_dirty
FN:103,_RNvMs_NtNtCs9nxHbwgHRMj_6rustdb4core6bufferNtB4_8LRUEntry3new
FN:113,_RNvMs_NtNtCs9nxHbwgHRMj_6rustdb4core6bufferNtB4_8LRUEntry5touch
FNDA:0,_RNCNvMs0_NtNtCsioRnW7FrYT6_6rustdb4core6bufferNtB7_13BufferManager11remove_page0Bb_
FNDA:0,_RNCNvMs0_NtNtCsioRnW7FrYT6_6rustdb4core6bufferNtB7_13BufferManager16update_lru_order0Bb_
FNDA:0,_RNvMNtNtCs9nxHbwgHRMj_6rustdb4core6bufferNtB2_11BufferStats10miss_ratio
FNDA:0,_RNvMNtNtCs9nxHbwgHRMj_6rustdb4core6bufferNtB2_11BufferStats12record_write
FNDA:0,_RNvMNtNtCs9nxHbwgHRMj_6rustdb4core6bufferNtB2_11BufferStats5reset
FNDA:0,_RNvMs0_NtNtCs9nxHbwgHRMj_6rustdb4core6bufferNtB5_13BufferManager10unpin_page
FNDA:0,_RNvMs0_NtNtCs9nxHbwgHRMj_6rustdb4core6bufferNtB5_13BufferManager11reset_stats
FNDA:0,_RNvMs0_NtNtCs9nxHbwgHRMj_6rustdb4core6bufferNtB5_13BufferManager12get_page_mut
FNDA:0,_RNvMs0_NtNtCs9nxHbwgHRMj_6rustdb4core6bufferNtB5_13BufferManager16dirty_page_count
FNDA:0,_RNvMs0_NtNtCs9nxHbwgHRMj_6rustdb4core6bufferNtB5_13BufferManager17flush_dirty_pages
FNDA:0,_RNvMs_NtNtCs9nxHbwgHRMj_6rustdb4core6bufferNtB4_8LRUEntry10mark_clean
FNDA:0,_RNvNtNtCs9nxHbwgHRMj_6rustdb4core6buffer28create_shared_buffer_manager
FNDA:1,_RNvNtNtNtCs9nxHbwgHRMj_6rustdb4core6buffer5testss_17test_buffer_stats
FNDA:1,_RNvNtNtNtCs9nxHbwgHRMj_6rustdb4core6buffer5testss_17test_lru_eviction
FNDA:1,_RNvNtNtNtCs9nxHbwgHRMj_6rustdb4core6buffer5testss_17test_page_pinning
FNDA:1,_RNvNtNtNtCs9nxHbwgHRMj_6rustdb4core6buffer5testss_21test_add_and_get_page
FNDA:1,_RNvNtNtNtCs9nxHbwgHRMj_6rustdb4core6buffer5testss_24test_eviction_strategies
FNDA:1,_RNvNtNtNtCs9nxHbwgHRMj_6rustdb4core6buffer5testss_28test_buffer_manager_creation
FNDA:3,_RNCNvMs0_NtNtCs9nxHbwgHRMj_6rustdb4core6bufferNtB7_13BufferManager11remove_page0Bb_
FNDA:3,_RNCNvMs0_NtNtCs9nxHbwgHRMj_6rustdb4core6bufferNtB7_13BufferManager16update_lru_order0Bb_
FNDA:4,_RNvMNtNtCs9nxHbwgHRMj_6rustdb4core6bufferNtB2_11BufferStats11record_read
FNDA:4,_RNvMNtNtCs9nxHbwgHRMj_6rustdb4core6bufferNtB2_11BufferStats13record_access
FNDA:6,_RNvMNtNtCs9nxHbwgHRMj_6rustdb4core6bufferNtB2_11BufferStats3new
FNDA:1,_RNvMNtNtCs9nxHbwgHRMj_6rustdb4core6bufferNtB2_11BufferStats9hit_ratio
FNDA:2,_RNvMs0_NtNtCs9nxHbwgHRMj_6rustdb4core6bufferNtB5_13BufferManager10evict_page
FNDA:4,_RNvMs0_NtNtCs9nxHbwgHRMj_6rustdb4core6bufferNtB5_13BufferManager10page_count
FNDA:0,_RNvMs0_NtNtCs9nxHbwgHRMj_6rustdb4core6bufferNtB5_13BufferManager11evict_clock
FNDA:2,_RNvMs0_NtNtCs9nxHbwgHRMj_6rustdb4core6bufferNtB5_13BufferManager11remove_page
FNDA:0,_RNvMs0_NtNtCs9nxHbwgHRMj_6rustdb4core6bufferNtB5_13BufferManager11update_page
FNDA:6,_RNvMs0_NtNtCs9nxHbwgHRMj_6rustdb4core6bufferNtB5_13BufferManager13contains_page
FNDA:0,_RNvMs0_NtNtCs9nxHbwgHRMj_6rustdb4core6bufferNtB5_13BufferManager14evict_adaptive
FNDA:3,_RNvMs0_NtNtCs9nxHbwgHRMj_6rustdb4core6bufferNtB5_13BufferManager16update_lru_order
FNDA:2,_RNvMs0_NtNtCs9nxHbwgHRMj_6rustdb4core6bufferNtB5_13BufferManager21get_eviction_strategy
FNDA:2,_RNvMs0_NtNtCs9nxHbwgHRMj_6rustdb4core6bufferNtB5_13BufferManager21set_eviction_strategy
FNDA:6,_RNvMs0_NtNtCs9nxHbwgHRMj_6rustdb4core6bufferNtB5_13BufferManager3new
FNDA:8,_RNvMs0_NtNtCs9nxHbwgHRMj_6rustdb4core6bufferNtB5_13BufferManager8add_page
FNDA:4,_RNvMs0_NtNtCs9nxHbwgHRMj_6rustdb4core6bufferNtB5_13BufferManager8get_page
FNDA:1,_RNvMs0_NtNtCs9nxHbwgHRMj_6rustdb4core6bufferNtB5_13BufferManager8pin_page
FNDA:2,_RNvMs0_NtNtCs9nxHbwgHRMj_6rustdb4core6bufferNtB5_13BufferManager9evict_lru
FNDA:1,_RNvMs0_NtNtCs9nxHbwgHRMj_6rustdb4core6bufferNtB5_13BufferManager9get_stats
FNDA:0,_RNvMs_NtNtCs9nxHbwgHRMj_6rustdb4core6bufferNtB4_8LRUEntry10mark_dirty
FNDA:8,_RNvMs_NtNtCs9nxHbwgHRMj_6rustdb4core6bufferNtB4_8LRUEntry3new
FNDA:3,_RNvMs_NtNtCs9nxHbwgHRMj_6rustdb4core6bufferNtB4_8LRUEntry5touch
FNF:41
FNH:27
DA:28,6
DA:29,6
DA:30,6
DA:31,6
DA:32,6
DA:33,6
DA:34,6
DA:35,6
DA:36,6
DA:37,6
DA:40,1
DA:41,1
DA:42,0
DA:44,1
DA:46,1
DA:49,0
DA:50,0
DA:51,0
DA:53,0
DA:55,0
DA:58,0
DA:59,0
DA:60,0
DA:61,0
DA:62,0
DA:63,0
DA:64,0
DA:65,0
DA:68,4
DA:69,4
DA:70,4
DA:71,3
DA:72,3
DA:73,1
DA:74,1
DA:75,4
DA:78,0
DA:79,0
DA:80,0
DA:83,4
DA:84,4
DA:85,4
DA:103,8
DA:104,8
DA:105,8
DA:106,8
DA:107,8
DA:108,8
DA:109,8
DA:110,8
DA:113,3
DA:114,3
DA:115,3
DA:116,3
DA:119,0
DA:120,0
DA:121,0
DA:124,0
DA:125,0
DA:126,0
DA:160,6
DA:161,6
DA:162,6
DA:163,6
DA:164,6
DA:165,6
DA:166,6
DA:167,6
DA:168,6
DA:169,6
DA:170,6
DA:173,4
DA:174,4
DA:176,4
DA:177,1
DA:178,1
DA:179,3
DA:181,3
DA:184,3
DA:187,3
DA:188,3
DA:189,3
DA:191,0
DA:193,4
DA:196,0
DA:197,0
DA:199,0
DA:200,0
DA:201,0
DA:202,0
DA:204,0
DA:207,0
DA:210,0
DA:211,0
DA:212,0
DA:213,0
DA:215,0
DA:217,0
DA:220,8
DA:221,8
DA:224,8
DA:225,0
DA:226,0
DA:227,8
DA:230,8
DA:231,2
DA:232,6
DA:235,8
DA:236,8
DA:237,8
DA:239,8
DA:240,8
DA:243,0
DA:244,0
DA:246,0
DA:247,0
DA:248,0
DA:251,0
DA:254,0
DA:255,0
DA:256,0
DA:257,0
DA:258,0
DA:260,0
DA:261,0
DA:264,2
DA:265,2
DA:267,3
DA:268,2
DA:269,2
DA:270,2
DA:272,0
DA:274,2
DA:277,2
DA:278,2
DA:279,2
DA:280,0
DA:281,0
DA:284,2
DA:286,2
DA:288,0
DA:289,2
DA:290,0
DA:292,2
DA:293,2
DA:296,2
DA:297,2
DA:299,2
DA:300,2
DA:302,1
DA:303,1
DA:304,1
DA:305,1
DA:306,0
DA:307,0
DA:309,0
DA:310,1
DA:311,0
DA:312,1
DA:314,0
DA:316,2
DA:319,0
DA:320,0
DA:321,0
DA:323,0
DA:324,0
DA:325,0
DA:326,0
DA:327,0
DA:329,0
DA:330,0
DA:332,0
DA:333,0
DA:334,0
DA:335,0
DA:338,0
DA:339,0
DA:340,0
DA:342,0
DA:343,0
DA:345,0
DA:348,0
DA:349,0
DA:352,0
DA:354,0
DA:356,0
DA:358,0
DA:359,0
DA:361,0
DA:364,0
DA:366,0
DA:369,3
DA:371,3
DA:372,3
DA:373,3
DA:375,3
DA:376,3
DA:379,1
DA:380,1
DA:381,1
DA:382,1
DA:383,0
DA:385,1
DA:386,1
DA:389,0
DA:390,0
DA:391,0
DA:392,0
DA:393,0
DA:395,0
DA:396,0
DA:399,1
DA:400,1
DA:401,1
DA:404,0
DA:405,0
DA:406,0
DA:409,4
DA:410,4
DA:411,4
DA:414,6
DA:415,6
DA:416,6
DA:419,0
DA:420,0
DA:421,0
DA:424,0
DA:425,0
DA:426,0
DA:427,0
DA:428,0
DA:429,0
DA:430,0
DA:431,0
DA:433,0
DA:434,0
DA:435,0
DA:436,0
DA:437,0
DA:438,0
DA:441,0
DA:442,0
DA:445,2
DA:446,2
DA:448,2
DA:449,2
DA:452,2
DA:453,2
DA:454,2
DA:461,0
DA:462,0
DA:463,0
DA:464,0
DA:465,0
DA:466,0
DA:474,1
DA:475,1
DA:476,1
DA:477,1
DA:478,1
DA:479,1
DA:482,1
DA:483,1
DA:484,1
DA:486,1
DA:487,1
DA:488,1
DA:490,1
DA:491,1
DA:492,1
DA:495,1
DA:496,1
DA:499,1
DA:500,1
DA:501,1
DA:504,1
DA:505,1
DA:506,1
DA:507,1
DA:508,1
DA:511,1
DA:512,1
DA:514,1
DA:515,1
DA:518,1
DA:519,1
DA:522,1
DA:524,1
DA:526,1
DA:527,1
DA:530,1
DA:531,1
DA:532,1
DA:534,1
DA:535,1
DA:536,1
DA:537,1
DA:539,1
DA:540,1
DA:541,1
DA:542,1
DA:543,1
DA:544,1
DA:547,1
DA:548,1
DA:551,1
DA:552,1
DA:554,1
DA:555,1
DA:556,1
BRF:0
BRH:0
LF:312
LH:183
end_of_record
SF:C:\Users\Admin\RustProjects\RustBD\src\core\concurrency.rs
FN:215,_RNvMs_NtNtCsioRnW7FrYT6_6rustdb4core11concurrencyNtB4_18ConcurrencyManager17abort_transaction
FN:101,_RNvMs_NtNtCsioRnW7FrYT6_6rustdb4core11concurrencyNtB4_18ConcurrencyManager17acquire_read_lock
FN:91,_RNvMs_NtNtCsioRnW7FrYT6_6rustdb4core11concurrencyNtB4_18ConcurrencyManager17begin_transaction
FN:128,_RNvMs_NtNtCsioRnW7FrYT6_6rustdb4core11concurrencyNtB4_18ConcurrencyManager18acquire_write_lock
FN:202,_RNvMs_NtNtCsioRnW7FrYT6_6rustdb4core11concurrencyNtB4_18ConcurrencyManager18commit_transaction
FN:237,_RNvMs_NtNtCsioRnW7FrYT6_6rustdb4core11concurrencyNtB4_18ConcurrencyManager19get_lock_statistics
FN:244,_RNvMs_NtNtCsioRnW7FrYT6_6rustdb4core11concurrencyNtB4_18ConcurrencyManager19get_mvcc_statistics
FN:249,_RNvMs_NtNtCsioRnW7FrYT6_6rustdb4core11concurrencyNtB4_18ConcurrencyManager29update_min_active_transaction
FN:79,_RNvMs_NtNtCsioRnW7FrYT6_6rustdb4core11concurrencyNtB4_18ConcurrencyManager3new
FN:141,_RNvMs_NtNtCsioRnW7FrYT6_6rustdb4core11concurrencyNtB4_18ConcurrencyManager4read
FN:162,_RNvMs_NtNtCsioRnW7FrYT6_6rustdb4core11concurrencyNtB4_18ConcurrencyManager5write
FN:185,_RNvMs_NtNtCsioRnW7FrYT6_6rustdb4core11concurrencyNtB4_18ConcurrencyManager6delete
FN:228,_RNvMs_NtNtCsioRnW7FrYT6_6rustdb4core11concurrencyNtB4_18ConcurrencyManager6vacuum
FN:56,_RNvXNtNtCsioRnW7FrYT6_6rustdb4core11concurrencyNtB2_17ConcurrencyConfigNtNtCsixiwFwjEgS7_4core7default7Default7default
FN:256,_RNvXs0_NtNtCsioRnW7FrYT6_6rustdb4core11concurrencyNtB5_18ConcurrencyManagerNtNtCsixiwFwjEgS7_4core7default7Default7default
FN:106,_RNCNvMs_NtNtCsioRnW7FrYT6_6rustdb4core11concurrencyNtB6_18ConcurrencyManager17acquire_read_lock0Ba_
FN:133,_RNCNvMs_NtNtCsioRnW7FrYT6_6rustdb4core11concurrencyNtB6_18ConcurrencyManager18acquire_write_lock0Ba_
FN:146,_RNCNvMs_NtNtCsioRnW7FrYT6_6rustdb4core11concurrencyNtB6_18ConcurrencyManager4read0Ba_
FN:167,_RNCNvMs_NtNtCsioRnW7FrYT6_6rustdb4core11concurrencyNtB6_18ConcurrencyManager5write0Ba_
FN:185,_RNCNvMs_NtNtCsioRnW7FrYT6_6rustdb4core11concurrencyNtB6_18ConcurrencyManager6delete0Ba_
FN:106,_RNCNvMs_NtNtCs9nxHbwgHRMj_6rustdb4core11concurrencyNtB6_18ConcurrencyManager17acquire_read_lock0Ba_
FN:133,_RNCNvMs_NtNtCs9nxHbwgHRMj_6rustdb4core11concurrencyNtB6_18ConcurrencyManager18acquire_write_lock0Ba_
FN:146,_RNCNvMs_NtNtCs9nxHbwgHRMj_6rustdb4core11concurrencyNtB6_18ConcurrencyManager4read0Ba_
FN:167,_RNCNvMs_NtNtCs9nxHbwgHRMj_6rustdb4core11concurrencyNtB6_18ConcurrencyManager5write0Ba_
FN:185,_RNCNvMs_NtNtCs9nxHbwgHRMj_6rustdb4core11concurrencyNtB6_18ConcurrencyManager6delete0Ba_
FN:215,_RNvMs_NtNtCs9nxHbwgHRMj_6rustdb4core11concurrencyNtB4_18ConcurrencyManager17abort_transaction
FN:101,_RNvMs_NtNtCs9nxHbwgHRMj_6rustdb4core11concurrencyNtB4_18ConcurrencyManager17acquire_read_lock
FN:91,_RNvMs_NtNtCs9nxHbwgHRMj_6rustdb4core11concurrencyNtB4_18ConcurrencyManager17begin_transaction
FN:128,_RNvMs_NtNtCs9nxHbwgHRMj_6rustdb4core11concurrencyNtB4_18ConcurrencyManager18acquire_write_lock
FN:202,_RNvMs_NtNtCs9nxHbwgHRMj_6rustdb4core11concurrencyNtB4_18ConcurrencyManager18commit_transaction
FN:237,_RNvMs_NtNtCs9nxHbwgHRMj_6rustdb4core11concurrencyNtB4_18ConcurrencyManager19get_lock_statistics
FN:244,_RNvMs_NtNtCs9nxHbwgHRMj_6rustdb4core11concurrencyNtB4_18ConcurrencyManager19get_mvcc_statistics
FN:249,_RNvMs_NtNtCs9nxHbwgHRMj_6rustdb4core11concurrencyNtB4_18ConcurrencyManager29update_min_active_transaction
FN:79,_RNvMs_NtNtCs9nxHbwgHRMj_6rustdb4core11concurrencyNtB4_18ConcurrencyManager3new
FN:141,_RNvMs_NtNtCs9nxHbwgHRMj_6rustdb4core11concurrencyNtB4_18ConcurrencyManager4read
FN:162,_RNvMs_NtNtCs9nxHbwgHRMj_6rustdb4core11concurrencyNtB4_18ConcurrencyManager5write
FN:185,_RNvMs_NtNtCs9nxHbwgHRMj_6rustdb4core11concurrencyNtB4_18ConcurrencyManager6delete
FN:228,_RNvMs_NtNtCs9nxHbwgHRMj_6rustdb4core11concurrencyNtB4_18ConcurrencyManager6vacuum
FN:56,_RNvXNtNtCs9nxHbwgHRMj_6rustdb4core11concurrencyNtB2_17ConcurrencyConfigNtNtCsixiwFwjEgS7_4core7default7Default7default
FN:256,_RNvXs0_NtNtCs9nxHbwgHRMj_6rustdb4core11concurrencyNtB5_18ConcurrencyManagerNtNtCsixiwFwjEgS7_4core7default7Default7default
FN:344,_RNCNvNtNtNtCs9nxHbwgHRMj_6rustdb4core11concurrency5testss_11test_vacuum0B9_
FN:276,_RNCNvNtNtNtCs9nxHbwgHRMj_6rustdb4core11concurrency5testss_19test_write_and_read0B9_
FN:325,_RNCNvNtNtNtCs9nxHbwgHRMj_6rustdb4core11concurrency5testss_22test_abort_transaction0B9_
FN:297,_RNCNvNtNtNtCs9nxHbwgHRMj_6rustdb4core11concurrency5testss_26test_transaction_isolation0B9_
FN:266,_RNCNvNtNtNtCs9nxHbwgHRMj_6rustdb4core11concurrency5testss_33test_concurrency_manager_creation0B9_
FN:344,_RNvNtNtNtCs9nxHbwgHRMj_6rustdb4core11concurrency5testss_11test_vacuum
FN:276,_RNvNtNtNtCs9nxHbwgHRMj_6rustdb4core11concurrency5testss_19test_write_and_read
FN:325,_RNvNtNtNtCs9nxHbwgHRMj_6rustdb4core11concurrency5testss_22test_abort_transaction
FN:297,_RNvNtNtNtCs9nxHbwgHRMj_6rustdb4core11concurrency5testss_26test_transaction_isolation
FN:266,_RNvNtNtNtCs9nxHbwgHRMj_6rustdb4core11concurrency5testss_33test_concurrency_manager_creation
FNDA:0,_RNvMs_NtNtCsioRnW7FrYT6_6rustdb4core11concurrencyNtB4_18ConcurrencyManager17abort_transaction
FNDA:0,_RNvMs_NtNtCsioRnW7FrYT6_6rustdb4core11concurrencyNtB4_18ConcurrencyManager17acquire_read_lock
FNDA:0,_RNvMs_NtNtCsioRnW7FrYT6_6rustdb4core11concurrencyNtB4_18ConcurrencyManager17begin_transaction
FNDA:0,_RNvMs_NtNtCsioRnW7FrYT6_6rustdb4core11concurrencyNtB4_18ConcurrencyManager18acquire_write_lock
FNDA:0,_RNvMs_NtNtCsioRnW7FrYT6_6rustdb4core11concurrencyNtB4_18ConcurrencyManager18commit_transaction
FNDA:0,_RNvMs_NtNtCsioRnW7FrYT6_6rustdb4core11concurrencyNtB4_18ConcurrencyManager19get_lock_statistics
FNDA:0,_RNvMs_NtNtCsioRnW7FrYT6_6rustdb4core11concurrencyNtB4_18ConcurrencyManager19get_mvcc_statistics
FNDA:0,_RNvMs_NtNtCsioRnW7FrYT6_6rustdb4core11concurrencyNtB4_18ConcurrencyManager29update_min_active_transaction
FNDA:82,_RNvMs_NtNtCsioRnW7FrYT6_6rustdb4core11concurrencyNtB4_18ConcurrencyManager3new
FNDA:0,_RNvMs_NtNtCsioRnW7FrYT6_6rustdb4core11concurrencyNtB4_18ConcurrencyManager4read
FNDA:0,_RNvMs_NtNtCsioRnW7FrYT6_6rustdb4core11concurrencyNtB4_18ConcurrencyManager5write
FNDA:0,_RNvMs_NtNtCsioRnW7FrYT6_6rustdb4core11concurrencyNtB4_18ConcurrencyManager6delete
FNDA:0,_RNvMs_NtNtCsioRnW7FrYT6_6rustdb4core11concurrencyNtB4_18ConcurrencyManager6vacuum
FNDA:82,_RNvXNtNtCsioRnW7FrYT6_6rustdb4core11concurrencyNtB2_17ConcurrencyConfigNtNtCsixiwFwjEgS7_4core7default7Default7default
FNDA:0,_RNvXs0_NtNtCsioRnW7FrYT6_6rustdb4core11concurrencyNtB5_18ConcurrencyManagerNtNtCsixiwFwjEgS7_4core7default7Default7default
FNDA:0,_RNCNvMs_NtNtCsioRnW7FrYT6_6rustdb4core11concurrencyNtB6_18ConcurrencyManager17acquire_read_lock0Ba_
FNDA:0,_RNCNvMs_NtNtCsioRnW7FrYT6_6rustdb4core11concurrencyNtB6_18ConcurrencyManager18acquire_write_lock0Ba_
FNDA:0,_RNCNvMs_NtNtCsioRnW7FrYT6_6rustdb4core11concurrencyNtB6_18ConcurrencyManager4read0Ba_
FNDA:0,_RNCNvMs_NtNtCsioRnW7FrYT6_6rustdb4core11concurrencyNtB6_18ConcurrencyManager5write0Ba_
FNDA:0,_RNCNvMs_NtNtCsioRnW7FrYT6_6rustdb4core11concurrencyNtB6_18ConcurrencyManager6delete0Ba_
FNDA:0,_RNCNvMs_NtNtCs9nxHbwgHRMj_6rustdb4core11concurrencyNtB6_18ConcurrencyManager17acquire_read_lock0Ba_
FNDA:12,_RNCNvMs_NtNtCs9nxHbwgHRMj_6rustdb4core11concurrencyNtB6_18ConcurrencyManager18acquire_write_lock0Ba_
FNDA:4,_RNCNvMs_NtNtCs9nxHbwgHRMj_6rustdb4core11concurrencyNtB6_18ConcurrencyManager4read0Ba_
FNDA:8,_RNCNvMs_NtNtCs9nxHbwgHRMj_6rustdb4core11concurrencyNtB6_18ConcurrencyManager5write0Ba_
FNDA:2,_RNCNvMs_NtNtCs9nxHbwgHRMj_6rustdb4core11concurrencyNtB6_18ConcurrencyManager6delete0Ba_
FNDA:2,_RNvMs_NtNtCs9nxHbwgHRMj_6rustdb4core11concurrencyNtB4_18ConcurrencyManager17abort_transaction
FNDA:0,_RNvMs_NtNtCs9nxHbwgHRMj_6rustdb4core11concurrencyNtB4_18ConcurrencyManager17acquire_read_lock
FNDA:1,_RNvMs_NtNtCs9nxHbwgHRMj_6rustdb4core11concurrencyNtB4_18ConcurrencyManager17begin_transaction
FNDA:12,_RNvMs_NtNtCs9nxHbwgHRMj_6rustdb4core11concurrencyNtB4_18ConcurrencyManager18acquire_write_lock
FNDA:2,_RNvMs_NtNtCs9nxHbwgHRMj_6rustdb4core11concurrencyNtB4_18ConcurrencyManager18commit_transaction
FNDA:1,_RNvMs_NtNtCs9nxHbwgHRMj_6rustdb4core11concurrencyNtB4_18ConcurrencyManager19get_lock_statistics
FNDA:2,_RNvMs_NtNtCs9nxHbwgHRMj_6rustdb4core11concurrencyNtB4_18ConcurrencyManager19get_mvcc_statistics
FNDA:1,_RNvMs_NtNtCs9nxHbwgHRMj_6rustdb4core11concurrencyNtB4_18ConcurrencyManager29update_min_active_transaction
FNDA:13,_RNvMs_NtNtCs9nxHbwgHRMj_6rustdb4core11concurrencyNtB4_18ConcurrencyManager3new
FNDA:4,_RNvMs_NtNtCs9nxHbwgHRMj_6rustdb4core11concurrencyNtB4_18ConcurrencyManager4read
FNDA:8,_RNvMs_NtNtCs9nxHbwgHRMj_6rustdb4core11concurrencyNtB4_18ConcurrencyManager5write
FNDA:2,_RNvMs_NtNtCs9nxHbwgHRMj_6rustdb4core11concurrencyNtB4_18ConcurrencyManager6delete
FNDA:1,_RNvMs_NtNtCs9nxHbwgHRMj_6rustdb4core11concurrencyNtB4_18ConcurrencyManager6vacuum
FNDA:13,_RNvXNtNtCs9nxHbwgHRMj_6rustdb4core11concurrencyNtB2_17ConcurrencyConfigNtNtCsixiwFwjEgS7_4core7default7Default7default
FNDA:5,_RNvXs0_NtNtCs9nxHbwgHRMj_6rustdb4core11concurrencyNtB5_18ConcurrencyManagerNtNtCsixiwFwjEgS7_4core7default7Default7default
FNDA:1,_RNCNvNtNtNtCs9nxHbwgHRMj_6rustdb4core11concurrency5testss_11test_vacuum0B9_
FNDA:1,_RNCNvNtNtNtCs9nxHbwgHRMj_6rustdb4core11concurrency5testss_19test_write_and_read0B9_
FNDA:1,_RNCNvNtNtNtCs9nxHbwgHRMj_6rustdb4core11concurrency5testss_22test_abort_transaction0B9_
FNDA:1,_RNCNvNtNtNtCs9nxHbwgHRMj_6rustdb4core11concurrency5testss_26test_transaction_isolation0B9_
FNDA:1,_RNCNvNtNtNtCs9nxHbwgHRMj_6rustdb4core11concurrency5testss_33test_concurrency_manager_creation0B9_
FNDA:1,_RNvNtNtNtCs9nxHbwgHRMj_6rustdb4core11concurrency5testss_11test_vacuum
FNDA:1,_RNvNtNtNtCs9nxHbwgHRMj_6rustdb4core11concurrency5testss_19test_write_and_read
FNDA:1,_RNvNtNtNtCs9nxHbwgHRMj_6rustdb4core11concurrency5testss_22test_abort_transaction
FNDA:1,_RNvNtNtNtCs9nxHbwgHRMj_6rustdb4core11concurrency5testss_26test_transaction_isolation
FNDA:1,_RNvNtNtNtCs9nxHbwgHRMj_6rustdb4core11concurrency5testss_33test_concurrency_manager_creation
FNF:30
FNH:28
DA:56,95
DA:57,95
DA:58,95
DA:59,95
DA:60,95
DA:61,95
DA:62,95
DA:63,95
DA:64,95
DA:79,95
DA:80,95
DA:81,95
DA:83,95
DA:84,95
DA:85,95
DA:86,95
DA:87,95
DA:88,95
DA:91,1
DA:92,1
DA:93,1
DA:94,1
DA:95,1
DA:97,1
DA:98,1
DA:101,0
DA:102,0
DA:103,0
DA:104,0
DA:105,0
DA:106,0
DA:107,0
DA:110,0
DA:114,0
DA:115,0
DA:116,0
DA:120,0
DA:121,0
DA:122,0
DA:125,0
DA:128,12
DA:129,12
DA:130,12
DA:131,12
DA:132,12
DA:133,12
DA:135,12
DA:136,12
DA:137,12
DA:138,11
DA:141,4
DA:142,4
DA:143,4
DA:144,4
DA:145,4
DA:146,4
DA:147,4
DA:148,4
DA:149,4
DA:152,0
DA:153,0
DA:154,0
DA:157,0
DA:159,4
DA:162,8
DA:163,8
DA:164,8
DA:165,8
DA:166,8
DA:167,8
DA:169,8
DA:170,8
DA:171,8
DA:173,7
DA:175,7
DA:176,7
DA:177,0
DA:178,0
DA:179,0
DA:181,7
DA:182,7
DA:185,2
DA:187,2
DA:188,2
DA:189,2
DA:191,1
DA:193,1
DA:194,0
DA:195,0
DA:196,0
DA:198,0
DA:199,2
DA:202,2
DA:204,2
DA:205,2
DA:206,0
DA:209,2
DA:211,2
DA:212,2
DA:215,2
DA:217,2
DA:218,2
DA:219,0
DA:222,2
DA:224,2
DA:225,2
DA:228,1
DA:229,1
DA:230,1
DA:232,0
DA:234,1
DA:237,1
DA:238,1
DA:239,1
DA:240,1
DA:241,1
DA:244,2
DA:245,2
DA:246,2
DA:249,1
DA:250,1
DA:251,1
DA:252,1
DA:256,5
DA:257,5
DA:258,5
DA:266,1
DA:267,1
DA:268,1
DA:269,1
DA:271,1
DA:272,1
DA:273,1
DA:276,1
DA:277,1
DA:278,1
DA:279,1
DA:280,1
DA:283,1
DA:286,1
DA:289,1
DA:290,1
DA:291,1
DA:293,1
DA:294,1
DA:297,1
DA:298,1
DA:299,1
DA:302,1
DA:303,1
DA:304,1
DA:305,1
DA:306,1
DA:307,1
DA:310,1
DA:311,1
DA:314,1
DA:317,1
DA:318,1
DA:319,1
DA:321,1
DA:322,1
DA:325,1
DA:326,1
DA:327,1
DA:328,1
DA:329,1
DA:332,1
DA:335,1
DA:338,1
DA:339,1
DA:340,1
DA:341,1
DA:344,1
DA:345,1
DA:346,1
DA:347,1
DA:348,1
DA:351,1
DA:352,1
DA:355,1
DA:356,1
DA:358,1
DA:359,1
BRF:0
BRH:0
LF:199
LH:169
end_of_record
SF:C:\Users\Admin\RustProjects\RustBD\src\core\lock.rs
FN:111,_RNvMs0_NtNtCsioRnW7FrYT6_6rustdb4core4lockNtB5_12WaitForGraph15detect_deadlock
FN:130,_RNvMs0_NtNtCsioRnW7FrYT6_6rustdb4core4lockNtB5_12WaitForGraph16dfs_detect_cycle
FN:103,_RNvMs0_NtNtCsioRnW7FrYT6_6rustdb4core4lockNtB5_12WaitForGraph18remove_transaction
FN:95,_RNvMs0_NtNtCsioRnW7FrYT6_6rustdb4core4lockNtB5_12WaitForGraph8add_edge
FN:324,_RNvMs1_NtNtCsioRnW7FrYT6_6rustdb4core4lockNtB5_11LockManager10grant_lock
FN:206,_RNvMs1_NtNtCsioRnW7FrYT6_6rustdb4core4lockNtB5_11LockManager12acquire_lock
FN:269,_RNvMs1_NtNtCsioRnW7FrYT6_6rustdb4core4lockNtB5_11LockManager12release_lock
FN:526,_RNvMs1_NtNtCsioRnW7FrYT6_6rustdb4core4lockNtB5_11LockManager14get_statistics
FN:535,_RNvMs1_NtNtCsioRnW7FrYT6_6rustdb4core4lockNtB5_11LockManager16get_active_locks
FN:363,_RNvMs1_NtNtCsioRnW7FrYT6_6rustdb4core4lockNtB5_11LockManager17add_to_wait_queue
FN:499,_RNvMs1_NtNtCsioRnW7FrYT6_6rustdb4core4lockNtB5_11LockManager18check_for_deadlock
FN:409,_RNvMs1_NtNtCsioRnW7FrYT6_6rustdb4core4lockNtB5_11LockManager18process_wait_queue
FN:543,_RNvMs1_NtNtCsioRnW7FrYT6_6rustdb4core4lockNtB5_11LockManager20get_waiting_requests
FN:472,_RNvMs1_NtNtCsioRnW7FrYT6_6rustdb4core4lockNtB5_11LockManager21update_wait_for_graph
FN:196,_RNvMs1_NtNtCsioRnW7FrYT6_6rustdb4core4lockNtB5_11LockManager3new
FN:50,_RNvMs_NtNtCsioRnW7FrYT6_6rustdb4core4lockNtB4_8LockMode13is_compatible
FN:28,_RNvXNtNtCsioRnW7FrYT6_6rustdb4core4lockNtB2_8LockTypeNtNtCsixiwFwjEgS7_4core3fmt7Display3fmt
FN:149,_RNCNvMs0_NtNtCsioRnW7FrYT6_6rustdb4core4lockNtB7_12WaitForGraph16dfs_detect_cycle0Bb_
FN:339,_RNCNvMs1_NtNtCsioRnW7FrYT6_6rustdb4core4lockNtB7_11LockManager10grant_lock0Bb_
FN:354,_RNCNvMs1_NtNtCsioRnW7FrYT6_6rustdb4core4lockNtB7_11LockManager10grant_locks_0Bb_
FN:218,_RNCNvMs1_NtNtCsioRnW7FrYT6_6rustdb4core4lockNtB7_11LockManager12acquire_lock0Bb_
FN:232,_RNCNvMs1_NtNtCsioRnW7FrYT6_6rustdb4core4lockNtB7_11LockManager12acquire_locks0_0Bb_
FN:250,_RNCNvMs1_NtNtCsioRnW7FrYT6_6rustdb4core4lockNtB7_11LockManager12acquire_locks1_0Bb_
FN:224,_RNCNvMs1_NtNtCsioRnW7FrYT6_6rustdb4core4lockNtB7_11LockManager12acquire_locks_0Bb_
FN:272,_RNCNvMs1_NtNtCsioRnW7FrYT6_6rustdb4core4lockNtB7_11LockManager12release_lock0Bb_
FN:300,_RNCNvMs1_NtNtCsioRnW7FrYT6_6rustdb4core4lockNtB7_11LockManager12release_locks0_0Bb_
FN:311,_RNCNvMs1_NtNtCsioRnW7FrYT6_6rustdb4core4lockNtB7_11LockManager12release_locks1_0Bb_
FN:279,_RNCNvMs1_NtNtCsioRnW7FrYT6_6rustdb4core4lockNtB7_11LockManager12release_locks_0Bb_
FN:530,_RNCNvMs1_NtNtCsioRnW7FrYT6_6rustdb4core4lockNtB7_11LockManager14get_statistics0Bb_
FN:536,_RNCNvMs1_NtNtCsioRnW7FrYT6_6rustdb4core4lockNtB7_11LockManager16get_active_locks0Bb_
FN:381,_RNCNvMs1_NtNtCsioRnW7FrYT6_6rustdb4core4lockNtB7_11LockManager17add_to_wait_queue0Bb_
FN:397,_RNCNvMs1_NtNtCsioRnW7FrYT6_6rustdb4core4lockNtB7_11LockManager17add_to_wait_queues_0Bb_
FN:503,_RNCNvMs1_NtNtCsioRnW7FrYT6_6rustdb4core4lockNtB7_11LockManager18check_for_deadlock0Bb_
FN:511,_RNCNvMs1_NtNtCsioRnW7FrYT6_6rustdb4core4lockNtB7_11LockManager18check_for_deadlocks_0Bb_
FN:416,_RNCNvMs1_NtNtCsioRnW7FrYT6_6rustdb4core4lockNtB7_11LockManager18process_wait_queue0Bb_
FN:429,_RNCNvMs1_NtNtCsioRnW7FrYT6_6rustdb4core4lockNtB7_11LockManager18process_wait_queues0_0Bb_
FN:464,_RNCNvMs1_NtNtCsioRnW7FrYT6_6rustdb4core4lockNtB7_11LockManager18process_wait_queues1_0Bb_
FN:422,_RNCNvMs1_NtNtCsioRnW7FrYT6_6rustdb4core4lockNtB7_11LockManager18process_wait_queues_0Bb_
FN:547,_RNCNvMs1_NtNtCsioRnW7FrYT6_6rustdb4core4lockNtB7_11LockManager20get_waiting_requests0Bb_
FN:480,_RNCNvMs1_NtNtCsioRnW7FrYT6_6rustdb4core4lockNtB7_11LockManager21update_wait_for_graph0Bb_
FN:483,_RNCNvMs1_NtNtCsioRnW7FrYT6_6rustdb4core4lockNtB7_11LockManager21update_wait_for_graphs_0Bb_
FN:149,_RNCNvMs0_NtNtCs9nxHbwgHRMj_6rustdb4core4lockNtB7_12WaitForGraph16dfs_detect_cycle0Bb_
FN:339,_RNCNvMs1_NtNtCs9nxHbwgHRMj_6rustdb4core4lockNtB7_11LockManager10grant_lock0Bb_
FN:354,_RNCNvMs1_NtNtCs9nxHbwgHRMj_6rustdb4core4lockNtB7_11LockManager10grant_locks_0Bb_
FN:218,_RNCNvMs1_NtNtCs9nxHbwgHRMj_6rustdb4core4lockNtB7_11LockManager12acquire_lock0Bb_
FN:232,_RNCNvMs1_NtNtCs9nxHbwgHRMj_6rustdb4core4lockNtB7_11LockManager12acquire_locks0_0Bb_
FN:250,_RNCNvMs1_NtNtCs9nxHbwgHRMj_6rustdb4core4lockNtB7_11LockManager12acquire_locks1_0Bb_
FN:224,_RNCNvMs1_NtNtCs9nxHbwgHRMj_6rustdb4core4lockNtB7_11LockManager12acquire_locks_0Bb_
FN:272,_RNCNvMs1_NtNtCs9nxHbwgHRMj_6rustdb4core4lockNtB7_11LockManager12release_lock0Bb_
FN:300,_RNCNvMs1_NtNtCs9nxHbwgHRMj_6rustdb4core4lockNtB7_11LockManager12release_locks0_0Bb_
FN:311,_RNCNvMs1_NtNtCs9nxHbwgHRMj_6rustdb4core4lockNtB7_11LockManager12release_locks1_0Bb_
FN:279,_RNCNvMs1_NtNtCs9nxHbwgHRMj_6rustdb4core4lockNtB7_11LockManager12release_locks_0Bb_
FN:530,_RNCNvMs1_NtNtCs9nxHbwgHRMj_6rustdb4core4lockNtB7_11LockManager14get_statistics0Bb_
FN:536,_RNCNvMs1_NtNtCs9nxHbwgHRMj_6rustdb4core4lockNtB7_11LockManager16get_active_locks0Bb_
FN:381,_RNCNvMs1_NtNtCs9nxHbwgHRMj_6rustdb4core4lockNtB7_11LockManager17add_to_wait_queue0Bb_
FN:397,_RNCNvMs1_NtNtCs9nxHbwgHRMj_6rustdb4core4lockNtB7_11LockManager17add_to_wait_queues_0Bb_
FN:503,_RNCNvMs1_NtNtCs9nxHbwgHRMj_6rustdb4core4lockNtB7_11LockManager18check_for_deadlock0Bb_
FN:511,_RNCNvMs1_NtNtCs9nxHbwgHRMj_6rustdb4core4lockNtB7_11LockManager18check_for_deadlocks_0Bb_
FN:416,_RNCNvMs1_NtNtCs9nxHbwgHRMj_6rustdb4core4lockNtB7_11LockManager18process_wait_queue0Bb_
FN:429,_RNCNvMs1_NtNtCs9nxHbwgHRMj_6rustdb4core4lockNtB7_11LockManager18process_wait_queues0_0Bb_
FN:464,_RNCNvMs1_NtNtCs9nxHbwgHRMj_6rustdb4core4lockNtB7_11LockManager18process_wait_queues1_0Bb_
FN:422,_RNCNvMs1_NtNtCs9nxHbwgHRMj_6rustdb4core4lockNtB7_11LockManager18process_wait_queues_0Bb_
FN:547,_RNCNvMs1_NtNtCs9nxHbwgHRMj_6rustdb4core4lockNtB7_11LockManager20get_waiting_requests0Bb_
FN:480,_RNCNvMs1_NtNtCs9nxHbwgHRMj_6rustdb4core4lockNtB7_11LockManager21update_wait_for_graph0Bb_
FN:483,_RNCNvMs1_NtNtCs9nxHbwgHRMj_6rustdb4core4lockNtB7_11LockManager21update_wait_for_graphs_0Bb_
FN:111,_RNvMs0_NtNtCs9nxHbwgHRMj_6rustdb4core4lockNtB5_12WaitForGraph15detect_deadlock
FN:130,_RNvMs0_NtNtCs9nxHbwgHRMj_6rustdb4core4lockNtB5_12WaitForGraph16dfs_detect_cycle
FN:103,_RNvMs0_NtNtCs9nxHbwgHRMj_6rustdb4core4lockNtB5_12WaitForGraph18remove_transaction
FN:95,_RNvMs0_NtNtCs9nxHbwgHRMj_6rustdb4core4lockNtB5_12WaitForGraph8add_edge
FN:324,_RNvMs1_NtNtCs9nxHbwgHRMj_6rustdb4core4lockNtB5_11LockManager10grant_lock
FN:206,_RNvMs1_NtNtCs9nxHbwgHRMj_6rustdb4core4lockNtB5_11LockManager12acquire_lock
FN:269,_RNvMs1_NtNtCs9nxHbwgHRMj_6rustdb4core4lockNtB5_11LockManager12release_lock
FN:526,_RNvMs1_NtNtCs9nxHbwgHRMj_6rustdb4core4lockNtB5_11LockManager14get_statistics
FN:535,_RNvMs1_NtNtCs9nxHbwgHRMj_6rustdb4core4lockNtB5_11LockManager16get_active_locks
FN:363,_RNvMs1_NtNtCs9nxHbwgHRMj_6rustdb4core4lockNtB5_11LockManager17add_to_wait_queue
FN:499,_RNvMs1_NtNtCs9nxHbwgHRMj_6rustdb4core4lockNtB5_11LockManager18check_for_deadlock
FN:409,_RNvMs1_NtNtCs9nxHbwgHRMj_6rustdb4core4lockNtB5_11LockManager18process_wait_queue
FN:543,_RNvMs1_NtNtCs9nxHbwgHRMj_6rustdb4core4lockNtB5_11LockManager20get_waiting_requests
FN:472,_RNvMs1_NtNtCs9nxHbwgHRMj_6rustdb4core4lockNtB5_11LockManager21update_wait_for_graph
FN:196,_RNvMs1_NtNtCs9nxHbwgHRMj_6rustdb4core4lockNtB5_11LockManager3new
FN:50,_RNvMs_NtNtCs9nxHbwgHRMj_6rustdb4core4lockNtB4_8LockMode13is_compatible
FN:28,_RNvXNtNtCs9nxHbwgHRMj_6rustdb4core4lockNtB2_8LockTypeNtNtCsixiwFwjEgS7_4core3fmt7Display3fmt
FNDA:0,_RNvMs0_NtNtCsioRnW7FrYT6_6rustdb4core4lockNtB5_12WaitForGraph15detect_deadlock
FNDA:0,_RNvMs0_NtNtCsioRnW7FrYT6_6rustdb4core4lockNtB5_12WaitForGraph16dfs_detect_cycle
FNDA:0,_RNvMs0_NtNtCsioRnW7FrYT6_6rustdb4core4lockNtB5_12WaitForGraph18remove_transaction
FNDA:0,_RNvMs0_NtNtCsioRnW7FrYT6_6rustdb4core4lockNtB5_12WaitForGraph8add_edge
FNDA:0,_RNvMs1_NtNtCsioRnW7FrYT6_6rustdb4core4lockNtB5_11LockManager10grant_lock
FNDA:0,_RNvMs1_NtNtCsioRnW7FrYT6_6rustdb4core4lockNtB5_11LockManager12acquire_lock
FNDA:0,_RNvMs1_NtNtCsioRnW7FrYT6_6rustdb4core4lockNtB5_11LockManager12release_lock
FNDA:0,_RNvMs1_NtNtCsioRnW7FrYT6_6rustdb4core4lockNtB5_11LockManager14get_statistics
FNDA:0,_RNvMs1_NtNtCsioRnW7FrYT6_6rustdb4core4lockNtB5_11LockManager16get_active_locks
FNDA:0,_RNvMs1_NtNtCsioRnW7FrYT6_6rustdb4core4lockNtB5_11LockManager17add_to_wait_queue
FNDA:0,_RNvMs1_NtNtCsioRnW7FrYT6_6rustdb4core4lockNtB5_11LockManager18check_for_deadlock
FNDA:0,_RNvMs1_NtNtCsioRnW7FrYT6_6rustdb4core4lockNtB5_11LockManager18process_wait_queue
FNDA:0,_RNvMs1_NtNtCsioRnW7FrYT6_6rustdb4core4lockNtB5_11LockManager20get_waiting_requests
FNDA:0,_RNvMs1_NtNtCsioRnW7FrYT6_6rustdb4core4lockNtB5_11LockManager21update_wait_for_graph
FNDA:164,_RNvMs1_NtNtCsioRnW7FrYT6_6rustdb4core4lockNtB5_11LockManager3new
FNDA:0,_RNvMs_NtNtCsioRnW7FrYT6_6rustdb4core4lockNtB4_8LockMode13is_compatible
FNDA:0,_RNvXNtNtCsioRnW7FrYT6_6rustdb4core4lockNtB2_8LockTypeNtNtCsixiwFwjEgS7_4core3fmt7Display3fmt
FNDA:0,_RNCNvMs0_NtNtCsioRnW7FrYT6_6rustdb4core4lockNtB7_12WaitForGraph16dfs_detect_cycle0Bb_
FNDA:0,_RNCNvMs1_NtNtCsioRnW7FrYT6_6rustdb4core4lockNtB7_11LockManager10grant_lock0Bb_
FNDA:0,_RNCNvMs1_NtNtCsioRnW7FrYT6_6rustdb4core4lockNtB7_11LockManager10grant_locks_0Bb_
FNDA:0,_RNCNvMs1_NtNtCsioRnW7FrYT6_6rustdb4core4lockNtB7_11LockManager12acquire_lock0Bb_
FNDA:0,_RNCNvMs1_NtNtCsioRnW7FrYT6_6rustdb4core4lockNtB7_11LockManager12acquire_locks0_0Bb_
FNDA:0,_RNCNvMs1_NtNtCsioRnW7FrYT6_6rustdb4core4lockNtB7_11LockManager12acquire_locks1_0Bb_
FNDA:0,_RNCNvMs1_NtNtCsioRnW7FrYT6_6rustdb4core4lockNtB7_11LockManager12acquire_locks_0Bb_
FNDA:0,_RNCNvMs1_NtNtCsioRnW7FrYT6_6rustdb4core4lockNtB7_11LockManager12release_lock0Bb_
FNDA:0,_RNCNvMs1_NtNtCsioRnW7FrYT6_6rustdb4core4lockNtB7_11LockManager12release_locks0_0Bb_
FNDA:0,_RNCNvMs1_NtNtCsioRnW7FrYT6_6rustdb4core4lockNtB7_11LockManager12release_locks1_0Bb_
FNDA:0,_RNCNvMs1_NtNtCsioRnW7FrYT6_6rustdb4core4lockNtB7_11LockManager12release_locks_0Bb_
FNDA:0,_RNCNvMs1_NtNtCsioRnW7FrYT6_6rustdb4core4lockNtB7_11LockManager14get_statistics0Bb_
FNDA:0,_RNCNvMs1_NtNtCsioRnW7FrYT6_6rustdb4core4lockNtB7_11LockManager16get_active_locks0Bb_
FNDA:0,_RNCNvMs1_NtNtCsioRnW7FrYT6_6rustdb4core4lockNtB7_11LockManager17add_to_wait_queue0Bb_
FNDA:0,_RNCNvMs1_NtNtCsioRnW7FrYT6_6rustdb4core4lockNtB7_11LockManager17add_to_wait_queues_0Bb_
FNDA:0,_RNCNvMs1_NtNtCsioRnW7FrYT6_6rustdb4core4lockNtB7_11LockManager18check_for_deadlock0Bb_
FNDA:0,_RNCNvMs1_NtNtCsioRnW7FrYT6_6rustdb4core4lockNtB7_11LockManager18check_for_deadlocks_0Bb_
FNDA:0,_RNCNvMs1_NtNtCsioRnW7FrYT6_6rustdb4core4lockNtB7_11LockManager18process_wait_queue0Bb_
FNDA:0,_RNCNvMs1_NtNtCsioRnW7FrYT6_6rustdb4core4lockNtB7_11LockManager18process_wait_queues0_0Bb_
FNDA:0,_RNCNvMs1_NtNtCsioRnW7FrYT6_6rustdb4core4lockNtB7_11LockManager18process_wait_queues1_0Bb_
FNDA:0,_RNCNvMs1_NtNtCsioRnW7FrYT6_6rustdb4core4lockNtB7_11LockManager18process_wait_queues_0Bb_
FNDA:0,_RNCNvMs1_NtNtCsioRnW7FrYT6_6rustdb4core4lockNtB7_11LockManager20get_waiting_requests0Bb_
FNDA:0,_RNCNvMs1_NtNtCsioRnW7FrYT6_6rustdb4core4lockNtB7_11LockManager21update_wait_for_graph0Bb_
FNDA:0,_RNCNvMs1_NtNtCsioRnW7FrYT6_6rustdb4core4lockNtB7_11LockManager21update_wait_for_graphs_0Bb_
FNDA:1,_RNCNvMs0_NtNtCs9nxHbwgHRMj_6rustdb4core4lockNtB7_12WaitForGraph16dfs_detect_cycle0Bb_
FNDA:0,_RNCNvMs1_NtNtCs9nxHbwgHRMj_6rustdb4core4lockNtB7_11LockManager10grant_lock0Bb_
FNDA:0,_RNCNvMs1_NtNtCs9nxHbwgHRMj_6rustdb4core4lockNtB7_11LockManager10grant_locks_0Bb_
FNDA:0,_RNCNvMs1_NtNtCs9nxHbwgHRMj_6rustdb4core4lockNtB7_11LockManager12acquire_lock0Bb_
FNDA:14,_RNCNvMs1_NtNtCs9nxHbwgHRMj_6rustdb4core4lockNtB7_11LockManager12acquire_locks0_0Bb_
FNDA:12,_RNCNvMs1_NtNtCs9nxHbwgHRMj_6rustdb4core4lockNtB7_11LockManager12acquire_locks1_0Bb_
FNDA:0,_RNCNvMs1_NtNtCs9nxHbwgHRMj_6rustdb4core4lockNtB7_11LockManager12acquire_locks_0Bb_
FNDA:0,_RNCNvMs1_NtNtCs9nxHbwgHRMj_6rustdb4core4lockNtB7_11LockManager12release_lock0Bb_
FNDA:0,_RNCNvMs1_NtNtCs9nxHbwgHRMj_6rustdb4core4lockNtB7_11LockManager12release_locks0_0Bb_
FNDA:0,_RNCNvMs1_NtNtCs9nxHbwgHRMj_6rustdb4core4lockNtB7_11LockManager12release_locks1_0Bb_
FNDA:265,_RNCNvMs1_NtNtCs9nxHbwgHRMj_6rustdb4core4lockNtB7_11LockManager12release_locks_0Bb_
FNDA:0,_RNCNvMs1_NtNtCs9nxHbwgHRMj_6rustdb4core4lockNtB7_11LockManager14get_statistics0Bb_
FNDA:0,_RNCNvMs1_NtNtCs9nxHbwgHRMj_6rustdb4core4lockNtB7_11LockManager16get_active_locks0Bb_
FNDA:0,_RNCNvMs1_NtNtCs9nxHbwgHRMj_6rustdb4core4lockNtB7_11LockManager17add_to_wait_queue0Bb_
FNDA:0,_RNCNvMs1_NtNtCs9nxHbwgHRMj_6rustdb4core4lockNtB7_11LockManager17add_to_wait_queues_0Bb_
FNDA:0,_RNCNvMs1_NtNtCs9nxHbwgHRMj_6rustdb4core4lockNtB7_11LockManager18check_for_deadlock0Bb_
FNDA:0,_RNCNvMs1_NtNtCs9nxHbwgHRMj_6rustdb4core4lockNtB7_11LockManager18check_for_deadlocks_0Bb_
FNDA:0,_RNCNvMs1_NtNtCs9nxHbwgHRMj_6rustdb4core4lockNtB7_11LockManager18process_wait_queue0Bb_
FNDA:0,_RNCNvMs1_NtNtCs9nxHbwgHRMj_6rustdb4core4lockNtB7_11LockManager18process_wait_queues0_0Bb_
FNDA:0,_RNCNvMs1_NtNtCs9nxHbwgHRMj_6rustdb4core4lockNtB7_11LockManager18process_wait_queues1_0Bb_
FNDA:0,_RNCNvMs1_NtNtCs9nxHbwgHRMj_6rustdb4core4lockNtB7_11LockManager18process_wait_queues_0Bb_
FNDA:0,_RNCNvMs1_NtNtCs9nxHbwgHRMj_6rustdb4core4lockNtB7_11LockManager20get_waiting_requests0Bb_
FNDA:0,_RNCNvMs1_NtNtCs9nxHbwgHRMj_6rustdb4core4lockNtB7_11LockManager21update_wait_for_graph0Bb_
FNDA:0,_RNCNvMs1_NtNtCs9nxHbwgHRMj_6rustdb4core4lockNtB7_11LockManager21update_wait_for_graphs_0Bb_
FNDA:8,_RNvMs0_NtNtCs9nxHbwgHRMj_6rustdb4core4lockNtB5_12WaitForGraph15detect_deadlock
FNDA:17,_RNvMs0_NtNtCs9nxHbwgHRMj_6rustdb4core4lockNtB5_12WaitForGraph16dfs_detect_cycle
FNDA:259,_RNvMs0_NtNtCs9nxHbwgHRMj_6rustdb4core4lockNtB5_12WaitForGraph18remove_transaction
FNDA:8,_RNvMs0_NtNtCs9nxHbwgHRMj_6rustdb4core4lockNtB5_12WaitForGraph8add_edge
FNDA:263,_RNvMs1_NtNtCs9nxHbwgHRMj_6rustdb4core4lockNtB5_11LockManager10grant_lock
FNDA:264,_RNvMs1_NtNtCs9nxHbwgHRMj_6rustdb4core4lockNtB5_11LockManager12acquire_lock
FNDA:259,_RNvMs1_NtNtCs9nxHbwgHRMj_6rustdb4core4lockNtB5_11LockManager12release_lock
FNDA:11,_RNvMs1_NtNtCs9nxHbwgHRMj_6rustdb4core4lockNtB5_11LockManager14get_statistics
FNDA:2,_RNvMs1_NtNtCs9nxHbwgHRMj_6rustdb4core4lockNtB5_11LockManager16get_active_locks
FNDA:8,_RNvMs1_NtNtCs9nxHbwgHRMj_6rustdb4core4lockNtB5_11LockManager17add_to_wait_queue
FNDA:8,_RNvMs1_NtNtCs9nxHbwgHRMj_6rustdb4core4lockNtB5_11LockManager18check_for_deadlock
FNDA:259,_RNvMs1_NtNtCs9nxHbwgHRMj_6rustdb4core4lockNtB5_11LockManager18process_wait_queue
FNDA:1,_RNvMs1_NtNtCs9nxHbwgHRMj_6rustdb4core4lockNtB5_11LockManager20get_waiting_requests
FNDA:8,_RNvMs1_NtNtCs9nxHbwgHRMj_6rustdb4core4lockNtB5_11LockManager21update_wait_for_graph
FNDA:42,_RNvMs1_NtNtCs9nxHbwgHRMj_6rustdb4core4lockNtB5_11LockManager3new
FNDA:16,_RNvMs_NtNtCs9nxHbwgHRMj_6rustdb4core4lockNtB4_8LockMode13is_compatible
FNDA:5,_RNvXNtNtCs9nxHbwgHRMj_6rustdb4core4lockNtB2_8LockTypeNtNtCsixiwFwjEgS7_4core3fmt7Display3fmt
FNF:41
FNH:21
DA:28,5
DA:29,5
DA:30,1
DA:31,1
DA:32,1
DA:33,1
DA:34,1
DA:36,5
DA:50,16
DA:51,16
DA:53,5
DA:55,11
DA:57,16
DA:95,8
DA:96,8
DA:97,8
DA:98,8
DA:99,8
DA:100,8
DA:103,259
DA:104,259
DA:105,259
DA:106,8
DA:107,8
DA:108,259
DA:111,8
DA:112,8
DA:113,8
DA:114,8
DA:116,9
DA:117,9
DA:118,1
DA:119,9
DA:121,1
DA:122,8
DA:123,0
DA:126,7
DA:127,8
DA:130,17
DA:131,17
DA:132,17
DA:133,17
DA:134,17
DA:135,17
DA:136,17
DA:137,17
DA:138,17
DA:139,17
DA:141,17
DA:142,18
DA:143,10
DA:144,8
DA:145,1
DA:146,7
DA:147,2
DA:149,1
DA:150,1
DA:151,1
DA:153,7
DA:155,15
DA:156,15
DA:157,15
DA:158,17
DA:196,206
DA:197,206
DA:198,206
DA:199,206
DA:200,206
DA:201,206
DA:202,206
DA:203,206
DA:206,264
DA:207,264
DA:208,264
DA:209,264
DA:210,264
DA:211,264
DA:212,264
DA:215,264
DA:216,264
DA:217,264
DA:218,264
DA:219,264
DA:223,263
DA:224,264
DA:225,0
DA:226,0
DA:228,264
DA:230,13
DA:231,13
DA:232,14
DA:235,2
DA:236,1
DA:237,1
DA:238,1
DA:242,1
DA:244,0
DA:248,11
DA:249,11
DA:250,12
DA:253,251
DA:257,263
DA:259,255
DA:260,255
DA:263,8
DA:264,7
DA:266,264
DA:269,259
DA:271,259
DA:272,259
DA:273,0
DA:274,0
DA:276,259
DA:277,259
DA:278,259
DA:279,265
DA:281,259
DA:282,255
DA:283,255
DA:285,259
DA:287,0
DA:290,259
DA:291,255
DA:292,255
DA:294,259
DA:297,259
DA:300,259
DA:301,0
DA:302,0
DA:303,259
DA:308,259
DA:309,259
DA:310,259
DA:311,259
DA:312,259
DA:313,259
DA:317,259
DA:318,0
DA:320,259
DA:321,259
DA:324,263
DA:325,263
DA:326,263
DA:327,263
DA:328,263
DA:329,263
DA:330,263
DA:331,263
DA:332,263
DA:333,263
DA:334,263
DA:335,263
DA:336,263
DA:339,263
DA:340,0
DA:341,0
DA:343,263
DA:344,263
DA:345,263
DA:346,263
DA:351,263
DA:352,263
DA:353,263
DA:354,263
DA:355,263
DA:356,263
DA:359,263
DA:360,263
DA:363,8
DA:364,8
DA:365,8
DA:366,8
DA:367,8
DA:368,8
DA:369,8
DA:370,8
DA:371,8
DA:372,8
DA:373,8
DA:374,8
DA:375,8
DA:378,8
DA:379,8
DA:380,8
DA:381,8
DA:383,8
DA:384,8
DA:385,8
DA:386,8
DA:390,8
DA:394,8
DA:395,8
DA:396,8
DA:397,8
DA:398,8
DA:399,8
DA:403,8
DA:405,7
DA:406,8
DA:409,259
DA:410,259
DA:413,259
DA:414,259
DA:415,259
DA:416,259
DA:418,259
DA:419,15
DA:421,8
DA:422,8
DA:423,0
DA:424,0
DA:426,0
DA:428,8
DA:429,0
DA:430,0
DA:431,0
DA:433,8
DA:437,8
DA:438,8
DA:439,8
DA:440,8
DA:441,0
DA:445,7
DA:446,7
DA:447,7
DA:448,252
DA:452,267
DA:453,8
DA:454,8
DA:455,8
DA:456,8
DA:457,8
DA:458,0
DA:461,8
DA:462,8
DA:463,8
DA:464,8
DA:465,8
DA:468,259
DA:469,259
DA:472,8
DA:473,8
DA:474,8
DA:475,8
DA:476,8
DA:477,8
DA:478,8
DA:479,8
DA:480,8
DA:483,8
DA:484,0
DA:485,0
DA:487,8
DA:488,16
DA:489,8
DA:490,8
DA:491,8
DA:493,0
DA:495,8
DA:496,8
DA:499,8
DA:500,8
DA:501,8
DA:502,8
DA:503,8
DA:505,8
DA:508,1
DA:509,1
DA:510,1
DA:511,1
DA:512,1
DA:516,1
DA:517,1
DA:518,1
DA:519,1
DA:520,7
DA:522,7
DA:523,8
DA:526,11
DA:527,11
DA:528,11
DA:529,11
DA:530,11
DA:531,11
DA:532,11
DA:535,2
DA:536,2
DA:537,0
DA:538,0
DA:539,2
DA:540,2
DA:543,1
DA:544,1
DA:545,1
DA:546,1
DA:547,1
DA:548,1
DA:549,1
BRF:0
BRH:0
LF:329
LH:277
end_of_record
SF:C:\Users\Admin\RustProjects\RustBD\src\core\mvcc.rs
FN:390,_RNCNvMs2_NtNtCsioRnW7FrYT6_6rustdb4core4mvccNtB7_11MVCCManager17get_version_count0Bb_
FN:336,_RNCNvMs2_NtNtCsioRnW7FrYT6_6rustdb4core4mvccNtB7_11MVCCManager6vacuum0Bb_
FN:362,_RNCNvMs2_NtNtCsioRnW7FrYT6_6rustdb4core4mvccNtB7_11MVCCManager6vacuums_0Bb_
FN:20,_RNvMNtNtCsioRnW7FrYT6_6rustdb4core4mvccNtB2_9Timestamp3now
FN:28,_RNvMNtNtCsioRnW7FrYT6_6rustdb4core4mvccNtB2_9Timestamp5value
FN:135,_RNvMs0_NtNtCsioRnW7FrYT6_6rustdb4core4mvccNtB5_6RowKey3new
FN:174,_RNvMs1_NtNtCsioRnW7FrYT6_6rustdb4core4mvccNtB5_14MVCCStatistics3new
FN:236,_RNvMs2_NtNtCsioRnW7FrYT6_6rustdb4core4mvccNtB5_11MVCCManager12read_version
FN:200,_RNvMs2_NtNtCsioRnW7FrYT6_6rustdb4core4mvccNtB5_11MVCCManager14create_version
FN:257,_RNvMs2_NtNtCsioRnW7FrYT6_6rustdb4core4mvccNtB5_11MVCCManager14delete_version
FN:383,_RNvMs2_NtNtCsioRnW7FrYT6_6rustdb4core4mvccNtB5_11MVCCManager14get_statistics
FN:304,_RNvMs2_NtNtCsioRnW7FrYT6_6rustdb4core4mvccNtB5_11MVCCManager17abort_transaction
FN:388,_RNvMs2_NtNtCsioRnW7FrYT6_6rustdb4core4mvccNtB5_11MVCCManager17get_version_count
FN:279,_RNvMs2_NtNtCsioRnW7FrYT6_6rustdb4core4mvccNtB5_11MVCCManager18commit_transaction
FN:377,_RNvMs2_NtNtCsioRnW7FrYT6_6rustdb4core4mvccNtB5_11MVCCManager29update_min_active_transaction
FN:190,_RNvMs2_NtNtCsioRnW7FrYT6_6rustdb4core4mvccNtB5_11MVCCManager3new
FN:329,_RNvMs2_NtNtCsioRnW7FrYT6_6rustdb4core4mvccNtB5_11MVCCManager6vacuum
FN:88,_RNvMs_NtNtCsioRnW7FrYT6_6rustdb4core4mvccNtB4_10RowVersion10is_visible
FN:121,_RNvMs_NtNtCsioRnW7FrYT6_6rustdb4core4mvccNtB4_10RowVersion12mark_deleted
FN:69,_RNvMs_NtNtCsioRnW7FrYT6_6rustdb4core4mvccNtB4_10RowVersion3new
FN:116,_RNvMs_NtNtCsioRnW7FrYT6_6rustdb4core4mvccNtB4_10RowVersion5abort
FN:111,_RNvMs_NtNtCsioRnW7FrYT6_6rustdb4core4mvccNtB4_10RowVersion6commit
FN:395,_RNvXs3_NtNtCsioRnW7FrYT6_6rustdb4core4mvccNtB5_11MVCCManagerNtNtCsixiwFwjEgS7_4core7default7Default7default
FN:28,_RNvMNtNtCs9nxHbwgHRMj_6rustdb4core4mvccNtB2_9Timestamp5value
FN:395,_RNvXs3_NtNtCs9nxHbwgHRMj_6rustdb4core4mvccNtB5_11MVCCManagerNtNtCsixiwFwjEgS7_4core7default7Default7default
FN:20,_RNvMNtNtCs9nxHbwgHRMj_6rustdb4core4mvccNtB2_9Timestamp3now
FN:135,_RNvMs0_NtNtCs9nxHbwgHRMj_6rustdb4core4mvccNtB5_6RowKey3new
FN:174,_RNvMs1_NtNtCs9nxHbwgHRMj_6rustdb4core4mvccNtB5_14MVCCStatistics3new
FN:236,_RNvMs2_NtNtCs9nxHbwgHRMj_6rustdb4core4mvccNtB5_11MVCCManager12read_version
FN:200,_RNvMs2_NtNtCs9nxHbwgHRMj_6rustdb4core4mvccNtB5_11MVCCManager14create_version
FN:257,_RNvMs2_NtNtCs9nxHbwgHRMj_6rustdb4core4mvccNtB5_11MVCCManager14delete_version
FN:383,_RNvMs2_NtNtCs9nxHbwgHRMj_6rustdb4core4mvccNtB5_11MVCCManager14get_statistics
FN:304,_RNvMs2_NtNtCs9nxHbwgHRMj_6rustdb4core4mvccNtB5_11MVCCManager17abort_transaction
FN:388,_RNvMs2_NtNtCs9nxHbwgHRMj_6rustdb4core4mvccNtB5_11MVCCManager17get_version_count
FN:279,_RNvMs2_NtNtCs9nxHbwgHRMj_6rustdb4core4mvccNtB5_11MVCCManager18commit_transaction
FN:377,_RNvMs2_NtNtCs9nxHbwgHRMj_6rustdb4core4mvccNtB5_11MVCCManager29update_min_active_transaction
FN:190,_RNvMs2_NtNtCs9nxHbwgHRMj_6rustdb4core4mvccNtB5_11MVCCManager3new
FN:329,_RNvMs2_NtNtCs9nxHbwgHRMj_6rustdb4core4mvccNtB5_11MVCCManager6vacuum
FN:88,_RNvMs_NtNtCs9nxHbwgHRMj_6rustdb4core4mvccNtB4_10RowVersion10is_visible
FN:121,_RNvMs_NtNtCs9nxHbwgHRMj_6rustdb4core4mvccNtB4_10RowVersion12mark_deleted
FN:69,_RNvMs_NtNtCs9nxHbwgHRMj_6rustdb4core4mvccNtB4_10RowVersion3new
FN:116,_RNvMs_NtNtCs9nxHbwgHRMj_6rustdb4core4mvccNtB4_10RowVersion5abort
FN:111,_RNvMs_NtNtCs9nxHbwgHRMj_6rustdb4core4mvccNtB4_10RowVersion6commit
FN:390,_RNCNvMs2_NtNtCs9nxHbwgHRMj_6rustdb4core4mvccNtB7_11MVCCManager17get_version_count0Bb_
FN:336,_RNCNvMs2_NtNtCs9nxHbwgHRMj_6rustdb4core4mvccNtB7_11MVCCManager6vacuum0Bb_
FN:362,_RNCNvMs2_NtNtCs9nxHbwgHRMj_6rustdb4core4mvccNtB7_11MVCCManager6vacuums_0Bb_
FN:483,_RNvNtNtNtCs9nxHbwgHRMj_6rustdb4core4mvcc5testss_11test_vacuum
FN:430,_RNvNtNtNtCs9nxHbwgHRMj_6rustdb4core4mvcc5testss_17test_read_version
FN:413,_RNvNtNtNtCs9nxHbwgHRMj_6rustdb4core4mvcc5testss_19test_create_version
FN:468,_RNvNtNtNtCs9nxHbwgHRMj_6rustdb4core4mvcc5testss_22test_abort_transaction
FN:505,_RNvNtNtNtCs9nxHbwgHRMj_6rustdb4core4mvcc5testss_22test_multiple_versions
FN:453,_RNvNtNtNtCs9nxHbwgHRMj_6rustdb4core4mvcc5testss_23test_commit_transaction
FN:405,_RNvNtNtNtCs9nxHbwgHRMj_6rustdb4core4mvcc5testss_26test_mvcc_manager_creation
FNDA:0,_RNCNvMs2_NtNtCsioRnW7FrYT6_6rustdb4core4mvccNtB7_11MVCCManager17get_version_count0Bb_
FNDA:0,_RNCNvMs2_NtNtCsioRnW7FrYT6_6rustdb4core4mvccNtB7_11MVCCManager6vacuum0Bb_
FNDA:0,_RNCNvMs2_NtNtCsioRnW7FrYT6_6rustdb4core4mvccNtB7_11MVCCManager6vacuums_0Bb_
FNDA:0,_RNvMNtNtCsioRnW7FrYT6_6rustdb4core4mvccNtB2_9Timestamp3now
FNDA:0,_RNvMNtNtCsioRnW7FrYT6_6rustdb4core4mvccNtB2_9Timestamp5value
FNDA:0,_RNvMs0_NtNtCsioRnW7FrYT6_6rustdb4core4mvccNtB5_6RowKey3new
FNDA:82,_RNvMs1_NtNtCsioRnW7FrYT6_6rustdb4core4mvccNtB5_14MVCCStatistics3new
FNDA:0,_RNvMs2_NtNtCsioRnW7FrYT6_6rustdb4core4mvccNtB5_11MVCCManager12read_version
FNDA:0,_RNvMs2_NtNtCsioRnW7FrYT6_6rustdb4core4mvccNtB5_11MVCCManager14create_version
FNDA:0,_RNvMs2_NtNtCsioRnW7FrYT6_6rustdb4core4mvccNtB5_11MVCCManager14delete_version
FNDA:0,_RNvMs2_NtNtCsioRnW7FrYT6_6rustdb4core4mvccNtB5_11MVCCManager14get_statistics
FNDA:0,_RNvMs2_NtNtCsioRnW7FrYT6_6rustdb4core4mvccNtB5_11MVCCManager17abort_transaction
FNDA:0,_RNvMs2_NtNtCsioRnW7FrYT6_6rustdb4core4mvccNtB5_11MVCCManager17get_version_count
FNDA:0,_RNvMs2_NtNtCsioRnW7FrYT6_6rustdb4core4mvccNtB5_11MVCCManager18commit_transaction
FNDA:0,_RNvMs2_NtNtCsioRnW7FrYT6_6rustdb4core4mvccNtB5_11MVCCManager29update_min_active_transaction
FNDA:82,_RNvMs2_NtNtCsioRnW7FrYT6_6rustdb4core4mvccNtB5_11MVCCManager3new
FNDA:0,_RNvMs2_NtNtCsioRnW7FrYT6_6rustdb4core4mvccNtB5_11MVCCManager6vacuum
FNDA:0,_RNvMs_NtNtCsioRnW7FrYT6_6rustdb4core4mvccNtB4_10RowVersion10is_visible
FNDA:0,_RNvMs_NtNtCsioRnW7FrYT6_6rustdb4core4mvccNtB4_10RowVersion12mark_deleted
FNDA:0,_RNvMs_NtNtCsioRnW7FrYT6_6rustdb4core4mvccNtB4_10RowVersion3new
FNDA:0,_RNvMs_NtNtCsioRnW7FrYT6_6rustdb4core4mvccNtB4_10RowVersion5abort
FNDA:0,_RNvMs_NtNtCsioRnW7FrYT6_6rustdb4core4mvccNtB4_10RowVersion6commit
FNDA:0,_RNvXs3_NtNtCsioRnW7FrYT6_6rustdb4core4mvccNtB5_11MVCCManagerNtNtCsixiwFwjEgS7_4core7default7Default7default
FNDA:0,_RNvMNtNtCs9nxHbwgHRMj_6rustdb4core4mvccNtB2_9Timestamp5value
FNDA:0,_RNvXs3_NtNtCs9nxHbwgHRMj_6rustdb4core4mvccNtB5_11MVCCManagerNtNtCsixiwFwjEgS7_4core7default7Default7default
FNDA:22,_RNvMNtNtCs9nxHbwgHRMj_6rustdb4core4mvccNtB2_9Timestamp3now
FNDA:10,_RNvMs0_NtNtCs9nxHbwgHRMj_6rustdb4core4mvccNtB5_6RowKey3new
FNDA:20,_RNvMs1_NtNtCs9nxHbwgHRMj_6rustdb4core4mvccNtB5_14MVCCStatistics3new
FNDA:6,_RNvMs2_NtNtCs9nxHbwgHRMj_6rustdb4core4mvccNtB5_11MVCCManager12read_version
FNDA:14,_RNvMs2_NtNtCs9nxHbwgHRMj_6rustdb4core4mvccNtB5_11MVCCManager14create_version
FNDA:1,_RNvMs2_NtNtCs9nxHbwgHRMj_6rustdb4core4mvccNtB5_11MVCCManager14delete_version
FNDA:7,_RNvMs2_NtNtCs9nxHbwgHRMj_6rustdb4core4mvccNtB5_11MVCCManager14get_statistics
FNDA:4,_RNvMs2_NtNtCs9nxHbwgHRMj_6rustdb4core4mvccNtB5_11MVCCManager17abort_transaction
FNDA:1,_RNvMs2_NtNtCs9nxHbwgHRMj_6rustdb4core4mvccNtB5_11MVCCManager17get_version_count
FNDA:6,_RNvMs2_NtNtCs9nxHbwgHRMj_6rustdb4core4mvccNtB5_11MVCCManager18commit_transaction
FNDA:1,_RNvMs2_NtNtCs9nxHbwgHRMj_6rustdb4core4mvccNtB5_11MVCCManager29update_min_active_transaction
FNDA:20,_RNvMs2_NtNtCs9nxHbwgHRMj_6rustdb4core4mvccNtB5_11MVCCManager3new
FNDA:2,_RNvMs2_NtNtCs9nxHbwgHRMj_6rustdb4core4mvccNtB5_11MVCCManager6vacuum
FNDA:5,_RNvMs_NtNtCs9nxHbwgHRMj_6rustdb4core4mvccNtB4_10RowVersion10is_visible
FNDA:0,_RNvMs_NtNtCs9nxHbwgHRMj_6rustdb4core4mvccNtB4_10RowVersion12mark_deleted
FNDA:14,_RNvMs_NtNtCs9nxHbwgHRMj_6rustdb4core4mvccNtB4_10RowVersion3new
FNDA:4,_RNvMs_NtNtCs9nxHbwgHRMj_6rustdb4core4mvccNtB4_10RowVersion5abort
FNDA:6,_RNvMs_NtNtCs9nxHbwgHRMj_6rustdb4core4mvccNtB4_10RowVersion6commit
FNDA:1,_RNCNvMs2_NtNtCs9nxHbwgHRMj_6rustdb4core4mvccNtB7_11MVCCManager17get_version_count0Bb_
FNDA:2,_RNCNvMs2_NtNtCs9nxHbwgHRMj_6rustdb4core4mvccNtB7_11MVCCManager6vacuum0Bb_
FNDA:2,_RNCNvMs2_NtNtCs9nxHbwgHRMj_6rustdb4core4mvccNtB7_11MVCCManager6vacuums_0Bb_
FNDA:1,_RNvNtNtNtCs9nxHbwgHRMj_6rustdb4core4mvcc5testss_11test_vacuum
FNDA:1,_RNvNtNtNtCs9nxHbwgHRMj_6rustdb4core4mvcc5testss_17test_read_version
FNDA:1,_RNvNtNtNtCs9nxHbwgHRMj_6rustdb4core4mvcc5testss_19test_create_version
FNDA:1,_RNvNtNtNtCs9nxHbwgHRMj_6rustdb4core4mvcc5testss_22test_abort_transaction
FNDA:1,_RNvNtNtNtCs9nxHbwgHRMj_6rustdb4core4mvcc5testss_22test_multiple_versions
FNDA:1,_RNvNtNtNtCs9nxHbwgHRMj_6rustdb4core4mvcc5testss_23test_commit_transaction
FNDA:1,_RNvNtNtNtCs9nxHbwgHRMj_6rustdb4core4mvcc5testss_26test_mvcc_manager_creation
FNF:30
FNH:27
DA:20,22
DA:21,22
DA:22,22
DA:23,22
DA:24,22
DA:25,22
DA:28,0
DA:29,0
DA:30,0
DA:69,14
DA:70,14
DA:71,14
DA:72,14
DA:73,14
DA:74,14
DA:75,14
DA:76,14
DA:77,14
DA:78,14
DA:79,14
DA:80,14
DA:81,14
DA:82,14
DA:83,14
DA:84,14
DA:85,14
DA:88,5
DA:91,5
DA:92,0
DA:93,5
DA:96,5
DA:97,0
DA:98,0
DA:99,0
DA:100,5
DA:103,5
DA:104,4
DA:105,1
DA:106,0
DA:108,5
DA:111,6
DA:112,6
DA:113,6
DA:116,4
DA:117,4
DA:118,4
DA:121,0
DA:122,0
DA:123,0
DA:124,0
DA:135,10
DA:136,10
DA:137,10
DA:174,102
DA:175,102
DA:176,102
DA:177,102
DA:178,102
DA:179,102
DA:180,102
DA:181,102
DA:182,102
DA:183,102
DA:184,102
DA:185,102
DA:190,102
DA:191,102
DA:192,102
DA:193,102
DA:194,102
DA:195,102
DA:196,102
DA:197,102
DA:200,14
DA:201,14
DA:202,14
DA:203,14
DA:204,14
DA:205,14
DA:207,14
DA:208,14
DA:209,14
DA:210,14
DA:211,14
DA:214,14
DA:215,14
DA:218,14
DA:221,14
DA:222,14
DA:225,14
DA:226,14
DA:227,14
DA:228,14
DA:229,14
DA:230,14
DA:232,14
DA:233,14
DA:236,6
DA:237,6
DA:238,6
DA:239,6
DA:240,6
DA:241,6
DA:242,6
DA:244,6
DA:246,5
DA:247,5
DA:248,5
DA:249,0
DA:251,1
DA:253,1
DA:254,6
DA:257,1
DA:258,1
DA:260,1
DA:261,0
DA:262,0
DA:265,0
DA:266,0
DA:267,0
DA:268,0
DA:269,0
DA:271,0
DA:272,0
DA:273,1
DA:275,1
DA:276,1
DA:279,6
DA:280,6
DA:281,6
DA:283,6
DA:284,7
DA:285,7
DA:286,6
DA:287,6
DA:288,6
DA:293,6
DA:294,6
DA:295,6
DA:296,6
DA:297,6
DA:298,6
DA:300,6
DA:301,6
DA:304,4
DA:305,4
DA:306,4
DA:308,4
DA:309,4
DA:310,4
DA:311,4
DA:312,4
DA:313,4
DA:318,4
DA:319,4
DA:320,4
DA:321,4
DA:322,4
DA:323,4
DA:325,4
DA:326,4
DA:329,2
DA:330,2
DA:331,2
DA:332,2
DA:335,2
DA:336,2
DA:341,2
DA:342,0
DA:345,0
DA:349,2
DA:353,2
DA:354,2
DA:355,2
DA:357,2
DA:358,2
DA:362,2
DA:365,2
DA:366,2
DA:367,2
DA:368,2
DA:369,2
DA:370,2
DA:371,2
DA:373,2
DA:374,2
DA:377,1
DA:378,1
DA:379,1
DA:380,1
DA:383,7
DA:384,7
DA:385,7
DA:388,1
DA:389,1
DA:390,1
DA:391,1
DA:395,0
DA:396,0
DA:397,0
DA:405,1
DA:406,1
DA:407,1
DA:408,1
DA:409,1
DA:410,1
DA:413,1
DA:414,1
DA:415,1
DA:416,1
DA:417,1
DA:419,1
DA:420,1
DA:421,1
DA:422,1
DA:424,1
DA:425,1
DA:426,1
DA:427,1
DA:430,1
DA:431,1
DA:432,1
DA:433,1
DA:434,1
DA:437,1
DA:438,1
DA:439,1
DA:442,1
DA:445,1
DA:446,1
DA:447,1
DA:448,1
DA:449,1
DA:450,1
DA:453,1
DA:454,1
DA:455,1
DA:456,1
DA:457,1
DA:459,1
DA:460,1
DA:462,1
DA:463,1
DA:464,1
DA:465,1
DA:468,1
DA:469,1
DA:470,1
DA:471,1
DA:472,1
DA:474,1
DA:475,1
DA:477,1
DA:478,1
DA:479,1
DA:480,1
DA:483,1
DA:484,1
DA:485,1
DA:486,1
DA:487,1
DA:490,1
DA:491,1
DA:492,1
DA:493,1
DA:496,1
DA:497,1
DA:499,1
DA:500,1
DA:501,1
DA:502,1
DA:505,1
DA:506,1
DA:507,1
DA:508,1
DA:509,1
DA:512,1
DA:513,1
DA:514,1
DA:517,1
DA:518,1
DA:519,1
DA:520,1
DA:521,1
DA:524,1
DA:527,1
DA:528,1
DA:529,1
DA:530,1
BRF:0
BRH:0
LF:292
LH:265
end_of_record
SF:C:\Users\Admin\RustProjects\RustBD\src\core\recovery.rs
FN:349,_RNvMNtNtCsioRnW7FrYT6_6rustdb4core8recoveryNtB2_15RecoveryManager12get_next_lsn
FN:336,_RNvMNtNtCsioRnW7FrYT6_6rustdb4core8recoveryNtB2_15RecoveryManager19get_checkpoint_data
FN:170,_RNvMNtNtCsioRnW7FrYT6_6rustdb4core8recoveryNtB2_15RecoveryManager12analyze_logs
FN:377,_RNvMNtNtCsioRnW7FrYT6_6rustdb4core8recoveryNtB2_15RecoveryManager14get_statistics
FN:134,_RNvMNtNtCsioRnW7FrYT6_6rustdb4core8recoveryNtB2_15RecoveryManager16perform_recovery
FN:320,_RNvMNtNtCsioRnW7FrYT6_6rustdb4core8recoveryNtB2_15RecoveryManager17create_checkpoint
FN:252,_RNvMNtNtCsioRnW7FrYT6_6rustdb4core8recoveryNtB2_15RecoveryManager19redo_page_operation
FN:286,_RNvMNtNtCsioRnW7FrYT6_6rustdb4core8recoveryNtB2_15RecoveryManager19undo_page_operation
FN:392,_RNvMNtNtCsioRnW7FrYT6_6rustdb4core8recoveryNtB2_15RecoveryManager20get_pages_to_recover
FN:382,_RNvMNtNtCsioRnW7FrYT6_6rustdb4core8recoveryNtB2_15RecoveryManager23get_active_transactions
FN:195,_RNvMNtNtCsioRnW7FrYT6_6rustdb4core8recoveryNtB2_15RecoveryManager23perform_redo_operations
FN:223,_RNvMNtNtCsioRnW7FrYT6_6rustdb4core8recoveryNtB2_15RecoveryManager23perform_undo_operations
FN:330,_RNvMNtNtCsioRnW7FrYT6_6rustdb4core8recoveryNtB2_15RecoveryManager23recover_from_checkpoint
FN:358,_RNvMNtNtCsioRnW7FrYT6_6rustdb4core8recoveryNtB2_15RecoveryManager26update_recovery_statistics
FN:117,_RNvMNtNtCsioRnW7FrYT6_6rustdb4core8recoveryNtB2_15RecoveryManager3new
FN:372,_RNvMNtNtCsioRnW7FrYT6_6rustdb4core8recoveryNtB2_15RecoveryManager9get_state
FN:433,_RNvXs_NtNtCsioRnW7FrYT6_6rustdb4core8recoveryNtB4_18RecoveryStatisticsNtNtCsixiwFwjEgS7_4core7default7Default7default
FN:170,_RNvMNtNtCs9nxHbwgHRMj_6rustdb4core8recoveryNtB2_15RecoveryManager12analyze_logs
FN:349,_RNvMNtNtCs9nxHbwgHRMj_6rustdb4core8recoveryNtB2_15RecoveryManager12get_next_lsn
FN:377,_RNvMNtNtCs9nxHbwgHRMj_6rustdb4core8recoveryNtB2_15RecoveryManager14get_statistics
FN:134,_RNvMNtNtCs9nxHbwgHRMj_6rustdb4core8recoveryNtB2_15RecoveryManager16perform_recovery
FN:320,_RNvMNtNtCs9nxHbwgHRMj_6rustdb4core8recoveryNtB2_15RecoveryManager17create_checkpoint
FN:336,_RNvMNtNtCs9nxHbwgHRMj_6rustdb4core8recoveryNtB2_15RecoveryManager19get_checkpoint_data
FN:252,_RNvMNtNtCs9nxHbwgHRMj_6rustdb4core8recoveryNtB2_15RecoveryManager19redo_page_operation
FN:286,_RNvMNtNtCs9nxHbwgHRMj_6rustdb4core8recoveryNtB2_15RecoveryManager19undo_page_operation
FN:392,_RNvMNtNtCs9nxHbwgHRMj_6rustdb4core8recoveryNtB2_15RecoveryManager20get_pages_to_recover
FN:382,_RNvMNtNtCs9nxHbwgHRMj_6rustdb4core8recoveryNtB2_15RecoveryManager23get_active_transactions
FN:195,_RNvMNtNtCs9nxHbwgHRMj_6rustdb4core8recoveryNtB2_15RecoveryManager23perform_redo_operations
FN:223,_RNvMNtNtCs9nxHbwgHRMj_6rustdb4core8recoveryNtB2_15RecoveryManager23perform_undo_operations
FN:330,_RNvMNtNtCs9nxHbwgHRMj_6rustdb4core8recoveryNtB2_15RecoveryManager23recover_from_checkpoint
FN:358,_RNvMNtNtCs9nxHbwgHRMj_6rustdb4core8recoveryNtB2_15RecoveryManager26update_recovery_statistics
FN:117,_RNvMNtNtCs9nxHbwgHRMj_6rustdb4core8recoveryNtB2_15RecoveryManager3new
FN:372,_RNvMNtNtCs9nxHbwgHRMj_6rustdb4core8recoveryNtB2_15RecoveryManager9get_state
FN:433,_RNvXs_NtNtCs9nxHbwgHRMj_6rustdb4core8recoveryNtB4_18RecoveryStatisticsNtNtCsixiwFwjEgS7_4core7default7Default7default
FNDA:0,_RNvMNtNtCsioRnW7FrYT6_6rustdb4core8recoveryNtB2_15RecoveryManager12get_next_lsn
FNDA:0,_RNvMNtNtCsioRnW7FrYT6_6rustdb4core8recoveryNtB2_15RecoveryManager19get_checkpoint_data
FNDA:0,_RNvMNtNtCsioRnW7FrYT6_6rustdb4core8recoveryNtB2_15RecoveryManager12analyze_logs
FNDA:0,_RNvMNtNtCsioRnW7FrYT6_6rustdb4core8recoveryNtB2_15RecoveryManager14get_statistics
FNDA:0,_RNvMNtNtCsioRnW7FrYT6_6rustdb4core8recoveryNtB2_15RecoveryManager16perform_recovery
FNDA:0,_RNvMNtNtCsioRnW7FrYT6_6rustdb4core8recoveryNtB2_15RecoveryManager17create_checkpoint
FNDA:0,_RNvMNtNtCsioRnW7FrYT6_6rustdb4core8recoveryNtB2_15RecoveryManager19redo_page_operation
FNDA:0,_RNvMNtNtCsioRnW7FrYT6_6rustdb4core8recoveryNtB2_15RecoveryManager19undo_page_operation
FNDA:0,_RNvMNtNtCsioRnW7FrYT6_6rustdb4core8recoveryNtB2_15RecoveryManager20get_pages_to_recover
FNDA:0,_RNvMNtNtCsioRnW7FrYT6_6rustdb4core8recoveryNtB2_15RecoveryManager23get_active_transactions
FNDA:0,_RNvMNtNtCsioRnW7FrYT6_6rustdb4core8recoveryNtB2_15RecoveryManager23perform_redo_operations
FNDA:0,_RNvMNtNtCsioRnW7FrYT6_6rustdb4core8recoveryNtB2_15RecoveryManager23perform_undo_operations
FNDA:0,_RNvMNtNtCsioRnW7FrYT6_6rustdb4core8recoveryNtB2_15RecoveryManager23recover_from_checkpoint
FNDA:0,_RNvMNtNtCsioRnW7FrYT6_6rustdb4core8recoveryNtB2_15RecoveryManager26update_recovery_statistics
FNDA:0,_RNvMNtNtCsioRnW7FrYT6_6rustdb4core8recoveryNtB2_15RecoveryManager3new
FNDA:0,_RNvMNtNtCsioRnW7FrYT6_6rustdb4core8recoveryNtB2_15RecoveryManager9get_state
FNDA:0,_RNvXs_NtNtCsioRnW7FrYT6_6rustdb4core8recoveryNtB4_18RecoveryStatisticsNtNtCsixiwFwjEgS7_4core7default7Default7default
FNDA:0,_RNvMNtNtCs9nxHbwgHRMj_6rustdb4core8recoveryNtB2_15RecoveryManager12analyze_logs
FNDA:0,_RNvMNtNtCs9nxHbwgHRMj_6rustdb4core8recoveryNtB2_15RecoveryManager12get_next_lsn
FNDA:0,_RNvMNtNtCs9nxHbwgHRMj_6rustdb4core8recoveryNtB2_15RecoveryManager14get_statistics
FNDA:0,_RNvMNtNtCs9nxHbwgHRMj_6rustdb4core8recoveryNtB2_15RecoveryManager16perform_recovery
FNDA:0,_RNvMNtNtCs9nxHbwgHRMj_6rustdb4core8recoveryNtB2_15RecoveryManager17create_checkpoint
FNDA:0,_RNvMNtNtCs9nxHbwgHRMj_6rustdb4core8recoveryNtB2_15RecoveryManager19get_checkpoint_data
FNDA:0,_RNvMNtNtCs9nxHbwgHRMj_6rustdb4core8recoveryNtB2_15RecoveryManager19redo_page_operation
FNDA:0,_RNvMNtNtCs9nxHbwgHRMj_6rustdb4core8recoveryNtB2_15RecoveryManager19undo_page_operation
FNDA:0,_RNvMNtNtCs9nxHbwgHRMj_6rustdb4core8recoveryNtB2_15RecoveryManager20get_pages_to_recover
FNDA:0,_RNvMNtNtCs9nxHbwgHRMj_6rustdb4core8recoveryNtB2_15RecoveryManager23get_active_transactions
FNDA:0,_RNvMNtNtCs9nxHbwgHRMj_6rustdb4core8recoveryNtB2_15RecoveryManager23perform_redo_operations
FNDA:0,_RNvMNtNtCs9nxHbwgHRMj_6rustdb4core8recoveryNtB2_15RecoveryManager23perform_undo_operations
FNDA:0,_RNvMNtNtCs9nxHbwgHRMj_6rustdb4core8recoveryNtB2_15RecoveryManager23recover_from_checkpoint
FNDA:0,_RNvMNtNtCs9nxHbwgHRMj_6rustdb4core8recoveryNtB2_15RecoveryManager26update_recovery_statistics
FNDA:0,_RNvMNtNtCs9nxHbwgHRMj_6rustdb4core8recoveryNtB2_15RecoveryManager3new
FNDA:0,_RNvMNtNtCs9nxHbwgHRMj_6rustdb4core8recoveryNtB2_15RecoveryManager9get_state
FNDA:0,_RNvXs_NtNtCs9nxHbwgHRMj_6rustdb4core8recoveryNtB4_18RecoveryStatisticsNtNtCsixiwFwjEgS7_4core7default7Default7default
FNF:17
FNH:0
DA:117,0
DA:118,0
DA:119,0
DA:120,0
DA:121,0
DA:122,0
DA:123,0
DA:124,0
DA:125,0
DA:126,0
DA:127,0
DA:128,0
DA:129,0
DA:130,0
DA:131,0
DA:134,0
DA:135,0
DA:136,0
DA:137,0
DA:140,0
DA:142,0
DA:143,0
DA:144,0
DA:145,0
DA:148,0
DA:150,0
DA:151,0
DA:152,0
DA:153,0
DA:156,0
DA:158,0
DA:159,0
DA:160,0
DA:161,0
DA:164,0
DA:166,0
DA:167,0
DA:170,0
DA:171,0
DA:172,0
DA:179,0
DA:180,0
DA:181,0
DA:182,0
DA:183,0
DA:185,0
DA:186,0
DA:187,0
DA:188,0
DA:189,0
DA:191,0
DA:192,0
DA:195,0
DA:196,0
DA:197,0
DA:200,0
DA:201,0
DA:203,0
DA:205,0
DA:206,0
DA:208,0
DA:211,0
DA:212,0
DA:213,0
DA:214,0
DA:215,0
DA:216,0
DA:219,0
DA:220,0
DA:223,0
DA:224,0
DA:225,0
DA:228,0
DA:229,0
DA:230,0
DA:232,0
DA:234,0
DA:235,0
DA:237,0
DA:240,0
DA:241,0
DA:242,0
DA:243,0
DA:244,0
DA:245,0
DA:248,0
DA:249,0
DA:252,0
DA:253,0
DA:256,0
DA:257,0
DA:258,0
DA:259,0
DA:260,0
DA:265,0
DA:266,0
DA:267,0
DA:268,0
DA:269,0
DA:272,0
DA:273,0
DA:274,0
DA:275,0
DA:277,0
DA:278,0
DA:279,0
DA:282,0
DA:283,0
DA:286,0
DA:287,0
DA:288,0
DA:289,0
DA:290,0
DA:291,0
DA:295,0
DA:296,0
DA:297,0
DA:298,0
DA:299,0
DA:304,0
DA:305,0
DA:306,0
DA:307,0
DA:308,0
DA:311,0
DA:312,0
DA:313,0
DA:316,0
DA:317,0
DA:320,0
DA:326,0
DA:327,0
DA:330,0
DA:332,0
DA:333,0
DA:336,0
DA:337,0
DA:338,0
DA:340,0
DA:341,0
DA:342,0
DA:343,0
DA:344,0
DA:345,0
DA:346,0
DA:349,0
DA:351,0
DA:352,0
DA:353,0
DA:354,0
DA:355,0
DA:358,0
DA:359,0
DA:360,0
DA:362,0
DA:363,0
DA:364,0
DA:365,0
DA:366,0
DA:368,0
DA:369,0
DA:372,0
DA:373,0
DA:374,0
DA:377,0
DA:378,0
DA:379,0
DA:382,0
DA:383,0
DA:384,0
DA:385,0
DA:386,0
DA:387,0
DA:388,0
DA:389,0
DA:392,0
DA:393,0
DA:394,0
DA:395,0
DA:396,0
DA:397,0
DA:398,0
DA:399,0
DA:433,0
DA:434,0
DA:435,0
DA:436,0
DA:437,0
DA:438,0
DA:439,0
DA:440,0
DA:441,0
DA:442,0
BRF:0
BRH:0
LF:193
LH:0
end_of_record
SF:C:\Users\Admin\RustProjects\RustBD\src\core\recovery_manager.rs
FN:474,_RNCNvMs_NtNtCsioRnW7FrYT6_6rustdb4core16recovery_managerNtB6_23AdvancedRecoveryManager13create_backup0Ba_
FN:487,_RNCNvMs_NtNtCsioRnW7FrYT6_6rustdb4core16recovery_managerNtB6_23AdvancedRecoveryManager13create_backups_0Ba_
FN:249,_RNCNvMs_NtNtCsioRnW7FrYT6_6rustdb4core16recovery_managerNtB6_23AdvancedRecoveryManager13get_log_files0Ba_
FN:253,_RNCNvMs_NtNtCsioRnW7FrYT6_6rustdb4core16recovery_managerNtB6_23AdvancedRecoveryManager13get_log_filess_0Ba_
FN:148,_RNCNvMs_NtNtCsioRnW7FrYT6_6rustdb4core16recovery_managerNtB6_23AdvancedRecoveryManager14needs_recovery0Ba_
FN:249,_RNCNvMs_NtNtCs9nxHbwgHRMj_6rustdb4core16recovery_managerNtB6_23AdvancedRecoveryManager13get_log_files0Ba_
FN:253,_RNCNvMs_NtNtCs9nxHbwgHRMj_6rustdb4core16recovery_managerNtB6_23AdvancedRecoveryManager13get_log_filess_0Ba_
FN:204,_RNvMs_NtNtCs9nxHbwgHRMj_6rustdb4core16recovery_managerNtB4_23AdvancedRecoveryManager12analyze_logs
FN:343,_RNvMs_NtNtCs9nxHbwgHRMj_6rustdb4core16recovery_managerNtB4_23AdvancedRecoveryManager12perform_redo
FN:385,_RNvMs_NtNtCs9nxHbwgHRMj_6rustdb4core16recovery_managerNtB4_23AdvancedRecoveryManager12perform_undo
FN:241,_RNvMs_NtNtCs9nxHbwgHRMj_6rustdb4core16recovery_managerNtB4_23AdvancedRecoveryManager13get_log_files
FN:265,_RNvMs_NtNtCs9nxHbwgHRMj_6rustdb4core16recovery_managerNtB4_23AdvancedRecoveryManager13read_log_file
FN:272,_RNvMs_NtNtCs9nxHbwgHRMj_6rustdb4core16recovery_managerNtB4_23AdvancedRecoveryManager14process_record
FN:421,_RNvMs_NtNtCs9nxHbwgHRMj_6rustdb4core16recovery_managerNtB4_23AdvancedRecoveryManager20apply_redo_operation
FN:443,_RNvMs_NtNtCs9nxHbwgHRMj_6rustdb4core16recovery_managerNtB4_23AdvancedRecoveryManager20apply_undo_operation
FN:158,_RNvMs_NtNtCs9nxHbwgHRMj_6rustdb4core16recovery_managerNtB4_23AdvancedRecoveryManager7recover
FN:134,_RNvMs_NtNtCs9nxHbwgHRMj_6rustdb4core16recovery_managerNtB4_23AdvancedRecoveryManager7set_wal
FN:465,_RNvMs_NtNtCs9nxHbwgHRMj_6rustdb4core16recovery_managerNtB4_23AdvancedRecoveryManager13create_backup
FN:522,_RNvMs_NtNtCs9nxHbwgHRMj_6rustdb4core16recovery_managerNtB4_23AdvancedRecoveryManager14get_statistics
FN:139,_RNvMs_NtNtCs9nxHbwgHRMj_6rustdb4core16recovery_managerNtB4_23AdvancedRecoveryManager14needs_recovery
FN:500,_RNvMs_NtNtCs9nxHbwgHRMj_6rustdb4core16recovery_managerNtB4_23AdvancedRecoveryManager17validate_recovery
FN:125,_RNvMs_NtNtCs9nxHbwgHRMj_6rustdb4core16recovery_managerNtB4_23AdvancedRecoveryManager3new
FN:527,_RNvMs_NtNtCs9nxHbwgHRMj_6rustdb4core16recovery_managerNtB4_23AdvancedRecoveryManager6config
FN:102,_RNvXNtNtCs9nxHbwgHRMj_6rustdb4core16recovery_managerNtB2_14RecoveryConfigNtNtCsixiwFwjEgS7_4core7default7Default7default
FN:533,_RNvXs0_NtNtCs9nxHbwgHRMj_6rustdb4core16recovery_managerNtB5_23AdvancedRecoveryManagerNtNtCsixiwFwjEgS7_4core7default7Default7default
FN:552,_RNvNtNtNtCs9nxHbwgHRMj_6rustdb4core16recovery_manager5testss_19test_needs_recovery
FN:560,_RNvNtNtNtCs9nxHbwgHRMj_6rustdb4core16recovery_manager5testss_20test_recovery_config
FN:592,_RNvNtNtNtCs9nxHbwgHRMj_6rustdb4core16recovery_manager5testss_23test_transaction_states
FN:575,_RNvNtNtNtCs9nxHbwgHRMj_6rustdb4core16recovery_manager5testss_29test_analysis_result_creation
FN:543,_RNvNtNtNtCs9nxHbwgHRMj_6rustdb4core16recovery_manager5testss_30test_recovery_manager_creation
FN:474,_RNCNvMs_NtNtCs9nxHbwgHRMj_6rustdb4core16recovery_managerNtB6_23AdvancedRecoveryManager13create_backup0Ba_
FN:487,_RNCNvMs_NtNtCs9nxHbwgHRMj_6rustdb4core16recovery_managerNtB6_23AdvancedRecoveryManager13create_backups_0Ba_
FN:148,_RNCNvMs_NtNtCs9nxHbwgHRMj_6rustdb4core16recovery_managerNtB6_23AdvancedRecoveryManager14needs_recovery0Ba_
FNDA:0,_RNCNvMs_NtNtCsioRnW7FrYT6_6rustdb4core16recovery_managerNtB6_23AdvancedRecoveryManager13create_backup0Ba_
FNDA:0,_RNCNvMs_NtNtCsioRnW7FrYT6_6rustdb4core16recovery_managerNtB6_23AdvancedRecoveryManager13create_backups_0Ba_
FNDA:0,_RNCNvMs_NtNtCsioRnW7FrYT6_6rustdb4core16recovery_managerNtB6_23AdvancedRecoveryManager13get_log_files0Ba_
FNDA:0,_RNCNvMs_NtNtCsioRnW7FrYT6_6rustdb4core16recovery_managerNtB6_23AdvancedRecoveryManager13get_log_filess_0Ba_
FNDA:0,_RNCNvMs_NtNtCsioRnW7FrYT6_6rustdb4core16recovery_managerNtB6_23AdvancedRecoveryManager14needs_recovery0Ba_
FNDA:0,_RNCNvMs_NtNtCs9nxHbwgHRMj_6rustdb4core16recovery_managerNtB6_23AdvancedRecoveryManager13get_log_files0Ba_
FNDA:0,_RNCNvMs_NtNtCs9nxHbwgHRMj_6rustdb4core16recovery_managerNtB6_23AdvancedRecoveryManager13get_log_filess_0Ba_
FNDA:0,_RNvMs_NtNtCs9nxHbwgHRMj_6rustdb4core16recovery_managerNtB4_23AdvancedRecoveryManager12analyze_logs
FNDA:0,_RNvMs_NtNtCs9nxHbwgHRMj_6rustdb4core16recovery_managerNtB4_23AdvancedRecoveryManager12perform_redo
FNDA:0,_RNvMs_NtNtCs9nxHbwgHRMj_6rustdb4core16recovery_managerNtB4_23AdvancedRecoveryManager12perform_undo
FNDA:0,_RNvMs_NtNtCs9nxHbwgHRMj_6rustdb4core16recovery_managerNtB4_23AdvancedRecoveryManager13get_log_files
FNDA:0,_RNvMs_NtNtCs9nxHbwgHRMj_6rustdb4core16recovery_managerNtB4_23AdvancedRecoveryManager13read_log_file
FNDA:0,_RNvMs_NtNtCs9nxHbwgHRMj_6rustdb4core16recovery_managerNtB4_23AdvancedRecoveryManager14process_record
FNDA:0,_RNvMs_NtNtCs9nxHbwgHRMj_6rustdb4core16recovery_managerNtB4_23AdvancedRecoveryManager20apply_redo_operation
FNDA:0,_RNvMs_NtNtCs9nxHbwgHRMj_6rustdb4core16recovery_managerNtB4_23AdvancedRecoveryManager20apply_undo_operation
FNDA:0,_RNvMs_NtNtCs9nxHbwgHRMj_6rustdb4core16recovery_managerNtB4_23AdvancedRecoveryManager7recover
FNDA:0,_RNvMs_NtNtCs9nxHbwgHRMj_6rustdb4core16recovery_managerNtB4_23AdvancedRecoveryManager7set_wal
FNDA:1,_RNvMs_NtNtCs9nxHbwgHRMj_6rustdb4core16recovery_managerNtB4_23AdvancedRecoveryManager13create_backup
FNDA:3,_RNvMs_NtNtCs9nxHbwgHRMj_6rustdb4core16recovery_managerNtB4_23AdvancedRecoveryManager14get_statistics
FNDA:2,_RNvMs_NtNtCs9nxHbwgHRMj_6rustdb4core16recovery_managerNtB4_23AdvancedRecoveryManager14needs_recovery
FNDA:1,_RNvMs_NtNtCs9nxHbwgHRMj_6rustdb4core16recovery_managerNtB4_23AdvancedRecoveryManager17validate_recovery
FNDA:12,_RNvMs_NtNtCs9nxHbwgHRMj_6rustdb4core16recovery_managerNtB4_23AdvancedRecoveryManager3new
FNDA:7,_RNvMs_NtNtCs9nxHbwgHRMj_6rustdb4core16recovery_managerNtB4_23AdvancedRecoveryManager6config
FNDA:11,_RNvXNtNtCs9nxHbwgHRMj_6rustdb4core16recovery_managerNtB2_14RecoveryConfigNtNtCsixiwFwjEgS7_4core7default7Default7default
FNDA:7,_RNvXs0_NtNtCs9nxHbwgHRMj_6rustdb4core16recovery_managerNtB5_23AdvancedRecoveryManagerNtNtCsixiwFwjEgS7_4core7default7Default7default
FNDA:1,_RNvNtNtNtCs9nxHbwgHRMj_6rustdb4core16recovery_manager5testss_19test_needs_recovery
FNDA:1,_RNvNtNtNtCs9nxHbwgHRMj_6rustdb4core16recovery_manager5testss_20test_recovery_config
FNDA:1,_RNvNtNtNtCs9nxHbwgHRMj_6rustdb4core16recovery_manager5testss_23test_transaction_states
FNDA:1,_RNvNtNtNtCs9nxHbwgHRMj_6rustdb4core16recovery_manager5testss_29test_analysis_result_creation
FNDA:1,_RNvNtNtNtCs9nxHbwgHRMj_6rustdb4core16recovery_manager5testss_30test_recovery_manager_creation
FNDA:0,_RNCNvMs_NtNtCs9nxHbwgHRMj_6rustdb4core16recovery_managerNtB6_23AdvancedRecoveryManager13create_backup0Ba_
FNDA:0,_RNCNvMs_NtNtCs9nxHbwgHRMj_6rustdb4core16recovery_managerNtB6_23AdvancedRecoveryManager13create_backups_0Ba_
FNDA:0,_RNCNvMs_NtNtCs9nxHbwgHRMj_6rustdb4core16recovery_managerNtB6_23AdvancedRecoveryManager14needs_recovery0Ba_
FNF:28
FNH:13
DA:102,11
DA:103,11
DA:104,11
DA:105,11
DA:106,11
DA:107,11
DA:108,11
DA:109,11
DA:110,11
DA:125,12
DA:126,12
DA:127,12
DA:128,12
DA:129,12
DA:130,12
DA:131,12
DA:134,0
DA:135,0
DA:136,0
DA:139,2
DA:141,2
DA:142,2
DA:143,0
DA:146,0
DA:147,0
DA:148,0
DA:149,0
DA:150,0
DA:152,0
DA:154,0
DA:155,2
DA:158,0
DA:159,0
DA:161,0
DA:164,0
DA:165,0
DA:167,0
DA:168,0
DA:171,0
DA:172,0
DA:173,0
DA:175,0
DA:176,0
DA:177,0
DA:181,0
DA:182,0
DA:185,0
DA:186,0
DA:189,0
DA:190,0
DA:191,0
DA:192,0
DA:193,0
DA:195,0
DA:196,0
DA:197,0
DA:200,0
DA:201,0
DA:204,0
DA:205,0
DA:206,0
DA:207,0
DA:208,0
DA:209,0
DA:210,0
DA:211,0
DA:212,0
DA:213,0
DA:216,0
DA:218,0
DA:219,0
DA:220,0
DA:221,0
DA:224,0
DA:225,0
DA:227,0
DA:229,0
DA:230,0
DA:231,0
DA:235,0
DA:237,0
DA:238,0
DA:241,0
DA:242,0
DA:244,0
DA:245,0
DA:246,0
DA:248,0
DA:249,0
DA:251,0
DA:252,0
DA:253,0
DA:254,0
DA:255,0
DA:259,0
DA:261,0
DA:262,0
DA:265,0
DA:268,0
DA:269,0
DA:272,0
DA:274,0
DA:275,0
DA:276,0
DA:279,0
DA:280,0
DA:281,0
DA:284,0
DA:285,0
DA:286,0
DA:287,0
DA:288,0
DA:289,0
DA:290,0
DA:291,0
DA:292,0
DA:293,0
DA:294,0
DA:295,0
DA:296,0
DA:300,0
DA:301,0
DA:302,0
DA:303,0
DA:304,0
DA:305,0
DA:306,0
DA:307,0
DA:312,0
DA:313,0
DA:314,0
DA:315,0
DA:316,0
DA:317,0
DA:318,0
DA:323,0
DA:324,0
DA:325,0
DA:326,0
DA:329,0
DA:330,0
DA:331,0
DA:332,0
DA:334,0
DA:335,0
DA:336,0
DA:339,0
DA:340,0
DA:343,0
DA:344,0
DA:347,0
DA:349,0
DA:350,0
DA:351,0
DA:352,0
DA:356,0
DA:357,0
DA:358,0
DA:363,0
DA:364,0
DA:365,0
DA:367,0
DA:368,0
DA:369,0
DA:372,0
DA:373,0
DA:374,0
DA:375,0
DA:376,0
DA:377,0
DA:379,0
DA:381,0
DA:382,0
DA:385,0
DA:386,0
DA:389,0
DA:390,0
DA:391,0
DA:396,0
DA:397,0
DA:398,0
DA:403,0
DA:404,0
DA:405,0
DA:409,0
DA:410,0
DA:411,0
DA:412,0
DA:413,0
DA:415,0
DA:417,0
DA:418,0
DA:421,0
DA:422,0
DA:426,0
DA:431,0
DA:436,0
DA:438,0
DA:440,0
DA:443,0
DA:444,0
DA:448,0
DA:453,0
DA:458,0
DA:460,0
DA:462,0
DA:465,1
DA:466,1
DA:467,1
DA:468,0
DA:470,0
DA:473,0
DA:474,0
DA:477,0
DA:479,0
DA:480,0
DA:481,0
DA:482,0
DA:483,0
DA:484,0
DA:486,0
DA:487,0
DA:489,0
DA:490,0
DA:492,0
DA:494,0
DA:496,0
DA:497,1
DA:500,1
DA:501,1
DA:502,0
DA:503,1
DA:505,1
DA:508,1
DA:509,0
DA:510,0
DA:511,0
DA:512,1
DA:515,1
DA:516,1
DA:518,1
DA:519,1
DA:522,3
DA:523,3
DA:524,3
DA:527,7
DA:528,7
DA:529,7
DA:533,7
DA:534,7
DA:535,7
DA:543,1
DA:544,1
DA:545,1
DA:547,1
DA:548,1
DA:549,1
DA:552,1
DA:553,1
DA:554,1
DA:556,1
DA:557,1
DA:560,1
DA:561,1
DA:562,1
DA:563,1
DA:564,1
DA:565,1
DA:566,1
DA:567,1
DA:569,1
DA:570,1
DA:571,1
DA:572,1
DA:575,1
DA:576,1
DA:577,1
DA:578,1
DA:579,1
DA:580,1
DA:581,1
DA:582,1
DA:583,1
DA:584,1
DA:586,1
DA:587,1
DA:588,1
DA:589,1
DA:592,1
DA:593,1
DA:597,1
DA:601,1
BRF:0
BRH:0
LF:297
LH:84
end_of_record
SF:C:\Users\Admin\RustProjects\RustBD\src\core\transaction.rs
FN:20,_RNvMNtNtCsioRnW7FrYT6_6rustdb4core11transactionNtB2_13TransactionId3new
FN:24,_RNvMNtNtCsioRnW7FrYT6_6rustdb4core11transactionNtB2_13TransactionId5value
FN:99,_RNvMs0_NtNtCsioRnW7FrYT6_6rustdb4core11transactionNtB5_15TransactionInfo15update_activity
FN:85,_RNvMs0_NtNtCsioRnW7FrYT6_6rustdb4core11transactionNtB5_15TransactionInfo3new
FN:103,_RNvMs0_NtNtCsioRnW7FrYT6_6rustdb4core11transactionNtB5_15TransactionInfo8duration
FN:203,_RNvMs2_NtNtCsioRnW7FrYT6_6rustdb4core11transactionNtB5_18TransactionManager10get_config
FN:184,_RNvMs2_NtNtCsioRnW7FrYT6_6rustdb4core11transactionNtB5_18TransactionManager11with_config
FN:383,_RNvMs2_NtNtCsioRnW7FrYT6_6rustdb4core11transactionNtB5_18TransactionManager12acquire_lock
FN:430,_RNvMs2_NtNtCsioRnW7FrYT6_6rustdb4core11transactionNtB5_18TransactionManager12release_lock
FN:208,_RNvMs2_NtNtCsioRnW7FrYT6_6rustdb4core11transactionNtB5_18TransactionManager14get_statistics
FN:318,_RNvMs2_NtNtCsioRnW7FrYT6_6rustdb4core11transactionNtB5_18TransactionManager17abort_transaction
FN:217,_RNvMs2_NtNtCsioRnW7FrYT6_6rustdb4core11transactionNtB5_18TransactionManager17begin_transaction
FN:456,_RNvMs2_NtNtCsioRnW7FrYT6_6rustdb4core11transactionNtB5_18TransactionManager17release_all_locks
FN:266,_RNvMs2_NtNtCsioRnW7FrYT6_6rustdb4core11transactionNtB5_18TransactionManager18commit_transaction
FN:362,_RNvMs2_NtNtCsioRnW7FrYT6_6rustdb4core11transactionNtB5_18TransactionManager20get_transaction_info
FN:374,_RNvMs2_NtNtCsioRnW7FrYT6_6rustdb4core11transactionNtB5_18TransactionManager23get_active_transactions
FN:496,_RNvMs2_NtNtCsioRnW7FrYT6_6rustdb4core11transactionNtB5_18TransactionManager24update_transaction_state
FN:514,_RNvMs2_NtNtCsioRnW7FrYT6_6rustdb4core11transactionNtB5_18TransactionManager25ensure_transaction_active
FN:179,_RNvMs2_NtNtCsioRnW7FrYT6_6rustdb4core11transactionNtB5_18TransactionManager3new
FN:198,_RNvMs2_NtNtCsioRnW7FrYT6_6rustdb4core11transactionNtB5_18TransactionManager7set_wal
FN:147,_RNvXs1_NtNtCsioRnW7FrYT6_6rustdb4core11transactionNtB5_24TransactionManagerConfigNtNtCsixiwFwjEgS7_4core7default7Default7default
FN:30,_RNvXs_NtNtCsioRnW7FrYT6_6rustdb4core11transactionNtB4_13TransactionIdNtNtCsixiwFwjEgS7_4core3fmt7Display3fmt
FN:106,_RNCNvMs0_NtNtCsioRnW7FrYT6_6rustdb4core11transactionNtB7_15TransactionInfo8duration0Bb_
FN:403,_RNCNvMs2_NtNtCsioRnW7FrYT6_6rustdb4core11transactionNtB7_18TransactionManager12acquire_lock0Bb_
FN:416,_RNCNvMs2_NtNtCsioRnW7FrYT6_6rustdb4core11transactionNtB7_18TransactionManager12acquire_locks_0Bb_
FN:436,_RNCNvMs2_NtNtCsioRnW7FrYT6_6rustdb4core11transactionNtB7_18TransactionManager12release_lock0Bb_
FN:449,_RNCNvMs2_NtNtCsioRnW7FrYT6_6rustdb4core11transactionNtB7_18TransactionManager12release_locks_0Bb_
FN:212,_RNCNvMs2_NtNtCsioRnW7FrYT6_6rustdb4core11transactionNtB7_18TransactionManager14get_statistics0Bb_
FN:321,_RNCNvMs2_NtNtCsioRnW7FrYT6_6rustdb4core11transactionNtB7_18TransactionManager17abort_transaction0Bb_
FN:338,_RNCNvMs2_NtNtCsioRnW7FrYT6_6rustdb4core11transactionNtB7_18TransactionManager17abort_transactions0_0Bb_
FN:353,_RNCNvMs2_NtNtCsioRnW7FrYT6_6rustdb4core11transactionNtB7_18TransactionManager17abort_transactions1_0Bb_
FN:325,_RNCNvMs2_NtNtCsioRnW7FrYT6_6rustdb4core11transactionNtB7_18TransactionManager17abort_transactions_0Bb_
FN:224,_RNCNvMs2_NtNtCsioRnW7FrYT6_6rustdb4core11transactionNtB7_18TransactionManager17begin_transaction0Bb_
FN:257,_RNCNvMs2_NtNtCsioRnW7FrYT6_6rustdb4core11transactionNtB7_18TransactionManager17begin_transactions0_0Bb_
FN:246,_RNCNvMs2_NtNtCsioRnW7FrYT6_6rustdb4core11transactionNtB7_18TransactionManager17begin_transactions_0Bb_
FN:459,_RNCNvMs2_NtNtCsioRnW7FrYT6_6rustdb4core11transactionNtB7_18TransactionManager17release_all_locks0Bb_
FN:475,_RNCNvMs2_NtNtCsioRnW7FrYT6_6rustdb4core11transactionNtB7_18TransactionManager17release_all_lockss0_0Bb_
FN:488,_RNCNvMs2_NtNtCsioRnW7FrYT6_6rustdb4core11transactionNtB7_18TransactionManager17release_all_lockss1_0Bb_
FN:465,_RNCNvMs2_NtNtCsioRnW7FrYT6_6rustdb4core11transactionNtB7_18TransactionManager17release_all_lockss_0Bb_
FN:269,_RNCNvMs2_NtNtCsioRnW7FrYT6_6rustdb4core11transactionNtB7_18TransactionManager18commit_transaction0Bb_
FN:294,_RNCNvMs2_NtNtCsioRnW7FrYT6_6rustdb4core11transactionNtB7_18TransactionManager18commit_transactions0_0Bb_
FN:309,_RNCNvMs2_NtNtCsioRnW7FrYT6_6rustdb4core11transactionNtB7_18TransactionManager18commit_transactions1_0Bb_
FN:273,_RNCNvMs2_NtNtCsioRnW7FrYT6_6rustdb4core11transactionNtB7_18TransactionManager18commit_transactions_0Bb_
FN:366,_RNCNvMs2_NtNtCsioRnW7FrYT6_6rustdb4core11transactionNtB7_18TransactionManager20get_transaction_info0Bb_
FN:375,_RNCNvMs2_NtNtCsioRnW7FrYT6_6rustdb4core11transactionNtB7_18TransactionManager23get_active_transactions0Bb_
FN:501,_RNCNvMs2_NtNtCsioRnW7FrYT6_6rustdb4core11transactionNtB7_18TransactionManager24update_transaction_state0Bb_
FN:515,_RNCNvMs2_NtNtCsioRnW7FrYT6_6rustdb4core11transactionNtB7_18TransactionManager25ensure_transaction_active0Bb_
FN:24,_RNvMNtNtCs9nxHbwgHRMj_6rustdb4core11transactionNtB2_13TransactionId5value
FN:198,_RNvMs2_NtNtCs9nxHbwgHRMj_6rustdb4core11transactionNtB5_18TransactionManager7set_wal
FN:106,_RNCNvMs0_NtNtCs9nxHbwgHRMj_6rustdb4core11transactionNtB7_15TransactionInfo8duration0Bb_
FN:403,_RNCNvMs2_NtNtCs9nxHbwgHRMj_6rustdb4core11transactionNtB7_18TransactionManager12acquire_lock0Bb_
FN:416,_RNCNvMs2_NtNtCs9nxHbwgHRMj_6rustdb4core11transactionNtB7_18TransactionManager12acquire_locks_0Bb_
FN:436,_RNCNvMs2_NtNtCs9nxHbwgHRMj_6rustdb4core11transactionNtB7_18TransactionManager12release_lock0Bb_
FN:449,_RNCNvMs2_NtNtCs9nxHbwgHRMj_6rustdb4core11transactionNtB7_18TransactionManager12release_locks_0Bb_
FN:212,_RNCNvMs2_NtNtCs9nxHbwgHRMj_6rustdb4core11transactionNtB7_18TransactionManager14get_statistics0Bb_
FN:321,_RNCNvMs2_NtNtCs9nxHbwgHRMj_6rustdb4core11transactionNtB7_18TransactionManager17abort_transaction0Bb_
FN:338,_RNCNvMs2_NtNtCs9nxHbwgHRMj_6rustdb4core11transactionNtB7_18TransactionManager17abort_transactions0_0Bb_
FN:353,_RNCNvMs2_NtNtCs9nxHbwgHRMj_6rustdb4core11transactionNtB7_18TransactionManager17abort_transactions1_0Bb_
FN:325,_RNCNvMs2_NtNtCs9nxHbwgHRMj_6rustdb4core11transactionNtB7_18TransactionManager17abort_transactions_0Bb_
FN:224,_RNCNvMs2_NtNtCs9nxHbwgHRMj_6rustdb4core11transactionNtB7_18TransactionManager17begin_transaction0Bb_
FN:257,_RNCNvMs2_NtNtCs9nxHbwgHRMj_6rustdb4core11transactionNtB7_18TransactionManager17begin_transactions0_0Bb_
FN:246,_RNCNvMs2_NtNtCs9nxHbwgHRMj_6rustdb4core11transactionNtB7_18TransactionManager17begin_transactions_0Bb_
FN:459,_RNCNvMs2_NtNtCs9nxHbwgHRMj_6rustdb4core11transactionNtB7_18TransactionManager17release_all_locks0Bb_
FN:475,_RNCNvMs2_NtNtCs9nxHbwgHRMj_6rustdb4core11transactionNtB7_18TransactionManager17release_all_lockss0_0Bb_
FN:488,_RNCNvMs2_NtNtCs9nxHbwgHRMj_6rustdb4core11transactionNtB7_18TransactionManager17release_all_lockss1_0Bb_
FN:465,_RNCNvMs2_NtNtCs9nxHbwgHRMj_6rustdb4core11transactionNtB7_18TransactionManager17release_all_lockss_0Bb_
FN:269,_RNCNvMs2_NtNtCs9nxHbwgHRMj_6rustdb4core11transactionNtB7_18TransactionManager18commit_transaction0Bb_
FN:294,_RNCNvMs2_NtNtCs9nxHbwgHRMj_6rustdb4core11transactionNtB7_18TransactionManager18commit_transactions0_0Bb_
FN:309,_RNCNvMs2_NtNtCs9nxHbwgHRMj_6rustdb4core11transactionNtB7_18TransactionManager18commit_transactions1_0Bb_
FN:273,_RNCNvMs2_NtNtCs9nxHbwgHRMj_6rustdb4core11transactionNtB7_18TransactionManager18commit_transactions_0Bb_
FN:366,_RNCNvMs2_NtNtCs9nxHbwgHRMj_6rustdb4core11transactionNtB7_18TransactionManager20get_transaction_info0Bb_
FN:375,_RNCNvMs2_NtNtCs9nxHbwgHRMj_6rustdb4core11transactionNtB7_18TransactionManager23get_active_transactions0Bb_
FN:501,_RNCNvMs2_NtNtCs9nxHbwgHRMj_6rustdb4core11transactionNtB7_18TransactionManager24update_transaction_state0Bb_
FN:515,_RNCNvMs2_NtNtCs9nxHbwgHRMj_6rustdb4core11transactionNtB7_18TransactionManager25ensure_transaction_active0Bb_
FN:20,_RNvMNtNtCs9nxHbwgHRMj_6rustdb4core11transactionNtB2_13TransactionId3new
FN:99,_RNvMs0_NtNtCs9nxHbwgHRMj_6rustdb4core11transactionNtB5_15TransactionInfo15update_activity
FN:85,_RNvMs0_NtNtCs9nxHbwgHRMj_6rustdb4core11transactionNtB5_15TransactionInfo3new
FN:103,_RNvMs0_NtNtCs9nxHbwgHRMj_6rustdb4core11transactionNtB5_15TransactionInfo8duration
FN:203,_RNvMs2_NtNtCs9nxHbwgHRMj_6rustdb4core11transactionNtB5_18TransactionManager10get_config
FN:184,_RNvMs2_NtNtCs9nxHbwgHRMj_6rustdb4core11transactionNtB5_18TransactionManager11with_config
FN:383,_RNvMs2_NtNtCs9nxHbwgHRMj_6rustdb4core11transactionNtB5_18TransactionManager12acquire_lock
FN:430,_RNvMs2_NtNtCs9nxHbwgHRMj_6rustdb4core11transactionNtB5_18TransactionManager12release_lock
FN:208,_RNvMs2_NtNtCs9nxHbwgHRMj_6rustdb4core11transactionNtB5_18TransactionManager14get_statistics
FN:318,_RNvMs2_NtNtCs9nxHbwgHRMj_6rustdb4core11transactionNtB5_18TransactionManager17abort_transaction
FN:217,_RNvMs2_NtNtCs9nxHbwgHRMj_6rustdb4core11transactionNtB5_18TransactionManager17begin_transaction
FN:456,_RNvMs2_NtNtCs9nxHbwgHRMj_6rustdb4core11transactionNtB5_18TransactionManager17release_all_locks
FN:266,_RNvMs2_NtNtCs9nxHbwgHRMj_6rustdb4core11transactionNtB5_18TransactionManager18commit_transaction
FN:362,_RNvMs2_NtNtCs9nxHbwgHRMj_6rustdb4core11transactionNtB5_18TransactionManager20get_transaction_info
FN:374,_RNvMs2_NtNtCs9nxHbwgHRMj_6rustdb4core11transactionNtB5_18TransactionManager23get_active_transactions
FN:496,_RNvMs2_NtNtCs9nxHbwgHRMj_6rustdb4core11transactionNtB5_18TransactionManager24update_transaction_state
FN:514,_RNvMs2_NtNtCs9nxHbwgHRMj_6rustdb4core11transactionNtB5_18TransactionManager25ensure_transaction_active
FN:179,_RNvMs2_NtNtCs9nxHbwgHRMj_6rustdb4core11transactionNtB5_18TransactionManager3new
FN:147,_RNvXs1_NtNtCs9nxHbwgHRMj_6rustdb4core11transactionNtB5_24TransactionManagerConfigNtNtCsixiwFwjEgS7_4core7default7Default7default
FN:30,_RNvXs_NtNtCs9nxHbwgHRMj_6rustdb4core11transactionNtB4_13TransactionIdNtNtCsixiwFwjEgS7_4core3fmt7Display3fmt
FNDA:82,_RNvMNtNtCsioRnW7FrYT6_6rustdb4core11transactionNtB2_13TransactionId3new
FNDA:0,_RNvMNtNtCsioRnW7FrYT6_6rustdb4core11transactionNtB2_13TransactionId5value
FNDA:219,_RNvMs0_NtNtCsioRnW7FrYT6_6rustdb4core11transactionNtB5_15TransactionInfo15update_activity
FNDA:73,_RNvMs0_NtNtCsioRnW7FrYT6_6rustdb4core11transactionNtB5_15TransactionInfo3new
FNDA:0,_RNvMs0_NtNtCsioRnW7FrYT6_6rustdb4core11transactionNtB5_15TransactionInfo8duration
FNDA:0,_RNvMs2_NtNtCsioRnW7FrYT6_6rustdb4core11transactionNtB5_18TransactionManager10get_config
FNDA:82,_RNvMs2_NtNtCsioRnW7FrYT6_6rustdb4core11transactionNtB5_18TransactionManager11with_config
FNDA:0,_RNvMs2_NtNtCsioRnW7FrYT6_6rustdb4core11transactionNtB5_18TransactionManager12acquire_lock
FNDA:0,_RNvMs2_NtNtCsioRnW7FrYT6_6rustdb4core11transactionNtB5_18TransactionManager12release_lock
FNDA:0,_RNvMs2_NtNtCsioRnW7FrYT6_6rustdb4core11transactionNtB5_18TransactionManager14get_statistics
FNDA:2,_RNvMs2_NtNtCsioRnW7FrYT6_6rustdb4core11transactionNtB5_18TransactionManager17abort_transaction
FNDA:73,_RNvMs2_NtNtCsioRnW7FrYT6_6rustdb4core11transactionNtB5_18TransactionManager17begin_transaction
FNDA:73,_RNvMs2_NtNtCsioRnW7FrYT6_6rustdb4core11transactionNtB5_18TransactionManager17release_all_locks
FNDA:71,_RNvMs2_NtNtCsioRnW7FrYT6_6rustdb4core11transactionNtB5_18TransactionManager18commit_transaction
FNDA:0,_RNvMs2_NtNtCsioRnW7FrYT6_6rustdb4core11transactionNtB5_18TransactionManager20get_transaction_info
FNDA:0,_RNvMs2_NtNtCsioRnW7FrYT6_6rustdb4core11transactionNtB5_18TransactionManager23get_active_transactions
FNDA:73,_RNvMs2_NtNtCsioRnW7FrYT6_6rustdb4core11transactionNtB5_18TransactionManager24update_transaction_state
FNDA:0,_RNvMs2_NtNtCsioRnW7FrYT6_6rustdb4core11transactionNtB5_18TransactionManager25ensure_transaction_active
FNDA:82,_RNvMs2_NtNtCsioRnW7FrYT6_6rustdb4core11transactionNtB5_18TransactionManager3new
FNDA:0,_RNvMs2_NtNtCsioRnW7FrYT6_6rustdb4core11transactionNtB5_18TransactionManager7set_wal
FNDA:82,_RNvXs1_NtNtCsioRnW7FrYT6_6rustdb4core11transactionNtB5_24TransactionManagerConfigNtNtCsixiwFwjEgS7_4core7default7Default7default
FNDA:0,_RNvXs_NtNtCsioRnW7FrYT6_6rustdb4core11transactionNtB4_13TransactionIdNtNtCsixiwFwjEgS7_4core3fmt7Display3fmt
FNDA:0,_RNCNvMs0_NtNtCsioRnW7FrYT6_6rustdb4core11transactionNtB7_15TransactionInfo8duration0Bb_
FNDA:0,_RNCNvMs2_NtNtCsioRnW7FrYT6_6rustdb4core11transactionNtB7_18TransactionManager12acquire_lock0Bb_
FNDA:0,_RNCNvMs2_NtNtCsioRnW7FrYT6_6rustdb4core11transactionNtB7_18TransactionManager12acquire_locks_0Bb_
FNDA:0,_RNCNvMs2_NtNtCsioRnW7FrYT6_6rustdb4core11transactionNtB7_18TransactionManager12release_lock0Bb_
FNDA:0,_RNCNvMs2_NtNtCsioRnW7FrYT6_6rustdb4core11transactionNtB7_18TransactionManager12release_locks_0Bb_
FNDA:0,_RNCNvMs2_NtNtCsioRnW7FrYT6_6rustdb4core11transactionNtB7_18TransactionManager14get_statistics0Bb_
FNDA:0,_RNCNvMs2_NtNtCsioRnW7FrYT6_6rustdb4core11transactionNtB7_18TransactionManager17abort_transaction0Bb_
FNDA:0,_RNCNvMs2_NtNtCsioRnW7FrYT6_6rustdb4core11transactionNtB7_18TransactionManager17abort_transactions0_0Bb_
FNDA:0,_RNCNvMs2_NtNtCsioRnW7FrYT6_6rustdb4core11transactionNtB7_18TransactionManager17abort_transactions1_0Bb_
FNDA:0,_RNCNvMs2_NtNtCsioRnW7FrYT6_6rustdb4core11transactionNtB7_18TransactionManager17abort_transactions_0Bb_
FNDA:0,_RNCNvMs2_NtNtCsioRnW7FrYT6_6rustdb4core11transactionNtB7_18TransactionManager17begin_transaction0Bb_
FNDA:0,_RNCNvMs2_NtNtCsioRnW7FrYT6_6rustdb4core11transactionNtB7_18TransactionManager17begin_transactions0_0Bb_
FNDA:0,_RNCNvMs2_NtNtCsioRnW7FrYT6_6rustdb4core11transactionNtB7_18TransactionManager17begin_transactions_0Bb_
FNDA:0,_RNCNvMs2_NtNtCsioRnW7FrYT6_6rustdb4core11transactionNtB7_18TransactionManager17release_all_locks0Bb_
FNDA:0,_RNCNvMs2_NtNtCsioRnW7FrYT6_6rustdb4core11transactionNtB7_18TransactionManager17release_all_lockss0_0Bb_
FNDA:0,_RNCNvMs2_NtNtCsioRnW7FrYT6_6rustdb4core11transactionNtB7_18TransactionManager17release_all_lockss1_0Bb_
FNDA:73,_RNCNvMs2_NtNtCsioRnW7FrYT6_6rustdb4core11transactionNtB7_18TransactionManager17release_all_lockss_0Bb_
FNDA:0,_RNCNvMs2_NtNtCsioRnW7FrYT6_6rustdb4core11transactionNtB7_18TransactionManager18commit_transaction0Bb_
FNDA:0,_RNCNvMs2_NtNtCsioRnW7FrYT6_6rustdb4core11transactionNtB7_18TransactionManager18commit_transactions0_0Bb_
FNDA:0,_RNCNvMs2_NtNtCsioRnW7FrYT6_6rustdb4core11transactionNtB7_18TransactionManager18commit_transactions1_0Bb_
FNDA:0,_RNCNvMs2_NtNtCsioRnW7FrYT6_6rustdb4core11transactionNtB7_18TransactionManager18commit_transactions_0Bb_
FNDA:0,_RNCNvMs2_NtNtCsioRnW7FrYT6_6rustdb4core11transactionNtB7_18TransactionManager20get_transaction_info0Bb_
FNDA:0,_RNCNvMs2_NtNtCsioRnW7FrYT6_6rustdb4core11transactionNtB7_18TransactionManager23get_active_transactions0Bb_
FNDA:0,_RNCNvMs2_NtNtCsioRnW7FrYT6_6rustdb4core11transactionNtB7_18TransactionManager24update_transaction_state0Bb_
FNDA:0,_RNCNvMs2_NtNtCsioRnW7FrYT6_6rustdb4core11transactionNtB7_18TransactionManager25ensure_transaction_active0Bb_
FNDA:0,_RNvMNtNtCs9nxHbwgHRMj_6rustdb4core11transactionNtB2_13TransactionId5value
FNDA:0,_RNvMs2_NtNtCs9nxHbwgHRMj_6rustdb4core11transactionNtB5_18TransactionManager7set_wal
FNDA:0,_RNCNvMs0_NtNtCs9nxHbwgHRMj_6rustdb4core11transactionNtB7_15TransactionInfo8duration0Bb_
FNDA:0,_RNCNvMs2_NtNtCs9nxHbwgHRMj_6rustdb4core11transactionNtB7_18TransactionManager12acquire_lock0Bb_
FNDA:0,_RNCNvMs2_NtNtCs9nxHbwgHRMj_6rustdb4core11transactionNtB7_18TransactionManager12acquire_locks_0Bb_
FNDA:0,_RNCNvMs2_NtNtCs9nxHbwgHRMj_6rustdb4core11transactionNtB7_18TransactionManager12release_lock0Bb_
FNDA:0,_RNCNvMs2_NtNtCs9nxHbwgHRMj_6rustdb4core11transactionNtB7_18TransactionManager12release_locks_0Bb_
FNDA:0,_RNCNvMs2_NtNtCs9nxHbwgHRMj_6rustdb4core11transactionNtB7_18TransactionManager14get_statistics0Bb_
FNDA:0,_RNCNvMs2_NtNtCs9nxHbwgHRMj_6rustdb4core11transactionNtB7_18TransactionManager17abort_transaction0Bb_
FNDA:0,_RNCNvMs2_NtNtCs9nxHbwgHRMj_6rustdb4core11transactionNtB7_18TransactionManager17abort_transactions0_0Bb_
FNDA:0,_RNCNvMs2_NtNtCs9nxHbwgHRMj_6rustdb4core11transactionNtB7_18TransactionManager17abort_transactions1_0Bb_
FNDA:1,_RNCNvMs2_NtNtCs9nxHbwgHRMj_6rustdb4core11transactionNtB7_18TransactionManager17abort_transactions_0Bb_
FNDA:0,_RNCNvMs2_NtNtCs9nxHbwgHRMj_6rustdb4core11transactionNtB7_18TransactionManager17begin_transaction0Bb_
FNDA:0,_RNCNvMs2_NtNtCs9nxHbwgHRMj_6rustdb4core11transactionNtB7_18TransactionManager17begin_transactions0_0Bb_
FNDA:0,_RNCNvMs2_NtNtCs9nxHbwgHRMj_6rustdb4core11transactionNtB7_18TransactionManager17begin_transactions_0Bb_
FNDA:0,_RNCNvMs2_NtNtCs9nxHbwgHRMj_6rustdb4core11transactionNtB7_18TransactionManager17release_all_locks0Bb_
FNDA:0,_RNCNvMs2_NtNtCs9nxHbwgHRMj_6rustdb4core11transactionNtB7_18TransactionManager17release_all_lockss0_0Bb_
FNDA:0,_RNCNvMs2_NtNtCs9nxHbwgHRMj_6rustdb4core11transactionNtB7_18TransactionManager17release_all_lockss1_0Bb_
FNDA:244,_RNCNvMs2_NtNtCs9nxHbwgHRMj_6rustdb4core11transactionNtB7_18TransactionManager17release_all_lockss_0Bb_
FNDA:0,_RNCNvMs2_NtNtCs9nxHbwgHRMj_6rustdb4core11transactionNtB7_18TransactionManager18commit_transaction0Bb_
FNDA:0,_RNCNvMs2_NtNtCs9nxHbwgHRMj_6rustdb4core11transactionNtB7_18TransactionManager18commit_transactions0_0Bb_
FNDA:0,_RNCNvMs2_NtNtCs9nxHbwgHRMj_6rustdb4core11transactionNtB7_18TransactionManager18commit_transactions1_0Bb_
FNDA:1,_RNCNvMs2_NtNtCs9nxHbwgHRMj_6rustdb4core11transactionNtB7_18TransactionManager18commit_transactions_0Bb_
FNDA:0,_RNCNvMs2_NtNtCs9nxHbwgHRMj_6rustdb4core11transactionNtB7_18TransactionManager20get_transaction_info0Bb_
FNDA:0,_RNCNvMs2_NtNtCs9nxHbwgHRMj_6rustdb4core11transactionNtB7_18TransactionManager23get_active_transactions0Bb_
FNDA:0,_RNCNvMs2_NtNtCs9nxHbwgHRMj_6rustdb4core11transactionNtB7_18TransactionManager24update_transaction_state0Bb_
FNDA:0,_RNCNvMs2_NtNtCs9nxHbwgHRMj_6rustdb4core11transactionNtB7_18TransactionManager25ensure_transaction_active0Bb_
FNDA:79,_RNvMNtNtCs9nxHbwgHRMj_6rustdb4core11transactionNtB2_13TransactionId3new
FNDA:967,_RNvMs0_NtNtCs9nxHbwgHRMj_6rustdb4core11transactionNtB5_15TransactionInfo15update_activity
FNDA:252,_RNvMs0_NtNtCs9nxHbwgHRMj_6rustdb4core11transactionNtB5_15TransactionInfo3new
FNDA:2,_RNvMs0_NtNtCs9nxHbwgHRMj_6rustdb4core11transactionNtB5_15TransactionInfo8duration
FNDA:1,_RNvMs2_NtNtCs9nxHbwgHRMj_6rustdb4core11transactionNtB5_18TransactionManager10get_config
FNDA:23,_RNvMs2_NtNtCs9nxHbwgHRMj_6rustdb4core11transactionNtB5_18TransactionManager11with_config
FNDA:236,_RNvMs2_NtNtCs9nxHbwgHRMj_6rustdb4core11transactionNtB5_18TransactionManager12acquire_lock
FNDA:1,_RNvMs2_NtNtCs9nxHbwgHRMj_6rustdb4core11transactionNtB5_18TransactionManager12release_lock
FNDA:15,_RNvMs2_NtNtCs9nxHbwgHRMj_6rustdb4core11transactionNtB5_18TransactionManager14get_statistics
FNDA:13,_RNvMs2_NtNtCs9nxHbwgHRMj_6rustdb4core11transactionNtB5_18TransactionManager17abort_transaction
FNDA:245,_RNvMs2_NtNtCs9nxHbwgHRMj_6rustdb4core11transactionNtB5_18TransactionManager17begin_transaction
FNDA:244,_RNvMs2_NtNtCs9nxHbwgHRMj_6rustdb4core11transactionNtB5_18TransactionManager17release_all_locks
FNDA:233,_RNvMs2_NtNtCs9nxHbwgHRMj_6rustdb4core11transactionNtB5_18TransactionManager18commit_transaction
FNDA:22,_RNvMs2_NtNtCs9nxHbwgHRMj_6rustdb4core11transactionNtB5_18TransactionManager20get_transaction_info
FNDA:2,_RNvMs2_NtNtCs9nxHbwgHRMj_6rustdb4core11transactionNtB5_18TransactionManager23get_active_transactions
FNDA:244,_RNvMs2_NtNtCs9nxHbwgHRMj_6rustdb4core11transactionNtB5_18TransactionManager24update_transaction_state
FNDA:236,_RNvMs2_NtNtCs9nxHbwgHRMj_6rustdb4core11transactionNtB5_18TransactionManager25ensure_transaction_active
FNDA:22,_RNvMs2_NtNtCs9nxHbwgHRMj_6rustdb4core11transactionNtB5_18TransactionManager3new
FNDA:23,_RNvXs1_NtNtCs9nxHbwgHRMj_6rustdb4core11transactionNtB5_24TransactionManagerConfigNtNtCsixiwFwjEgS7_4core7default7Default7default
FNDA:25,_RNvXs_NtNtCs9nxHbwgHRMj_6rustdb4core11transactionNtB4_13TransactionIdNtNtCsixiwFwjEgS7_4core3fmt7Display3fmt
FNF:47
FNH:23
DA:20,161
DA:21,161
DA:22,161
DA:24,0
DA:25,0
DA:26,0
DA:30,25
DA:31,25
DA:32,25
DA:85,325
DA:86,325
DA:87,325
DA:88,325
DA:89,325
DA:90,325
DA:91,325
DA:92,325
DA:93,325
DA:94,325
DA:95,325
DA:96,325
DA:97,325
DA:99,1186
DA:100,1186
DA:101,1186
DA:103,2
DA:104,2
DA:105,2
DA:106,2
DA:107,2
DA:147,105
DA:148,105
DA:149,105
DA:150,105
DA:151,105
DA:152,105
DA:153,105
DA:154,105
DA:155,105
DA:179,104
DA:180,104
DA:181,104
DA:184,105
DA:185,105
DA:187,105
DA:188,105
DA:189,105
DA:190,105
DA:191,105
DA:192,105
DA:193,105
DA:194,105
DA:195,105
DA:198,0
DA:199,0
DA:200,0
DA:203,1
DA:204,1
DA:205,1
DA:208,15
DA:209,15
DA:210,15
DA:211,15
DA:212,15
DA:213,15
DA:214,15
DA:217,318
DA:218,318
DA:219,318
DA:220,318
DA:221,318
DA:224,318
DA:225,0
DA:226,0
DA:228,318
DA:229,1
DA:230,1
DA:231,1
DA:232,317
DA:236,317
DA:237,317
DA:238,317
DA:239,317
DA:242,317
DA:246,317
DA:247,0
DA:248,0
DA:249,317
DA:254,317
DA:255,317
DA:256,317
DA:257,317
DA:258,317
DA:259,317
DA:262,317
DA:263,318
DA:266,304
DA:268,303
DA:269,304
DA:270,0
DA:271,0
DA:273,304
DA:274,1
DA:275,1
DA:279,303
DA:280,0
DA:281,0
DA:282,0
DA:283,0
DA:284,303
DA:287,303
DA:290,303
DA:294,303
DA:295,0
DA:296,0
DA:298,303
DA:299,303
DA:300,303
DA:301,303
DA:306,303
DA:307,303
DA:308,303
DA:309,303
DA:310,303
DA:311,303
DA:314,303
DA:315,304
DA:318,15
DA:320,14
DA:321,15
DA:322,0
DA:323,0
DA:325,15
DA:326,1
DA:327,1
DA:331,14
DA:334,14
DA:338,14
DA:339,0
DA:340,0
DA:342,14
DA:343,14
DA:344,14
DA:345,14
DA:350,14
DA:351,14
DA:352,14
DA:353,14
DA:354,14
DA:355,14
DA:358,14
DA:359,15
DA:362,22
DA:363,22
DA:364,22
DA:365,22
DA:366,22
DA:367,0
DA:368,0
DA:370,22
DA:371,22
DA:374,2
DA:375,2
DA:376,0
DA:377,0
DA:379,2
DA:380,2
DA:383,236
DA:384,236
DA:385,236
DA:386,236
DA:387,236
DA:388,236
DA:389,236
DA:391,236
DA:394,235
DA:395,235
DA:396,235
DA:397,235
DA:398,235
DA:399,235
DA:401,235
DA:403,234
DA:404,0
DA:405,0
DA:407,234
DA:408,234
DA:409,234
DA:410,234
DA:413,234
DA:414,234
DA:415,234
DA:416,234
DA:417,234
DA:420,1
DA:421,1
DA:422,1
DA:423,1
DA:426,234
DA:427,236
DA:430,1
DA:432,1
DA:433,1
DA:436,1
DA:437,0
DA:438,0
DA:440,1
DA:441,1
DA:442,1
DA:443,1
DA:446,1
DA:447,1
DA:448,1
DA:449,1
DA:450,1
DA:452,1
DA:453,1
DA:456,317
DA:458,317
DA:459,317
DA:460,0
DA:461,0
DA:463,317
DA:464,317
DA:465,317
DA:466,317
DA:470,550
DA:471,233
DA:475,317
DA:476,0
DA:477,0
DA:479,317
DA:480,317
DA:481,317
DA:482,317
DA:485,317
DA:486,317
DA:487,317
DA:488,317
DA:489,317
DA:490,0
DA:492,317
DA:493,317
DA:496,317
DA:497,317
DA:498,317
DA:499,317
DA:500,317
DA:501,317
DA:502,0
DA:503,0
DA:505,317
DA:506,317
DA:507,317
DA:508,317
DA:510,317
DA:511,317
DA:514,236
DA:515,236
DA:516,0
DA:517,0
DA:519,236
DA:520,235
DA:521,0
DA:522,0
DA:523,0
DA:524,0
DA:525,1
DA:526,1
DA:527,1
DA:528,1
DA:530,236
BRF:0
BRH:0
LF:313
LH:234
end_of_record
SF:C:\Users\Admin\RustProjects\RustBD\src\debug\debug_logger.rs
FN:518,_RNvXs2_NtNtCsioRnW7FrYT6_6rustdb5debug12debug_loggerNtB5_11DebugLoggerNtNtNtCsixiwFwjEgS7_4core3ops4drop4Drop4drop
FN:158,_RNvMs0_NtNtCsioRnW7FrYT6_6rustdb5debug12debug_loggerNtB5_13DebugLogEntry13with_duration
FN:152,_RNvMs0_NtNtCsioRnW7FrYT6_6rustdb5debug12debug_loggerNtB5_13DebugLogEntry13with_query_id
FN:164,_RNvMs0_NtNtCsioRnW7FrYT6_6rustdb5debug12debug_loggerNtB5_13DebugLogEntry14with_data_size
FN:146,_RNvMs0_NtNtCsioRnW7FrYT6_6rustdb5debug12debug_loggerNtB5_13DebugLogEntry19with_transaction_id
FN:116,_RNvMs0_NtNtCsioRnW7FrYT6_6rustdb5debug12debug_loggerNtB5_13DebugLogEntry3new
FN:170,_RNvMs0_NtNtCsioRnW7FrYT6_6rustdb5debug12debug_loggerNtB5_13DebugLogEntry6format
FN:140,_RNvMs0_NtNtCsioRnW7FrYT6_6rustdb5debug12debug_loggerNtB5_13DebugLogEntry9with_data
FN:361,_RNvMs1_NtNtCsioRnW7FrYT6_6rustdb5debug12debug_loggerNtB5_11DebugLogger12create_entry
FN:401,_RNvMs1_NtNtCsioRnW7FrYT6_6rustdb5debug12debug_loggerNtB5_11DebugLogger18log_data_operation
FN:265,_RNvMs1_NtNtCsioRnW7FrYT6_6rustdb5debug12debug_loggerNtB5_11DebugLogger19initialize_log_file
FN:428,_RNvMs1_NtNtCsioRnW7FrYT6_6rustdb5debug12debug_loggerNtB5_11DebugLogger19log_query_operation
FN:457,_RNvMs1_NtNtCsioRnW7FrYT6_6rustdb5debug12debug_loggerNtB5_11DebugLogger20log_system_operation
FN:280,_RNvMs1_NtNtCsioRnW7FrYT6_6rustdb5debug12debug_loggerNtB5_11DebugLogger21start_background_task
FN:479,_RNvMs1_NtNtCsioRnW7FrYT6_6rustdb5debug12debug_loggerNtB5_11DebugLogger22generate_status_report
FN:372,_RNvMs1_NtNtCsioRnW7FrYT6_6rustdb5debug12debug_loggerNtB5_11DebugLogger25log_transaction_operation
FN:322,_RNvMs1_NtNtCsioRnW7FrYT6_6rustdb5debug12debug_loggerNtB5_11DebugLogger3log
FN:245,_RNvMs1_NtNtCsioRnW7FrYT6_6rustdb5debug12debug_loggerNtB5_11DebugLogger3new
FN:505,_RNvMs1_NtNtCsioRnW7FrYT6_6rustdb5debug12debug_loggerNtB5_11DebugLogger8shutdown
FN:474,_RNvMs1_NtNtCsioRnW7FrYT6_6rustdb5debug12debug_loggerNtB5_11DebugLogger9get_stats
FN:33,_RNvXNtNtCsioRnW7FrYT6_6rustdb5debug12debug_loggerNtB2_8LogLevelNtNtCsixiwFwjEgS7_4core3fmt7Display3fmt
FN:71,_RNvXs_NtNtCsioRnW7FrYT6_6rustdb5debug12debug_loggerNtB4_11LogCategoryNtNtCsixiwFwjEgS7_4core3fmt7Display3fmt
FN:286,_RNCNvMs1_NtNtCsioRnW7FrYT6_6rustdb5debug12debug_loggerNtB7_11DebugLogger21start_background_task0Bb_
FN:586,_RNvNtNtNtCs9nxHbwgHRMj_6rustdb5debug12debug_logger5testss_17test_debug_logger
FN:529,_RNvNtNtNtCs9nxHbwgHRMj_6rustdb5debug12debug_logger5testss_23test_log_entry_creation
FN:545,_RNvNtNtNtCs9nxHbwgHRMj_6rustdb5debug12debug_logger5testss_24test_log_entry_with_data
FN:565,_RNvNtNtNtCs9nxHbwgHRMj_6rustdb5debug12debug_logger5testss_25test_log_entry_formatting
FN:158,_RNvMs0_NtNtCs9nxHbwgHRMj_6rustdb5debug12debug_loggerNtB5_13DebugLogEntry13with_duration
FN:152,_RNvMs0_NtNtCs9nxHbwgHRMj_6rustdb5debug12debug_loggerNtB5_13DebugLogEntry13with_query_id
FN:164,_RNvMs0_NtNtCs9nxHbwgHRMj_6rustdb5debug12debug_loggerNtB5_13DebugLogEntry14with_data_size
FN:146,_RNvMs0_NtNtCs9nxHbwgHRMj_6rustdb5debug12debug_loggerNtB5_13DebugLogEntry19with_transaction_id
FN:116,_RNvMs0_NtNtCs9nxHbwgHRMj_6rustdb5debug12debug_loggerNtB5_13DebugLogEntry3new
FN:170,_RNvMs0_NtNtCs9nxHbwgHRMj_6rustdb5debug12debug_loggerNtB5_13DebugLogEntry6format
FN:140,_RNvMs0_NtNtCs9nxHbwgHRMj_6rustdb5debug12debug_loggerNtB5_13DebugLogEntry9with_data
FN:361,_RNvMs1_NtNtCs9nxHbwgHRMj_6rustdb5debug12debug_loggerNtB5_11DebugLogger12create_entry
FN:401,_RNvMs1_NtNtCs9nxHbwgHRMj_6rustdb5debug12debug_loggerNtB5_11DebugLogger18log_data_operation
FN:265,_RNvMs1_NtNtCs9nxHbwgHRMj_6rustdb5debug12debug_loggerNtB5_11DebugLogger19initialize_log_file
FN:428,_RNvMs1_NtNtCs9nxHbwgHRMj_6rustdb5debug12debug_loggerNtB5_11DebugLogger19log_query_operation
FN:457,_RNvMs1_NtNtCs9nxHbwgHRMj_6rustdb5debug12debug_loggerNtB5_11DebugLogger20log_system_operation
FN:280,_RNvMs1_NtNtCs9nxHbwgHRMj_6rustdb5debug12debug_loggerNtB5_11DebugLogger21start_background_task
FN:479,_RNvMs1_NtNtCs9nxHbwgHRMj_6rustdb5debug12debug_loggerNtB5_11DebugLogger22generate_status_report
FN:372,_RNvMs1_NtNtCs9nxHbwgHRMj_6rustdb5debug12debug_loggerNtB5_11DebugLogger25log_transaction_operation
FN:322,_RNvMs1_NtNtCs9nxHbwgHRMj_6rustdb5debug12debug_loggerNtB5_11DebugLogger3log
FN:245,_RNvMs1_NtNtCs9nxHbwgHRMj_6rustdb5debug12debug_loggerNtB5_11DebugLogger3new
FN:505,_RNvMs1_NtNtCs9nxHbwgHRMj_6rustdb5debug12debug_loggerNtB5_11DebugLogger8shutdown
FN:474,_RNvMs1_NtNtCs9nxHbwgHRMj_6rustdb5debug12debug_loggerNtB5_11DebugLogger9get_stats
FN:33,_RNvXNtNtCs9nxHbwgHRMj_6rustdb5debug12debug_loggerNtB2_8LogLevelNtNtCsixiwFwjEgS7_4core3fmt7Display3fmt
FN:71,_RNvXs_NtNtCs9nxHbwgHRMj_6rustdb5debug12debug_loggerNtB4_11LogCategoryNtNtCsixiwFwjEgS7_4core3fmt7Display3fmt
FN:518,_RNvXs2_NtNtCs9nxHbwgHRMj_6rustdb5debug12debug_loggerNtB5_11DebugLoggerNtNtNtCsixiwFwjEgS7_4core3ops4drop4Drop4drop
FN:586,_RNCNvNtNtNtCs9nxHbwgHRMj_6rustdb5debug12debug_logger5testss_17test_debug_logger0B9_
FN:286,_RNCNvMs1_NtNtCs9nxHbwgHRMj_6rustdb5debug12debug_loggerNtB7_11DebugLogger21start_background_task0Bb_
FNDA:0,_RNvXs2_NtNtCsioRnW7FrYT6_6rustdb5debug12debug_loggerNtB5_11DebugLoggerNtNtNtCsixiwFwjEgS7_4core3ops4drop4Drop4drop
FNDA:0,_RNvMs0_NtNtCsioRnW7FrYT6_6rustdb5debug12debug_loggerNtB5_13DebugLogEntry13with_duration
FNDA:0,_RNvMs0_NtNtCsioRnW7FrYT6_6rustdb5debug12debug_loggerNtB5_13DebugLogEntry13with_query_id
FNDA:0,_RNvMs0_NtNtCsioRnW7FrYT6_6rustdb5debug12debug_loggerNtB5_13DebugLogEntry14with_data_size
FNDA:0,_RNvMs0_NtNtCsioRnW7FrYT6_6rustdb5debug12debug_loggerNtB5_13DebugLogEntry19with_transaction_id
FNDA:0,_RNvMs0_NtNtCsioRnW7FrYT6_6rustdb5debug12debug_loggerNtB5_13DebugLogEntry3new
FNDA:0,_RNvMs0_NtNtCsioRnW7FrYT6_6rustdb5debug12debug_loggerNtB5_13DebugLogEntry6format
FNDA:0,_RNvMs0_NtNtCsioRnW7FrYT6_6rustdb5debug12debug_loggerNtB5_13DebugLogEntry9with_data
FNDA:0,_RNvMs1_NtNtCsioRnW7FrYT6_6rustdb5debug12debug_loggerNtB5_11DebugLogger12create_entry
FNDA:0,_RNvMs1_NtNtCsioRnW7FrYT6_6rustdb5debug12debug_loggerNtB5_11DebugLogger18log_data_operation
FNDA:0,_RNvMs1_NtNtCsioRnW7FrYT6_6rustdb5debug12debug_loggerNtB5_11DebugLogger19initialize_log_file
FNDA:0,_RNvMs1_NtNtCsioRnW7FrYT6_6rustdb5debug12debug_loggerNtB5_11DebugLogger19log_query_operation
FNDA:0,_RNvMs1_NtNtCsioRnW7FrYT6_6rustdb5debug12debug_loggerNtB5_11DebugLogger20log_system_operation
FNDA:0,_RNvMs1_NtNtCsioRnW7FrYT6_6rustdb5debug12debug_loggerNtB5_11DebugLogger21start_background_task
FNDA:0,_RNvMs1_NtNtCsioRnW7FrYT6_6rustdb5debug12debug_loggerNtB5_11DebugLogger22generate_status_report
FNDA:0,_RNvMs1_NtNtCsioRnW7FrYT6_6rustdb5debug12debug_loggerNtB5_11DebugLogger25log_transaction_operation
FNDA:0,_RNvMs1_NtNtCsioRnW7FrYT6_6rustdb5debug12debug_loggerNtB5_11DebugLogger3log
FNDA:0,_RNvMs1_NtNtCsioRnW7FrYT6_6rustdb5debug12debug_loggerNtB5_11DebugLogger3new
FNDA:0,_RNvMs1_NtNtCsioRnW7FrYT6_6rustdb5debug12debug_loggerNtB5_11DebugLogger8shutdown
FNDA:0,_RNvMs1_NtNtCsioRnW7FrYT6_6rustdb5debug12debug_loggerNtB5_11DebugLogger9get_stats
FNDA:0,_RNvXNtNtCsioRnW7FrYT6_6rustdb5debug12debug_loggerNtB2_8LogLevelNtNtCsixiwFwjEgS7_4core3fmt7Display3fmt
FNDA:0,_RNvXs_NtNtCsioRnW7FrYT6_6rustdb5debug12debug_loggerNtB4_11LogCategoryNtNtCsixiwFwjEgS7_4core3fmt7Display3fmt
FNDA:0,_RNCNvMs1_NtNtCsioRnW7FrYT6_6rustdb5debug12debug_loggerNtB7_11DebugLogger21start_background_task0Bb_
FNDA:1,_RNvNtNtNtCs9nxHbwgHRMj_6rustdb5debug12debug_logger5testss_17test_debug_logger
FNDA:1,_RNvNtNtNtCs9nxHbwgHRMj_6rustdb5debug12debug_logger5testss_23test_log_entry_creation
FNDA:1,_RNvNtNtNtCs9nxHbwgHRMj_6rustdb5debug12debug_logger5testss_24test_log_entry_with_data
FNDA:1,_RNvNtNtNtCs9nxHbwgHRMj_6rustdb5debug12debug_logger5testss_25test_log_entry_formatting
FNDA:6,_RNvMs0_NtNtCs9nxHbwgHRMj_6rustdb5debug12debug_loggerNtB5_13DebugLogEntry13with_duration
FNDA:1,_RNvMs0_NtNtCs9nxHbwgHRMj_6rustdb5debug12debug_loggerNtB5_13DebugLogEntry13with_query_id
FNDA:5,_RNvMs0_NtNtCs9nxHbwgHRMj_6rustdb5debug12debug_loggerNtB5_13DebugLogEntry14with_data_size
FNDA:3,_RNvMs0_NtNtCs9nxHbwgHRMj_6rustdb5debug12debug_loggerNtB5_13DebugLogEntry19with_transaction_id
FNDA:7,_RNvMs0_NtNtCs9nxHbwgHRMj_6rustdb5debug12debug_loggerNtB5_13DebugLogEntry3new
FNDA:1,_RNvMs0_NtNtCs9nxHbwgHRMj_6rustdb5debug12debug_loggerNtB5_13DebugLogEntry6format
FNDA:1,_RNvMs0_NtNtCs9nxHbwgHRMj_6rustdb5debug12debug_loggerNtB5_13DebugLogEntry9with_data
FNDA:4,_RNvMs1_NtNtCs9nxHbwgHRMj_6rustdb5debug12debug_loggerNtB5_11DebugLogger12create_entry
FNDA:1,_RNvMs1_NtNtCs9nxHbwgHRMj_6rustdb5debug12debug_loggerNtB5_11DebugLogger18log_data_operation
FNDA:1,_RNvMs1_NtNtCs9nxHbwgHRMj_6rustdb5debug12debug_loggerNtB5_11DebugLogger19initialize_log_file
FNDA:1,_RNvMs1_NtNtCs9nxHbwgHRMj_6rustdb5debug12debug_loggerNtB5_11DebugLogger19log_query_operation
FNDA:1,_RNvMs1_NtNtCs9nxHbwgHRMj_6rustdb5debug12debug_loggerNtB5_11DebugLogger20log_system_operation
FNDA:1,_RNvMs1_NtNtCs9nxHbwgHRMj_6rustdb5debug12debug_loggerNtB5_11DebugLogger21start_background_task
FNDA:1,_RNvMs1_NtNtCs9nxHbwgHRMj_6rustdb5debug12debug_loggerNtB5_11DebugLogger22generate_status_report
FNDA:1,_RNvMs1_NtNtCs9nxHbwgHRMj_6rustdb5debug12debug_loggerNtB5_11DebugLogger25log_transaction_operation
FNDA:4,_RNvMs1_NtNtCs9nxHbwgHRMj_6rustdb5debug12debug_loggerNtB5_11DebugLogger3log
FNDA:1,_RNvMs1_NtNtCs9nxHbwgHRMj_6rustdb5debug12debug_loggerNtB5_11DebugLogger3new
FNDA:1,_RNvMs1_NtNtCs9nxHbwgHRMj_6rustdb5debug12debug_loggerNtB5_11DebugLogger8shutdown
FNDA:2,_RNvMs1_NtNtCs9nxHbwgHRMj_6rustdb5debug12debug_loggerNtB5_11DebugLogger9get_stats
FNDA:5,_RNvXNtNtCs9nxHbwgHRMj_6rustdb5debug12debug_loggerNtB2_8LogLevelNtNtCsixiwFwjEgS7_4core3fmt7Display3fmt
FNDA:5,_RNvXs_NtNtCs9nxHbwgHRMj_6rustdb5debug12debug_loggerNtB4_11LogCategoryNtNtCsixiwFwjEgS7_4core3fmt7Display3fmt
FNDA:1,_RNvXs2_NtNtCs9nxHbwgHRMj_6rustdb5debug12debug_loggerNtB5_11DebugLoggerNtNtNtCsixiwFwjEgS7_4core3ops4drop4Drop4drop
FNDA:1,_RNCNvNtNtNtCs9nxHbwgHRMj_6rustdb5debug12debug_logger5testss_17test_debug_logger0B9_
FNDA:0,_RNCNvMs1_NtNtCs9nxHbwgHRMj_6rustdb5debug12debug_loggerNtB7_11DebugLogger21start_background_task0Bb_
FNF:28
FNH:27
DA:33,5
DA:34,5
DA:35,0
DA:36,1
DA:37,1
DA:38,2
DA:39,1
DA:40,0
DA:42,5
DA:71,5
DA:72,5
DA:73,1
DA:74,1
DA:75,0
DA:76,0
DA:77,0
DA:78,0
DA:79,1
DA:80,2
DA:81,0
DA:82,0
DA:84,5
DA:116,7
DA:117,7
DA:118,7
DA:119,7
DA:120,7
DA:122,7
DA:124,7
DA:125,7
DA:126,7
DA:127,7
DA:128,7
DA:129,7
DA:130,7
DA:131,7
DA:132,7
DA:133,7
DA:134,7
DA:135,7
DA:136,7
DA:137,7
DA:140,1
DA:141,1
DA:142,1
DA:143,1
DA:146,3
DA:147,3
DA:148,3
DA:149,3
DA:152,1
DA:153,1
DA:154,1
DA:155,1
DA:158,6
DA:159,6
DA:160,6
DA:161,6
DA:164,5
DA:165,5
DA:166,5
DA:167,5
DA:170,1
DA:171,1
DA:174,1
DA:175,1
DA:176,1
DA:179,1
DA:182,1
DA:185,1
DA:186,1
DA:187,1
DA:188,1
DA:189,0
DA:190,1
DA:193,1
DA:194,1
DA:195,1
DA:198,1
DA:199,1
DA:200,1
DA:203,1
DA:206,1
DA:207,0
DA:208,1
DA:210,1
DA:211,1
DA:245,1
DA:246,1
DA:247,1
DA:248,1
DA:249,1
DA:250,1
DA:251,1
DA:252,1
DA:253,1
DA:256,1
DA:259,1
DA:261,1
DA:262,1
DA:265,1
DA:266,1
DA:268,1
DA:269,1
DA:270,1
DA:271,1
DA:272,1
DA:273,0
DA:274,0
DA:275,0
DA:277,1
DA:280,1
DA:281,1
DA:282,1
DA:283,1
DA:284,1
DA:286,1
DA:287,0
DA:290,0
DA:293,0
DA:294,0
DA:295,0
DA:296,0
DA:297,0
DA:299,0
DA:304,0
DA:305,0
DA:306,0
DA:307,0
DA:308,0
DA:309,0
DA:310,0
DA:313,0
DA:314,0
DA:315,0
DA:316,0
DA:319,1
DA:322,4
DA:324,4
DA:325,0
DA:326,4
DA:329,4
DA:330,4
DA:331,4
DA:332,4
DA:335,4
DA:336,4
DA:337,4
DA:338,4
DA:339,4
DA:340,4
DA:341,4
DA:342,4
DA:343,4
DA:344,4
DA:345,4
DA:346,4
DA:347,4
DA:348,4
DA:349,4
DA:350,4
DA:351,4
DA:352,4
DA:355,4
DA:356,0
DA:357,4
DA:358,4
DA:361,4
DA:362,4
DA:363,4
DA:364,4
DA:365,4
DA:366,4
DA:367,4
DA:368,4
DA:369,4
DA:372,1
DA:373,1
DA:374,1
DA:375,1
DA:376,1
DA:377,1
DA:378,1
DA:379,1
DA:380,1
DA:381,1
DA:382,1
DA:383,1
DA:384,1
DA:387,1
DA:389,1
DA:390,1
DA:391,1
DA:393,1
DA:394,1
DA:395,1
DA:397,1
DA:398,1
DA:401,1
DA:402,1
DA:403,1
DA:404,1
DA:405,1
DA:406,1
DA:407,1
DA:408,1
DA:409,1
DA:410,1
DA:411,1
DA:412,1
DA:413,1
DA:416,1
DA:417,1
DA:418,1
DA:420,1
DA:421,1
DA:422,1
DA:424,1
DA:425,1
DA:428,1
DA:429,1
DA:430,1
DA:431,1
DA:432,1
DA:433,1
DA:434,1
DA:435,1
DA:436,1
DA:437,1
DA:438,1
DA:439,1
DA:440,1
DA:443,1
DA:445,1
DA:446,1
DA:447,1
DA:449,1
DA:450,1
DA:451,1
DA:453,1
DA:454,1
DA:457,1
DA:458,1
DA:459,1
DA:460,1
DA:461,1
DA:462,1
DA:463,1
DA:464,1
DA:466,1
DA:467,1
DA:468,1
DA:470,1
DA:471,1
DA:474,2
DA:475,2
DA:476,2
DA:479,1
DA:480,1
DA:481,1
DA:483,1
DA:484,1
DA:485,1
DA:487,1
DA:488,1
DA:489,4
DA:490,3
DA:491,3
DA:492,0
DA:494,1
DA:495,1
DA:496,5
DA:497,4
DA:498,4
DA:499,0
DA:501,1
DA:502,1
DA:505,1
DA:506,1
DA:507,1
DA:508,1
DA:511,1
DA:512,1
DA:513,1
DA:514,1
DA:518,1
DA:519,1
DA:520,1
DA:529,1
DA:530,1
DA:531,1
DA:532,1
DA:533,1
DA:534,1
DA:537,1
DA:538,1
DA:539,1
DA:540,1
DA:541,1
DA:542,1
DA:545,1
DA:546,1
DA:547,1
DA:548,1
DA:549,1
DA:550,1
DA:551,1
DA:553,1
DA:554,1
DA:555,1
DA:556,1
DA:558,1
DA:559,1
DA:560,1
DA:561,1
DA:562,1
DA:565,1
DA:566,1
DA:567,1
DA:568,1
DA:569,1
DA:570,1
DA:572,1
DA:573,1
DA:574,1
DA:576,1
DA:577,1
DA:578,1
DA:579,1
DA:580,1
DA:581,1
DA:582,1
DA:583,1
DA:586,1
DA:587,1
DA:588,1
DA:589,1
DA:590,1
DA:591,1
DA:593,1
DA:596,1
DA:597,1
DA:598,1
DA:600,1
DA:601,1
DA:604,1
DA:605,1
DA:606,1
DA:607,1
DA:608,1
DA:609,1
DA:612,1
DA:613,1
DA:614,1
DA:615,1
DA:616,1
DA:617,1
DA:620,1
DA:621,1
DA:622,1
DA:623,1
DA:624,1
DA:628,1
DA:629,1
DA:630,1
DA:631,1
DA:632,1
DA:633,1
DA:634,1
DA:635,1
DA:636,1
DA:639,1
DA:640,1
DA:641,1
DA:642,1
DA:643,1
BRF:0
BRH:0
LF:379
LH:342
end_of_record
SF:C:\Users\Admin\RustProjects\RustBD\src\debug\mod.rs
FN:240,_RNvXs0_NtCsioRnW7FrYT6_6rustdb5debugNtB5_12DebugManagerNtNtNtCsixiwFwjEgS7_4core3ops4drop4Drop4drop
FN:106,_RNvMs_NtCsioRnW7FrYT6_6rustdb5debugNtB4_12DebugManager12debug_logger
FN:111,_RNvMs_NtCsioRnW7FrYT6_6rustdb5debugNtB4_12DebugManager12query_tracer
FN:126,_RNvMs_NtCsioRnW7FrYT6_6rustdb5debugNtB4_12DebugManager13update_config
FN:121,_RNvMs_NtCsioRnW7FrYT6_6rustdb5debugNtB4_12DebugManager20performance_analyzer
FN:146,_RNvMs_NtCsioRnW7FrYT6_6rustdb5debugNtB4_12DebugManager21generate_debug_report
FN:73,_RNvMs_NtCsioRnW7FrYT6_6rustdb5debugNtB4_12DebugManager3new
FN:101,_RNvMs_NtCsioRnW7FrYT6_6rustdb5debugNtB4_12DebugManager6config
FN:116,_RNvMs_NtCsioRnW7FrYT6_6rustdb5debugNtB4_12DebugManager8profiler
FN:220,_RNvMs_NtCsioRnW7FrYT6_6rustdb5debugNtB4_12DebugManager8shutdown
FN:46,_RNvXNtCsioRnW7FrYT6_6rustdb5debugNtB2_11DebugConfigNtNtCsixiwFwjEgS7_4core7default7Default7default
FN:106,_RNvMs_NtCs9nxHbwgHRMj_6rustdb5debugNtB4_12DebugManager12debug_logger
FN:111,_RNvMs_NtCs9nxHbwgHRMj_6rustdb5debugNtB4_12DebugManager12query_tracer
FN:126,_RNvMs_NtCs9nxHbwgHRMj_6rustdb5debugNtB4_12DebugManager13update_config
FN:121,_RNvMs_NtCs9nxHbwgHRMj_6rustdb5debugNtB4_12DebugManager20performance_analyzer
FN:146,_RNvMs_NtCs9nxHbwgHRMj_6rustdb5debugNtB4_12DebugManager21generate_debug_report
FN:73,_RNvMs_NtCs9nxHbwgHRMj_6rustdb5debugNtB4_12DebugManager3new
FN:101,_RNvMs_NtCs9nxHbwgHRMj_6rustdb5debugNtB4_12DebugManager6config
FN:116,_RNvMs_NtCs9nxHbwgHRMj_6rustdb5debugNtB4_12DebugManager8profiler
FN:220,_RNvMs_NtCs9nxHbwgHRMj_6rustdb5debugNtB4_12DebugManager8shutdown
FN:240,_RNvXs0_NtCs9nxHbwgHRMj_6rustdb5debugNtB5_12DebugManagerNtNtNtCsixiwFwjEgS7_4core3ops4drop4Drop4drop
FN:46,_RNvXNtCs9nxHbwgHRMj_6rustdb5debugNtB2_11DebugConfigNtNtCsixiwFwjEgS7_4core7default7Default7default
FNDA:0,_RNvXs0_NtCsioRnW7FrYT6_6rustdb5debugNtB5_12DebugManagerNtNtNtCsixiwFwjEgS7_4core3ops4drop4Drop4drop
FNDA:0,_RNvMs_NtCsioRnW7FrYT6_6rustdb5debugNtB4_12DebugManager12debug_logger
FNDA:0,_RNvMs_NtCsioRnW7FrYT6_6rustdb5debugNtB4_12DebugManager12query_tracer
FNDA:0,_RNvMs_NtCsioRnW7FrYT6_6rustdb5debugNtB4_12DebugManager13update_config
FNDA:0,_RNvMs_NtCsioRnW7FrYT6_6rustdb5debugNtB4_12DebugManager20performance_analyzer
FNDA:0,_RNvMs_NtCsioRnW7FrYT6_6rustdb5debugNtB4_12DebugManager21generate_debug_report
FNDA:0,_RNvMs_NtCsioRnW7FrYT6_6rustdb5debugNtB4_12DebugManager3new
FNDA:0,_RNvMs_NtCsioRnW7FrYT6_6rustdb5debugNtB4_12DebugManager6config
FNDA:0,_RNvMs_NtCsioRnW7FrYT6_6rustdb5debugNtB4_12DebugManager8profiler
FNDA:0,_RNvMs_NtCsioRnW7FrYT6_6rustdb5debugNtB4_12DebugManager8shutdown
FNDA:0,_RNvXNtCsioRnW7FrYT6_6rustdb5debugNtB2_11DebugConfigNtNtCsixiwFwjEgS7_4core7default7Default7default
FNDA:0,_RNvMs_NtCs9nxHbwgHRMj_6rustdb5debugNtB4_12DebugManager12debug_logger
FNDA:0,_RNvMs_NtCs9nxHbwgHRMj_6rustdb5debugNtB4_12DebugManager12query_tracer
FNDA:0,_RNvMs_NtCs9nxHbwgHRMj_6rustdb5debugNtB4_12DebugManager13update_config
FNDA:0,_RNvMs_NtCs9nxHbwgHRMj_6rustdb5debugNtB4_12DebugManager20performance_analyzer
FNDA:0,_RNvMs_NtCs9nxHbwgHRMj_6rustdb5debugNtB4_12DebugManager21generate_debug_report
FNDA:0,_RNvMs_NtCs9nxHbwgHRMj_6rustdb5debugNtB4_12DebugManager3new
FNDA:0,_RNvMs_NtCs9nxHbwgHRMj_6rustdb5debugNtB4_12DebugManager6config
FNDA:0,_RNvMs_NtCs9nxHbwgHRMj_6rustdb5debugNtB4_12DebugManager8profiler
FNDA:0,_RNvMs_NtCs9nxHbwgHRMj_6rustdb5debugNtB4_12DebugManager8shutdown
FNDA:0,_RNvXs0_NtCs9nxHbwgHRMj_6rustdb5debugNtB5_12DebugManagerNtNtNtCsixiwFwjEgS7_4core3ops4drop4Drop4drop
FNDA:6,_RNvXNtCs9nxHbwgHRMj_6rustdb5debugNtB2_11DebugConfigNtNtCsixiwFwjEgS7_4core7default7Default7default
FNF:11
FNH:1
DA:46,6
DA:47,6
DA:48,6
DA:49,6
DA:50,6
DA:51,6
DA:52,6
DA:53,6
DA:54,6
DA:55,6
DA:56,6
DA:57,6
DA:58,6
DA:59,6
DA:73,0
DA:74,0
DA:75,0
DA:76,0
DA:77,0
DA:78,0
DA:79,0
DA:80,0
DA:83,0
DA:84,0
DA:85,0
DA:87,0
DA:88,0
DA:89,0
DA:91,0
DA:92,0
DA:93,0
DA:95,0
DA:97,0
DA:98,0
DA:101,0
DA:102,0
DA:103,0
DA:106,0
DA:107,0
DA:108,0
DA:111,0
DA:112,0
DA:113,0
DA:116,0
DA:117,0
DA:118,0
DA:121,0
DA:122,0
DA:123,0
DA:126,0
DA:127,0
DA:130,0
DA:131,0
DA:132,0
DA:134,0
DA:135,0
DA:136,0
DA:138,0
DA:139,0
DA:140,0
DA:141,0
DA:142,0
DA:143,0
DA:146,0
DA:147,0
DA:149,0
DA:151,0
DA:152,0
DA:153,0
DA:154,0
DA:155,0
DA:156,0
DA:157,0
DA:158,0
DA:159,0
DA:160,0
DA:161,0
DA:162,0
DA:163,0
DA:164,0
DA:165,0
DA:166,0
DA:167,0
DA:168,0
DA:169,0
DA:170,0
DA:171,0
DA:172,0
DA:173,0
DA:175,0
DA:176,0
DA:177,0
DA:178,0
DA:179,0
DA:180,0
DA:181,0
DA:182,0
DA:183,0
DA:184,0
DA:185,0
DA:186,0
DA:187,0
DA:188,0
DA:189,0
DA:192,0
DA:193,0
DA:194,0
DA:195,0
DA:196,0
DA:198,0
DA:199,0
DA:200,0
DA:201,0
DA:202,0
DA:204,0
DA:205,0
DA:206,0
DA:207,0
DA:208,0
DA:210,0
DA:211,0
DA:212,0
DA:213,0
DA:214,0
DA:216,0
DA:217,0
DA:220,0
DA:221,0
DA:222,0
DA:223,0
DA:225,0
DA:226,0
DA:227,0
DA:229,0
DA:230,0
DA:231,0
DA:233,0
DA:234,0
DA:235,0
DA:236,0
DA:240,0
DA:241,0
DA:242,0
BRF:0
BRH:0
LF:143
LH:14
end_of_record
SF:C:\Users\Admin\RustProjects\RustBD\src\debug\performance_analyzer.rs
FN:703,_RNvXs1_NtNtCsioRnW7FrYT6_6rustdb5debug20performance_analyzerNtB5_19PerformanceAnalyzerNtNtNtCsixiwFwjEgS7_4core3ops4drop4Drop4drop
FN:508,_RNvMs0_NtNtCsioRnW7FrYT6_6rustdb5debug20performance_analyzerNtB5_19PerformanceAnalyzer11get_disk_io
FN:558,_RNvMs0_NtNtCsioRnW7FrYT6_6rustdb5debug20performance_analyzerNtB5_19PerformanceAnalyzer12get_analyses
FN:486,_RNvMs0_NtNtCsioRnW7FrYT6_6rustdb5debug20performance_analyzerNtB5_19PerformanceAnalyzer13get_cpu_usage
FN:519,_RNvMs0_NtNtCsioRnW7FrYT6_6rustdb5debug20performance_analyzerNtB5_19PerformanceAnalyzer14get_network_io
FN:497,_RNvMs0_NtNtCsioRnW7FrYT6_6rustdb5debug20performance_analyzerNtB5_19PerformanceAnalyzer16get_memory_usage
FN:296,_RNvMs0_NtNtCsioRnW7FrYT6_6rustdb5debug20performance_analyzerNtB5_19PerformanceAnalyzer16perform_analysis
FN:410,_RNvMs0_NtNtCsioRnW7FrYT6_6rustdb5debug20performance_analyzerNtB5_19PerformanceAnalyzer19get_bottleneck_type
FN:530,_RNvMs0_NtNtCsioRnW7FrYT6_6rustdb5debug20performance_analyzerNtB5_19PerformanceAnalyzer19get_cache_hit_ratio
FN:552,_RNvMs0_NtNtCsioRnW7FrYT6_6rustdb5debug20performance_analyzerNtB5_19PerformanceAnalyzer19get_latest_analysis
FN:541,_RNvMs0_NtNtCsioRnW7FrYT6_6rustdb5debug20performance_analyzerNtB5_19PerformanceAnalyzer19get_lock_contention
FN:423,_RNvMs0_NtNtCsioRnW7FrYT6_6rustdb5debug20performance_analyzerNtB5_19PerformanceAnalyzer19get_recommendations
FN:458,_RNvMs0_NtNtCsioRnW7FrYT6_6rustdb5debug20performance_analyzerNtB5_19PerformanceAnalyzer20analyze_metric_trend
FN:468,_RNvMs0_NtNtCsioRnW7FrYT6_6rustdb5debug20performance_analyzerNtB5_19PerformanceAnalyzer21update_analysis_stats
FN:667,_RNvMs0_NtNtCsioRnW7FrYT6_6rustdb5debug20performance_analyzerNtB5_19PerformanceAnalyzer22generate_status_report
FN:169,_RNvMs0_NtNtCsioRnW7FrYT6_6rustdb5debug20performance_analyzerNtB5_19PerformanceAnalyzer25start_background_analysis
FN:219,_RNvMs0_NtNtCsioRnW7FrYT6_6rustdb5debug20performance_analyzerNtB5_19PerformanceAnalyzer27collect_performance_metrics
FN:570,_RNvMs0_NtNtCsioRnW7FrYT6_6rustdb5debug20performance_analyzerNtB5_19PerformanceAnalyzer27generate_performance_report
FN:153,_RNvMs0_NtNtCsioRnW7FrYT6_6rustdb5debug20performance_analyzerNtB5_19PerformanceAnalyzer3new
FN:695,_RNvMs0_NtNtCsioRnW7FrYT6_6rustdb5debug20performance_analyzerNtB5_19PerformanceAnalyzer8shutdown
FN:565,_RNvMs0_NtNtCsioRnW7FrYT6_6rustdb5debug20performance_analyzerNtB5_19PerformanceAnalyzer9get_stats
FN:30,_RNvXNtNtCsioRnW7FrYT6_6rustdb5debug20performance_analyzerNtB2_14BottleneckTypeNtNtCsixiwFwjEgS7_4core3fmt7Display3fmt
FN:54,_RNvXs_NtNtCsioRnW7FrYT6_6rustdb5debug20performance_analyzerNtB4_13SeverityLevelNtNtCsixiwFwjEgS7_4core3fmt7Display3fmt
FN:379,_RNCNvMs0_NtNtCsioRnW7FrYT6_6rustdb5debug20performance_analyzerNtB7_19PerformanceAnalyzer16perform_analysis0Bb_
FN:394,_RNCNvMs0_NtNtCsioRnW7FrYT6_6rustdb5debug20performance_analyzerNtB7_19PerformanceAnalyzer16perform_analysiss0_0Bb_
FN:387,_RNCNvMs0_NtNtCsioRnW7FrYT6_6rustdb5debug20performance_analyzerNtB7_19PerformanceAnalyzer16perform_analysiss_0Bb_
FN:476,_RNCNvMs0_NtNtCsioRnW7FrYT6_6rustdb5debug20performance_analyzerNtB7_19PerformanceAnalyzer21update_analysis_stats0Bb_
FN:175,_RNCNvMs0_NtNtCsioRnW7FrYT6_6rustdb5debug20performance_analyzerNtB7_19PerformanceAnalyzer25start_background_analysis0Bb_
FN:558,_RNvMs0_NtNtCs9nxHbwgHRMj_6rustdb5debug20performance_analyzerNtB5_19PerformanceAnalyzer12get_analyses
FN:667,_RNvMs0_NtNtCs9nxHbwgHRMj_6rustdb5debug20performance_analyzerNtB5_19PerformanceAnalyzer22generate_status_report
FN:379,_RNCNvMs0_NtNtCs9nxHbwgHRMj_6rustdb5debug20performance_analyzerNtB7_19PerformanceAnalyzer16perform_analysis0Bb_
FN:394,_RNCNvMs0_NtNtCs9nxHbwgHRMj_6rustdb5debug20performance_analyzerNtB7_19PerformanceAnalyzer16perform_analysiss0_0Bb_
FN:387,_RNCNvMs0_NtNtCs9nxHbwgHRMj_6rustdb5debug20performance_analyzerNtB7_19PerformanceAnalyzer16perform_analysiss_0Bb_
FN:476,_RNCNvMs0_NtNtCs9nxHbwgHRMj_6rustdb5debug20performance_analyzerNtB7_19PerformanceAnalyzer21update_analysis_stats0Bb_
FN:175,_RNCNvMs0_NtNtCs9nxHbwgHRMj_6rustdb5debug20performance_analyzerNtB7_19PerformanceAnalyzer25start_background_analysis0Bb_
FN:508,_RNvMs0_NtNtCs9nxHbwgHRMj_6rustdb5debug20performance_analyzerNtB5_19PerformanceAnalyzer11get_disk_io
FN:486,_RNvMs0_NtNtCs9nxHbwgHRMj_6rustdb5debug20performance_analyzerNtB5_19PerformanceAnalyzer13get_cpu_usage
FN:519,_RNvMs0_NtNtCs9nxHbwgHRMj_6rustdb5debug20performance_analyzerNtB5_19PerformanceAnalyzer14get_network_io
FN:497,_RNvMs0_NtNtCs9nxHbwgHRMj_6rustdb5debug20performance_analyzerNtB5_19PerformanceAnalyzer16get_memory_usage
FN:296,_RNvMs0_NtNtCs9nxHbwgHRMj_6rustdb5debug20performance_analyzerNtB5_19PerformanceAnalyzer16perform_analysis
FN:410,_RNvMs0_NtNtCs9nxHbwgHRMj_6rustdb5debug20performance_analyzerNtB5_19PerformanceAnalyzer19get_bottleneck_type
FN:530,_RNvMs0_NtNtCs9nxHbwgHRMj_6rustdb5debug20performance_analyzerNtB5_19PerformanceAnalyzer19get_cache_hit_ratio
FN:552,_RNvMs0_NtNtCs9nxHbwgHRMj_6rustdb5debug20performance_analyzerNtB5_19PerformanceAnalyzer19get_latest_analysis
FN:541,_RNvMs0_NtNtCs9nxHbwgHRMj_6rustdb5debug20performance_analyzerNtB5_19PerformanceAnalyzer19get_lock_contention
FN:423,_RNvMs0_NtNtCs9nxHbwgHRMj_6rustdb5debug20performance_analyzerNtB5_19PerformanceAnalyzer19get_recommendations
FN:458,_RNvMs0_NtNtCs9nxHbwgHRMj_6rustdb5debug20performance_analyzerNtB5_19PerformanceAnalyzer20analyze_metric_trend
FN:468,_RNvMs0_NtNtCs9nxHbwgHRMj_6rustdb5debug20performance_analyzerNtB5_19PerformanceAnalyzer21update_analysis_stats
FN:169,_RNvMs0_NtNtCs9nxHbwgHRMj_6rustdb5debug20performance_analyzerNtB5_19PerformanceAnalyzer25start_background_analysis
FN:219,_RNvMs0_NtNtCs9nxHbwgHRMj_6rustdb5debug20performance_analyzerNtB5_19PerformanceAnalyzer27collect_performance_metrics
FN:570,_RNvMs0_NtNtCs9nxHbwgHRMj_6rustdb5debug20performance_analyzerNtB5_19PerformanceAnalyzer27generate_performance_report
FN:153,_RNvMs0_NtNtCs9nxHbwgHRMj_6rustdb5debug20performance_analyzerNtB5_19PerformanceAnalyzer3new
FN:695,_RNvMs0_NtNtCs9nxHbwgHRMj_6rustdb5debug20performance_analyzerNtB5_19PerformanceAnalyzer8shutdown
FN:565,_RNvMs0_NtNtCs9nxHbwgHRMj_6rustdb5debug20performance_analyzerNtB5_19PerformanceAnalyzer9get_stats
FN:30,_RNvXNtNtCs9nxHbwgHRMj_6rustdb5debug20performance_analyzerNtB2_14BottleneckTypeNtNtCsixiwFwjEgS7_4core3fmt7Display3fmt
FN:54,_RNvXs_NtNtCs9nxHbwgHRMj_6rustdb5debug20performance_analyzerNtB4_13SeverityLevelNtNtCsixiwFwjEgS7_4core3fmt7Display3fmt
FN:703,_RNvXs1_NtNtCs9nxHbwgHRMj_6rustdb5debug20performance_analyzerNtB5_19PerformanceAnalyzerNtNtNtCsixiwFwjEgS7_4core3ops4drop4Drop4drop
FN:789,_RNvNtNtNtCs9nxHbwgHRMj_6rustdb5debug20performance_analyzer5testss_20test_recommendations
FN:745,_RNvNtNtNtCs9nxHbwgHRMj_6rustdb5debug20performance_analyzer5testss_25test_bottleneck_detection
FN:713,_RNvNtNtNtCs9nxHbwgHRMj_6rustdb5debug20performance_analyzer5testss_25test_performance_analyzer
FN:795,_RNCNvNtNtNtCs9nxHbwgHRMj_6rustdb5debug20performance_analyzer5testss_20test_recommendations0B9_
FN:803,_RNCNvNtNtNtCs9nxHbwgHRMj_6rustdb5debug20performance_analyzer5testss_20test_recommendationss_0B9_
FN:779,_RNCNvNtNtNtCs9nxHbwgHRMj_6rustdb5debug20performance_analyzer5testss_25test_bottleneck_detection0B9_
FN:785,_RNCNvNtNtNtCs9nxHbwgHRMj_6rustdb5debug20performance_analyzer5testss_25test_bottleneck_detections_0B9_
FN:713,_RNCNvNtNtNtCs9nxHbwgHRMj_6rustdb5debug20performance_analyzer5testss_25test_performance_analyzer0B9_
FNDA:0,_RNvXs1_NtNtCsioRnW7FrYT6_6rustdb5debug20performance_analyzerNtB5_19PerformanceAnalyzerNtNtNtCsixiwFwjEgS7_4core3ops4drop4Drop4drop
FNDA:0,_RNvMs0_NtNtCsioRnW7FrYT6_6rustdb5debug20performance_analyzerNtB5_19PerformanceAnalyzer11get_disk_io
FNDA:0,_RNvMs0_NtNtCsioRnW7FrYT6_6rustdb5debug20performance_analyzerNtB5_19PerformanceAnalyzer12get_analyses
FNDA:0,_RNvMs0_NtNtCsioRnW7FrYT6_6rustdb5debug20performance_analyzerNtB5_19PerformanceAnalyzer13get_cpu_usage
FNDA:0,_RNvMs0_NtNtCsioRnW7FrYT6_6rustdb5debug20performance_analyzerNtB5_19PerformanceAnalyzer14get_network_io
FNDA:0,_RNvMs0_NtNtCsioRnW7FrYT6_6rustdb5debug20performance_analyzerNtB5_19PerformanceAnalyzer16get_memory_usage
FNDA:0,_RNvMs0_NtNtCsioRnW7FrYT6_6rustdb5debug20performance_analyzerNtB5_19PerformanceAnalyzer16perform_analysis
FNDA:0,_RNvMs0_NtNtCsioRnW7FrYT6_6rustdb5debug20performance_analyzerNtB5_19PerformanceAnalyzer19get_bottleneck_type
FNDA:0,_RNvMs0_NtNtCsioRnW7FrYT6_6rustdb5debug20performance_analyzerNtB5_19PerformanceAnalyzer19get_cache_hit_ratio
FNDA:0,_RNvMs0_NtNtCsioRnW7FrYT6_6rustdb5debug20performance_analyzerNtB5_19PerformanceAnalyzer19get_latest_analysis
FNDA:0,_RNvMs0_NtNtCsioRnW7FrYT6_6rustdb5debug20performance_analyzerNtB5_19PerformanceAnalyzer19get_lock_contention
FNDA:0,_RNvMs0_NtNtCsioRnW7FrYT6_6rustdb5debug20performance_analyzerNtB5_19PerformanceAnalyzer19get_recommendations
FNDA:0,_RNvMs0_NtNtCsioRnW7FrYT6_6rustdb5debug20performance_analyzerNtB5_19PerformanceAnalyzer20analyze_metric_trend
FNDA:0,_RNvMs0_NtNtCsioRnW7FrYT6_6rustdb5debug20performance_analyzerNtB5_19PerformanceAnalyzer21update_analysis_stats
FNDA:0,_RNvMs0_NtNtCsioRnW7FrYT6_6rustdb5debug20performance_analyzerNtB5_19PerformanceAnalyzer22generate_status_report
FNDA:0,_RNvMs0_NtNtCsioRnW7FrYT6_6rustdb5debug20performance_analyzerNtB5_19PerformanceAnalyzer25start_background_analysis
FNDA:0,_RNvMs0_NtNtCsioRnW7FrYT6_6rustdb5debug20performance_analyzerNtB5_19PerformanceAnalyzer27collect_performance_metrics
FNDA:0,_RNvMs0_NtNtCsioRnW7FrYT6_6rustdb5debug20performance_analyzerNtB5_19PerformanceAnalyzer27generate_performance_report
FNDA:0,_RNvMs0_NtNtCsioRnW7FrYT6_6rustdb5debug20performance_analyzerNtB5_19PerformanceAnalyzer3new
FNDA:0,_RNvMs0_NtNtCsioRnW7FrYT6_6rustdb5debug20performance_analyzerNtB5_19PerformanceAnalyzer8shutdown
FNDA:0,_RNvMs0_NtNtCsioRnW7FrYT6_6rustdb5debug20performance_analyzerNtB5_19PerformanceAnalyzer9get_stats
FNDA:0,_RNvXNtNtCsioRnW7FrYT6_6rustdb5debug20performance_analyzerNtB2_14BottleneckTypeNtNtCsixiwFwjEgS7_4core3fmt7Display3fmt
FNDA:0,_RNvXs_NtNtCsioRnW7FrYT6_6rustdb5debug20performance_analyzerNtB4_13SeverityLevelNtNtCsixiwFwjEgS7_4core3fmt7Display3fmt
FNDA:0,_RNCNvMs0_NtNtCsioRnW7FrYT6_6rustdb5debug20performance_analyzerNtB7_19PerformanceAnalyzer16perform_analysis0Bb_
FNDA:0,_RNCNvMs0_NtNtCsioRnW7FrYT6_6rustdb5debug20performance_analyzerNtB7_19PerformanceAnalyzer16perform_analysiss0_0Bb_
FNDA:0,_RNCNvMs0_NtNtCsioRnW7FrYT6_6rustdb5debug20performance_analyzerNtB7_19PerformanceAnalyzer16perform_analysiss_0Bb_
FNDA:0,_RNCNvMs0_NtNtCsioRnW7FrYT6_6rustdb5debug20performance_analyzerNtB7_19PerformanceAnalyzer21update_analysis_stats0Bb_
FNDA:0,_RNCNvMs0_NtNtCsioRnW7FrYT6_6rustdb5debug20performance_analyzerNtB7_19PerformanceAnalyzer25start_background_analysis0Bb_
FNDA:0,_RNvMs0_NtNtCs9nxHbwgHRMj_6rustdb5debug20performance_analyzerNtB5_19PerformanceAnalyzer12get_analyses
FNDA:0,_RNvMs0_NtNtCs9nxHbwgHRMj_6rustdb5debug20performance_analyzerNtB5_19PerformanceAnalyzer22generate_status_report
FNDA:6,_RNCNvMs0_NtNtCs9nxHbwgHRMj_6rustdb5debug20performance_analyzerNtB7_19PerformanceAnalyzer16perform_analysis0Bb_
FNDA:6,_RNCNvMs0_NtNtCs9nxHbwgHRMj_6rustdb5debug20performance_analyzerNtB7_19PerformanceAnalyzer16perform_analysiss0_0Bb_
FNDA:6,_RNCNvMs0_NtNtCs9nxHbwgHRMj_6rustdb5debug20performance_analyzerNtB7_19PerformanceAnalyzer16perform_analysiss_0Bb_
FNDA:5,_RNCNvMs0_NtNtCs9nxHbwgHRMj_6rustdb5debug20performance_analyzerNtB7_19PerformanceAnalyzer21update_analysis_stats0Bb_
FNDA:1,_RNCNvMs0_NtNtCs9nxHbwgHRMj_6rustdb5debug20performance_analyzerNtB7_19PerformanceAnalyzer25start_background_analysis0Bb_
FNDA:2,_RNvMs0_NtNtCs9nxHbwgHRMj_6rustdb5debug20performance_analyzerNtB5_19PerformanceAnalyzer11get_disk_io
FNDA:2,_RNvMs0_NtNtCs9nxHbwgHRMj_6rustdb5debug20performance_analyzerNtB5_19PerformanceAnalyzer13get_cpu_usage
FNDA:2,_RNvMs0_NtNtCs9nxHbwgHRMj_6rustdb5debug20performance_analyzerNtB5_19PerformanceAnalyzer14get_network_io
FNDA:2,_RNvMs0_NtNtCs9nxHbwgHRMj_6rustdb5debug20performance_analyzerNtB5_19PerformanceAnalyzer16get_memory_usage
FNDA:3,_RNvMs0_NtNtCs9nxHbwgHRMj_6rustdb5debug20performance_analyzerNtB5_19PerformanceAnalyzer16perform_analysis
FNDA:6,_RNvMs0_NtNtCs9nxHbwgHRMj_6rustdb5debug20performance_analyzerNtB5_19PerformanceAnalyzer19get_bottleneck_type
FNDA:2,_RNvMs0_NtNtCs9nxHbwgHRMj_6rustdb5debug20performance_analyzerNtB5_19PerformanceAnalyzer19get_cache_hit_ratio
FNDA:2,_RNvMs0_NtNtCs9nxHbwgHRMj_6rustdb5debug20performance_analyzerNtB5_19PerformanceAnalyzer19get_latest_analysis
FNDA:2,_RNvMs0_NtNtCs9nxHbwgHRMj_6rustdb5debug20performance_analyzerNtB5_19PerformanceAnalyzer19get_lock_contention
FNDA:8,_RNvMs0_NtNtCs9nxHbwgHRMj_6rustdb5debug20performance_analyzerNtB5_19PerformanceAnalyzer19get_recommendations
FNDA:14,_RNvMs0_NtNtCs9nxHbwgHRMj_6rustdb5debug20performance_analyzerNtB5_19PerformanceAnalyzer20analyze_metric_trend
FNDA:2,_RNvMs0_NtNtCs9nxHbwgHRMj_6rustdb5debug20performance_analyzerNtB5_19PerformanceAnalyzer21update_analysis_stats
FNDA:1,_RNvMs0_NtNtCs9nxHbwgHRMj_6rustdb5debug20performance_analyzerNtB5_19PerformanceAnalyzer25start_background_analysis
FNDA:2,_RNvMs0_NtNtCs9nxHbwgHRMj_6rustdb5debug20performance_analyzerNtB5_19PerformanceAnalyzer27collect_performance_metrics
FNDA:1,_RNvMs0_NtNtCs9nxHbwgHRMj_6rustdb5debug20performance_analyzerNtB5_19PerformanceAnalyzer27generate_performance_report
FNDA:1,_RNvMs0_NtNtCs9nxHbwgHRMj_6rustdb5debug20performance_analyzerNtB5_19PerformanceAnalyzer3new
FNDA:1,_RNvMs0_NtNtCs9nxHbwgHRMj_6rustdb5debug20performance_analyzerNtB5_19PerformanceAnalyzer8shutdown
FNDA:2,_RNvMs0_NtNtCs9nxHbwgHRMj_6rustdb5debug20performance_analyzerNtB5_19PerformanceAnalyzer9get_stats
FNDA:3,_RNvXNtNtCs9nxHbwgHRMj_6rustdb5debug20performance_analyzerNtB2_14BottleneckTypeNtNtCsixiwFwjEgS7_4core3fmt7Display3fmt
FNDA:3,_RNvXs_NtNtCs9nxHbwgHRMj_6rustdb5debug20performance_analyzerNtB4_13SeverityLevelNtNtCsixiwFwjEgS7_4core3fmt7Display3fmt
FNDA:1,_RNvXs1_NtNtCs9nxHbwgHRMj_6rustdb5debug20performance_analyzerNtB5_19PerformanceAnalyzerNtNtNtCsixiwFwjEgS7_4core3ops4drop4Drop4drop
FNDA:1,_RNvNtNtNtCs9nxHbwgHRMj_6rustdb5debug20performance_analyzer5testss_20test_recommendations
FNDA:1,_RNvNtNtNtCs9nxHbwgHRMj_6rustdb5debug20performance_analyzer5testss_25test_bottleneck_detection
FNDA:1,_RNvNtNtNtCs9nxHbwgHRMj_6rustdb5debug20performance_analyzer5testss_25test_performance_analyzer
FNDA:1,_RNCNvNtNtNtCs9nxHbwgHRMj_6rustdb5debug20performance_analyzer5testss_20test_recommendations0B9_
FNDA:1,_RNCNvNtNtNtCs9nxHbwgHRMj_6rustdb5debug20performance_analyzer5testss_20test_recommendationss_0B9_
FNDA:1,_RNCNvNtNtNtCs9nxHbwgHRMj_6rustdb5debug20performance_analyzer5testss_25test_bottleneck_detection0B9_
FNDA:1,_RNCNvNtNtNtCs9nxHbwgHRMj_6rustdb5debug20performance_analyzer5testss_25test_bottleneck_detections_0B9_
FNDA:1,_RNCNvNtNtNtCs9nxHbwgHRMj_6rustdb5debug20performance_analyzer5testss_25test_performance_analyzer0B9_
FNF:36
FNH:34
DA:30,3
DA:31,3
DA:32,0
DA:33,0
DA:34,0
DA:35,1
DA:36,1
DA:37,1
DA:39,3
DA:54,3
DA:55,3
DA:56,0
DA:57,1
DA:58,2
DA:60,3
DA:153,1
DA:154,1
DA:155,1
DA:156,1
DA:157,1
DA:158,1
DA:159,1
DA:160,1
DA:163,1
DA:165,1
DA:166,1
DA:169,1
DA:170,1
DA:171,1
DA:172,1
DA:173,1
DA:175,1
DA:176,1
DA:177,1
DA:180,3
DA:183,2
DA:187,2
DA:188,2
DA:191,2
DA:192,2
DA:193,0
DA:194,2
DA:198,2
DA:202,2
DA:203,2
DA:206,2
DA:207,2
DA:208,0
DA:209,2
DA:213,2
DA:216,1
DA:219,2
DA:220,2
DA:221,2
DA:222,2
DA:223,2
DA:225,2
DA:226,2
DA:227,2
DA:228,2
DA:229,2
DA:230,2
DA:231,2
DA:232,2
DA:233,2
DA:234,2
DA:235,2
DA:236,2
DA:237,2
DA:238,2
DA:239,2
DA:240,2
DA:241,2
DA:242,2
DA:243,2
DA:244,2
DA:245,2
DA:246,2
DA:247,2
DA:248,2
DA:249,2
DA:250,2
DA:251,2
DA:252,2
DA:253,2
DA:254,2
DA:255,2
DA:256,2
DA:257,2
DA:258,2
DA:259,2
DA:260,2
DA:261,2
DA:262,2
DA:263,2
DA:264,2
DA:265,2
DA:266,2
DA:267,2
DA:268,2
DA:269,2
DA:270,2
DA:271,2
DA:272,2
DA:273,2
DA:274,2
DA:275,2
DA:276,2
DA:277,2
DA:278,2
DA:279,2
DA:280,2
DA:281,2
DA:282,2
DA:283,2
DA:284,2
DA:285,2
DA:286,2
DA:287,2
DA:288,2
DA:289,2
DA:290,2
DA:291,2
DA:293,2
DA:296,3
DA:297,3
DA:298,3
DA:299,3
DA:300,3
DA:302,3
DA:303,3
DA:304,3
DA:305,3
DA:308,17
DA:309,14
DA:310,14
DA:313,14
DA:314,4
DA:315,4
DA:316,4
DA:317,4
DA:318,4
DA:319,4
DA:320,4
DA:321,4
DA:322,4
DA:323,4
DA:324,4
DA:325,4
DA:326,4
DA:327,4
DA:328,4
DA:329,4
DA:330,4
DA:331,4
DA:332,4
DA:333,4
DA:334,4
DA:335,4
DA:337,10
DA:338,2
DA:339,2
DA:340,2
DA:341,2
DA:342,2
DA:343,2
DA:344,2
DA:345,2
DA:346,2
DA:347,2
DA:348,2
DA:349,2
DA:350,2
DA:351,2
DA:352,2
DA:353,2
DA:354,2
DA:355,2
DA:356,2
DA:357,2
DA:358,2
DA:359,8
DA:361,14
DA:362,14
DA:365,14
DA:366,14
DA:370,3
DA:371,2
DA:372,2
DA:373,1
DA:374,1
DA:375,1
DA:377,3
DA:378,3
DA:379,6
DA:380,1
DA:381,1
DA:382,1
DA:383,2
DA:385,3
DA:386,3
DA:387,6
DA:388,0
DA:389,0
DA:390,3
DA:392,3
DA:393,3
DA:394,6
DA:395,0
DA:396,0
DA:397,3
DA:399,3
DA:400,3
DA:401,3
DA:402,3
DA:403,3
DA:404,3
DA:405,3
DA:406,3
DA:407,3
DA:410,6
DA:411,6
DA:412,6
DA:413,5
DA:414,5
DA:415,5
DA:416,3
DA:417,2
DA:418,0
DA:420,6
DA:423,8
DA:424,8
DA:425,8
DA:426,2
DA:427,2
DA:428,2
DA:430,0
DA:431,0
DA:432,0
DA:434,6
DA:435,0
DA:436,0
DA:437,0
DA:439,1
DA:440,1
DA:441,1
DA:443,5
DA:444,2
DA:445,2
DA:446,2
DA:448,3
DA:449,1
DA:450,1
DA:451,1
DA:453,2
DA:455,8
DA:458,14
DA:460,14
DA:461,5
DA:463,9
DA:465,14
DA:468,2
DA:469,2
DA:470,2
DA:471,2
DA:472,2
DA:473,2
DA:474,2
DA:475,2
DA:476,5
DA:477,2
DA:479,2
DA:480,2
DA:481,2
DA:482,2
DA:483,2
DA:486,2
DA:491,2
DA:492,2
DA:493,2
DA:494,2
DA:497,2
DA:502,2
DA:503,2
DA:504,2
DA:505,2
DA:508,2
DA:513,2
DA:514,2
DA:515,2
DA:516,2
DA:519,2
DA:524,2
DA:525,2
DA:526,2
DA:527,2
DA:530,2
DA:535,2
DA:536,2
DA:537,2
DA:538,2
DA:541,2
DA:546,2
DA:547,2
DA:548,2
DA:549,2
DA:552,2
DA:553,2
DA:554,2
DA:555,2
DA:558,0
DA:559,0
DA:560,0
DA:561,0
DA:562,0
DA:565,2
DA:566,2
DA:567,2
DA:570,1
DA:571,1
DA:572,1
DA:574,1
DA:576,1
DA:579,1
DA:580,1
DA:581,1
DA:582,1
DA:583,1
DA:584,1
DA:585,1
DA:586,1
DA:587,1
DA:588,1
DA:589,1
DA:590,1
DA:593,1
DA:594,1
DA:595,1
DA:596,1
DA:597,1
DA:598,1
DA:599,1
DA:600,1
DA:601,1
DA:602,1
DA:603,1
DA:606,1
DA:607,1
DA:608,3
DA:609,3
DA:610,3
DA:611,3
DA:612,3
DA:613,3
DA:614,3
DA:615,3
DA:617,3
DA:618,3
DA:619,10
DA:620,7
DA:621,7
DA:622,0
DA:624,1
DA:625,0
DA:628,1
DA:629,1
DA:630,1
DA:631,1
DA:632,1
DA:633,1
DA:634,0
DA:637,1
DA:638,1
DA:639,7
DA:640,6
DA:641,6
DA:642,1
DA:643,0
DA:644,0
DA:647,1
DA:648,1
DA:649,1
DA:650,1
DA:651,0
DA:652,0
DA:653,0
DA:654,0
DA:656,1
DA:657,1
DA:658,1
DA:659,1
DA:660,1
DA:661,1
DA:663,1
DA:664,1
DA:667,0
DA:668,0
DA:669,0
DA:670,0
DA:672,0
DA:674,0
DA:675,0
DA:676,0
DA:677,0
DA:678,0
DA:679,0
DA:680,0
DA:681,0
DA:682,0
DA:683,0
DA:684,0
DA:685,0
DA:686,0
DA:687,0
DA:688,0
DA:689,0
DA:691,0
DA:692,0
DA:695,1
DA:696,1
DA:697,1
DA:698,1
DA:699,1
DA:703,1
DA:704,1
DA:705,1
DA:713,1
DA:714,1
DA:715,1
DA:716,1
DA:717,1
DA:719,1
DA:722,1
DA:725,1
DA:726,1
DA:729,1
DA:730,1
DA:732,1
DA:733,1
DA:734,1
DA:735,0
DA:738,1
DA:739,1
DA:740,1
DA:741,1
DA:742,1
DA:745,1
DA:746,1
DA:747,1
DA:748,1
DA:749,1
DA:750,1
DA:751,1
DA:752,1
DA:753,1
DA:754,1
DA:755,1
DA:756,1
DA:757,1
DA:758,1
DA:759,1
DA:760,1
DA:761,1
DA:762,1
DA:763,1
DA:764,1
DA:765,1
DA:766,1
DA:767,1
DA:768,1
DA:771,1
DA:773,1
DA:774,1
DA:776,1
DA:777,1
DA:778,1
DA:779,1
DA:780,1
DA:782,1
DA:783,1
DA:784,1
DA:785,1
DA:786,1
DA:789,1
DA:790,1
DA:791,1
DA:792,1
DA:793,1
DA:794,1
DA:795,1
DA:797,1
DA:798,1
DA:799,1
DA:801,1
DA:802,1
DA:803,1
DA:804,1
BRF:0
BRH:0
LF:508
LH:453
end_of_record
SF:C:\Users\Admin\RustProjects\RustBD\src\debug\profiler.rs
FN:546,_RNvXs_NtNtCsioRnW7FrYT6_6rustdb5debug8profilerNtB4_8ProfilerNtNtNtCsixiwFwjEgS7_4core3ops4drop4Drop4drop
FN:265,_RNvMNtNtCsioRnW7FrYT6_6rustdb5debug8profilerNtB2_8Profiler12update_stats
FN:295,_RNvMNtNtCsioRnW7FrYT6_6rustdb5debug8profilerNtB2_8Profiler13get_cpu_usage
FN:332,_RNvMNtNtCsioRnW7FrYT6_6rustdb5debug8profilerNtB2_8Profiler13get_idle_time
FN:384,_RNvMNtNtCsioRnW7FrYT6_6rustdb5debug8profilerNtB2_8Profiler13get_snapshots
FN:312,_RNvMNtNtCsioRnW7FrYT6_6rustdb5debug8profilerNtB2_8Profiler13get_user_time
FN:362,_RNvMNtNtCsioRnW7FrYT6_6rustdb5debug8profilerNtB2_8Profiler14get_page_count
FN:368,_RNvMNtNtCsioRnW7FrYT6_6rustdb5debug8profilerNtB2_8Profiler14get_swap_count
FN:180,_RNvMNtNtCsioRnW7FrYT6_6rustdb5debug8profilerNtB2_8Profiler14stop_profiling
FN:342,_RNvMNtNtCsioRnW7FrYT6_6rustdb5debug8profilerNtB2_8Profiler15get_memory_info
FN:322,_RNvMNtNtCsioRnW7FrYT6_6rustdb5debug8profilerNtB2_8Profiler15get_system_time
FN:132,_RNvMNtNtCsioRnW7FrYT6_6rustdb5debug8profilerNtB2_8Profiler15start_profiling
FN:306,_RNvMNtNtCsioRnW7FrYT6_6rustdb5debug8profilerNtB2_8Profiler16get_thread_count
FN:374,_RNvMNtNtCsioRnW7FrYT6_6rustdb5debug8profilerNtB2_8Profiler18get_gc_collections
FN:350,_RNvMNtNtCsioRnW7FrYT6_6rustdb5debug8profilerNtB2_8Profiler18get_process_memory
FN:222,_RNvMNtNtCsioRnW7FrYT6_6rustdb5debug8profilerNtB2_8Profiler19collect_cpu_metrics
FN:240,_RNvMNtNtCsioRnW7FrYT6_6rustdb5debug8profilerNtB2_8Profiler22collect_memory_metrics
FN:513,_RNvMNtNtCsioRnW7FrYT6_6rustdb5debug8profilerNtB2_8Profiler22generate_status_report
FN:356,_RNvMNtNtCsioRnW7FrYT6_6rustdb5debug8profilerNtB2_8Profiler26get_process_virtual_memory
FN:396,_RNvMNtNtCsioRnW7FrYT6_6rustdb5debug8profilerNtB2_8Profiler27generate_performance_report
FN:189,_RNvMNtNtCsioRnW7FrYT6_6rustdb5debug8profilerNtB2_8Profiler28collect_performance_snapshot
FN:114,_RNvMNtNtCsioRnW7FrYT6_6rustdb5debug8profilerNtB2_8Profiler3new
FN:540,_RNvMNtNtCsioRnW7FrYT6_6rustdb5debug8profilerNtB2_8Profiler8shutdown
FN:391,_RNvMNtNtCsioRnW7FrYT6_6rustdb5debug8profilerNtB2_8Profiler9get_stats
FN:485,_RINvMNtNtCsioRnW7FrYT6_6rustdb5debug8profilerNtB3_8Profiler13analyze_trendNCNvB2_27generate_performance_report0EB7_
FN:485,_RINvMNtNtCsioRnW7FrYT6_6rustdb5debug8profilerNtB3_8Profiler13analyze_trendNCNvB2_27generate_performance_reports_0EB7_
FN:153,_RNCNvMNtNtCsioRnW7FrYT6_6rustdb5debug8profilerNtB4_8Profiler15start_profiling0B8_
FN:446,_RNCNvMNtNtCsioRnW7FrYT6_6rustdb5debug8profilerNtB4_8Profiler27generate_performance_report0B8_
FN:447,_RNCNvMNtNtCsioRnW7FrYT6_6rustdb5debug8profilerNtB4_8Profiler27generate_performance_reports_0B8_
FN:513,_RNvMNtNtCs9nxHbwgHRMj_6rustdb5debug8profilerNtB2_8Profiler22generate_status_report
FN:546,_RNvXs_NtNtCs9nxHbwgHRMj_6rustdb5debug8profilerNtB4_8ProfilerNtNtNtCsixiwFwjEgS7_4core3ops4drop4Drop4drop
FN:556,_RNvNtNtNtCs9nxHbwgHRMj_6rustdb5debug8profiler5testss_13test_profiler
FN:618,_RNvNtNtNtCs9nxHbwgHRMj_6rustdb5debug8profiler5testss_19test_trend_analysis
FN:592,_RNvNtNtNtCs9nxHbwgHRMj_6rustdb5debug8profiler5testss_25test_performance_snapshot
FN:556,_RNCNvNtNtNtCs9nxHbwgHRMj_6rustdb5debug8profiler5testss_13test_profiler0B9_
FN:661,_RNCNvNtNtNtCs9nxHbwgHRMj_6rustdb5debug8profiler5testss_19test_trend_analysis0B9_
FN:485,_RINvMNtNtCs9nxHbwgHRMj_6rustdb5debug8profilerNtB3_8Profiler13analyze_trendNCNvB2_27generate_performance_report0EB7_
FN:485,_RINvMNtNtCs9nxHbwgHRMj_6rustdb5debug8profilerNtB3_8Profiler13analyze_trendNCNvB2_27generate_performance_reports_0EB7_
FN:485,_RINvMNtNtCs9nxHbwgHRMj_6rustdb5debug8profilerNtB3_8Profiler13analyze_trendNCNvNtB3_5testss_19test_trend_analysis0EB7_
FN:153,_RNCNvMNtNtCs9nxHbwgHRMj_6rustdb5debug8profilerNtB4_8Profiler15start_profiling0B8_
FN:446,_RNCNvMNtNtCs9nxHbwgHRMj_6rustdb5debug8profilerNtB4_8Profiler27generate_performance_report0B8_
FN:447,_RNCNvMNtNtCs9nxHbwgHRMj_6rustdb5debug8profilerNtB4_8Profiler27generate_performance_reports_0B8_
FN:265,_RNvMNtNtCs9nxHbwgHRMj_6rustdb5debug8profilerNtB2_8Profiler12update_stats
FN:295,_RNvMNtNtCs9nxHbwgHRMj_6rustdb5debug8profilerNtB2_8Profiler13get_cpu_usage
FN:332,_RNvMNtNtCs9nxHbwgHRMj_6rustdb5debug8profilerNtB2_8Profiler13get_idle_time
FN:384,_RNvMNtNtCs9nxHbwgHRMj_6rustdb5debug8profilerNtB2_8Profiler13get_snapshots
FN:312,_RNvMNtNtCs9nxHbwgHRMj_6rustdb5debug8profilerNtB2_8Profiler13get_user_time
FN:362,_RNvMNtNtCs9nxHbwgHRMj_6rustdb5debug8profilerNtB2_8Profiler14get_page_count
FN:368,_RNvMNtNtCs9nxHbwgHRMj_6rustdb5debug8profilerNtB2_8Profiler14get_swap_count
FN:180,_RNvMNtNtCs9nxHbwgHRMj_6rustdb5debug8profilerNtB2_8Profiler14stop_profiling
FN:342,_RNvMNtNtCs9nxHbwgHRMj_6rustdb5debug8profilerNtB2_8Profiler15get_memory_info
FN:322,_RNvMNtNtCs9nxHbwgHRMj_6rustdb5debug8profilerNtB2_8Profiler15get_system_time
FN:132,_RNvMNtNtCs9nxHbwgHRMj_6rustdb5debug8profilerNtB2_8Profiler15start_profiling
FN:306,_RNvMNtNtCs9nxHbwgHRMj_6rustdb5debug8profilerNtB2_8Profiler16get_thread_count
FN:374,_RNvMNtNtCs9nxHbwgHRMj_6rustdb5debug8profilerNtB2_8Profiler18get_gc_collections
FN:350,_RNvMNtNtCs9nxHbwgHRMj_6rustdb5debug8profilerNtB2_8Profiler18get_process_memory
FN:222,_RNvMNtNtCs9nxHbwgHRMj_6rustdb5debug8profilerNtB2_8Profiler19collect_cpu_metrics
FN:240,_RNvMNtNtCs9nxHbwgHRMj_6rustdb5debug8profilerNtB2_8Profiler22collect_memory_metrics
FN:356,_RNvMNtNtCs9nxHbwgHRMj_6rustdb5debug8profilerNtB2_8Profiler26get_process_virtual_memory
FN:396,_RNvMNtNtCs9nxHbwgHRMj_6rustdb5debug8profilerNtB2_8Profiler27generate_performance_report
FN:189,_RNvMNtNtCs9nxHbwgHRMj_6rustdb5debug8profilerNtB2_8Profiler28collect_performance_snapshot
FN:114,_RNvMNtNtCs9nxHbwgHRMj_6rustdb5debug8profilerNtB2_8Profiler3new
FN:540,_RNvMNtNtCs9nxHbwgHRMj_6rustdb5debug8profilerNtB2_8Profiler8shutdown
FN:391,_RNvMNtNtCs9nxHbwgHRMj_6rustdb5debug8profilerNtB2_8Profiler9get_stats
FNDA:0,_RNvXs_NtNtCsioRnW7FrYT6_6rustdb5debug8profilerNtB4_8ProfilerNtNtNtCsixiwFwjEgS7_4core3ops4drop4Drop4drop
FNDA:0,_RNvMNtNtCsioRnW7FrYT6_6rustdb5debug8profilerNtB2_8Profiler12update_stats
FNDA:0,_RNvMNtNtCsioRnW7FrYT6_6rustdb5debug8profilerNtB2_8Profiler13get_cpu_usage
FNDA:0,_RNvMNtNtCsioRnW7FrYT6_6rustdb5debug8profilerNtB2_8Profiler13get_idle_time
FNDA:0,_RNvMNtNtCsioRnW7FrYT6_6rustdb5debug8profilerNtB2_8Profiler13get_snapshots
FNDA:0,_RNvMNtNtCsioRnW7FrYT6_6rustdb5debug8profilerNtB2_8Profiler13get_user_time
FNDA:0,_RNvMNtNtCsioRnW7FrYT6_6rustdb5debug8profilerNtB2_8Profiler14get_page_count
FNDA:0,_RNvMNtNtCsioRnW7FrYT6_6rustdb5debug8profilerNtB2_8Profiler14get_swap_count
FNDA:0,_RNvMNtNtCsioRnW7FrYT6_6rustdb5debug8profilerNtB2_8Profiler14stop_profiling
FNDA:0,_RNvMNtNtCsioRnW7FrYT6_6rustdb5debug8profilerNtB2_8Profiler15get_memory_info
FNDA:0,_RNvMNtNtCsioRnW7FrYT6_6rustdb5debug8profilerNtB2_8Profiler15get_system_time
FNDA:0,_RNvMNtNtCsioRnW7FrYT6_6rustdb5debug8profilerNtB2_8Profiler15start_profiling
FNDA:0,_RNvMNtNtCsioRnW7FrYT6_6rustdb5debug8profilerNtB2_8Profiler16get_thread_count
FNDA:0,_RNvMNtNtCsioRnW7FrYT6_6rustdb5debug8profilerNtB2_8Profiler18get_gc_collections
FNDA:0,_RNvMNtNtCsioRnW7FrYT6_6rustdb5debug8profilerNtB2_8Profiler18get_process_memory
FNDA:0,_RNvMNtNtCsioRnW7FrYT6_6rustdb5debug8profilerNtB2_8Profiler19collect_cpu_metrics
FNDA:0,_RNvMNtNtCsioRnW7FrYT6_6rustdb5debug8profilerNtB2_8Profiler22collect_memory_metrics
FNDA:0,_RNvMNtNtCsioRnW7FrYT6_6rustdb5debug8profilerNtB2_8Profiler22generate_status_report
FNDA:0,_RNvMNtNtCsioRnW7FrYT6_6rustdb5debug8profilerNtB2_8Profiler26get_process_virtual_memory
FNDA:0,_RNvMNtNtCsioRnW7FrYT6_6rustdb5debug8profilerNtB2_8Profiler27generate_performance_report
FNDA:0,_RNvMNtNtCsioRnW7FrYT6_6rustdb5debug8profilerNtB2_8Profiler28collect_performance_snapshot
FNDA:0,_RNvMNtNtCsioRnW7FrYT6_6rustdb5debug8profilerNtB2_8Profiler3new
FNDA:0,_RNvMNtNtCsioRnW7FrYT6_6rustdb5debug8profilerNtB2_8Profiler8shutdown
FNDA:0,_RNvMNtNtCsioRnW7FrYT6_6rustdb5debug8profilerNtB2_8Profiler9get_stats
FNDA:0,_RINvMNtNtCsioRnW7FrYT6_6rustdb5debug8profilerNtB3_8Profiler13analyze_trendNCNvB2_27generate_performance_report0EB7_
FNDA:0,_RINvMNtNtCsioRnW7FrYT6_6rustdb5debug8profilerNtB3_8Profiler13analyze_trendNCNvB2_27generate_performance_reports_0EB7_
FNDA:0,_RNCNvMNtNtCsioRnW7FrYT6_6rustdb5debug8profilerNtB4_8Profiler15start_profiling0B8_
FNDA:0,_RNCNvMNtNtCsioRnW7FrYT6_6rustdb5debug8profilerNtB4_8Profiler27generate_performance_report0B8_
FNDA:0,_RNCNvMNtNtCsioRnW7FrYT6_6rustdb5debug8profilerNtB4_8Profiler27generate_performance_reports_0B8_
FNDA:0,_RNvMNtNtCs9nxHbwgHRMj_6rustdb5debug8profilerNtB2_8Profiler22generate_status_report
FNDA:1,_RNvXs_NtNtCs9nxHbwgHRMj_6rustdb5debug8profilerNtB4_8ProfilerNtNtNtCsixiwFwjEgS7_4core3ops4drop4Drop4drop
FNDA:1,_RNvNtNtNtCs9nxHbwgHRMj_6rustdb5debug8profiler5testss_13test_profiler
FNDA:1,_RNvNtNtNtCs9nxHbwgHRMj_6rustdb5debug8profiler5testss_19test_trend_analysis
FNDA:1,_RNvNtNtNtCs9nxHbwgHRMj_6rustdb5debug8profiler5testss_25test_performance_snapshot
FNDA:1,_RNCNvNtNtNtCs9nxHbwgHRMj_6rustdb5debug8profiler5testss_13test_profiler0B9_
FNDA:3,_RNCNvNtNtNtCs9nxHbwgHRMj_6rustdb5debug8profiler5testss_19test_trend_analysis0B9_
FNDA:0,_RINvMNtNtCs9nxHbwgHRMj_6rustdb5debug8profilerNtB3_8Profiler13analyze_trendNCNvB2_27generate_performance_report0EB7_
FNDA:0,_RINvMNtNtCs9nxHbwgHRMj_6rustdb5debug8profilerNtB3_8Profiler13analyze_trendNCNvB2_27generate_performance_reports_0EB7_
FNDA:1,_RINvMNtNtCs9nxHbwgHRMj_6rustdb5debug8profilerNtB3_8Profiler13analyze_trendNCNvNtB3_5testss_19test_trend_analysis0EB7_
FNDA:1,_RNCNvMNtNtCs9nxHbwgHRMj_6rustdb5debug8profilerNtB4_8Profiler15start_profiling0B8_
FNDA:0,_RNCNvMNtNtCs9nxHbwgHRMj_6rustdb5debug8profilerNtB4_8Profiler27generate_performance_report0B8_
FNDA:0,_RNCNvMNtNtCs9nxHbwgHRMj_6rustdb5debug8profilerNtB4_8Profiler27generate_performance_reports_0B8_
FNDA:5,_RNvMNtNtCs9nxHbwgHRMj_6rustdb5debug8profilerNtB2_8Profiler12update_stats
FNDA:6,_RNvMNtNtCs9nxHbwgHRMj_6rustdb5debug8profilerNtB2_8Profiler13get_cpu_usage
FNDA:6,_RNvMNtNtCs9nxHbwgHRMj_6rustdb5debug8profilerNtB2_8Profiler13get_idle_time
FNDA:2,_RNvMNtNtCs9nxHbwgHRMj_6rustdb5debug8profilerNtB2_8Profiler13get_snapshots
FNDA:6,_RNvMNtNtCs9nxHbwgHRMj_6rustdb5debug8profilerNtB2_8Profiler13get_user_time
FNDA:6,_RNvMNtNtCs9nxHbwgHRMj_6rustdb5debug8profilerNtB2_8Profiler14get_page_count
FNDA:6,_RNvMNtNtCs9nxHbwgHRMj_6rustdb5debug8profilerNtB2_8Profiler14get_swap_count
FNDA:2,_RNvMNtNtCs9nxHbwgHRMj_6rustdb5debug8profilerNtB2_8Profiler14stop_profiling
FNDA:6,_RNvMNtNtCs9nxHbwgHRMj_6rustdb5debug8profilerNtB2_8Profiler15get_memory_info
FNDA:6,_RNvMNtNtCs9nxHbwgHRMj_6rustdb5debug8profilerNtB2_8Profiler15get_system_time
FNDA:1,_RNvMNtNtCs9nxHbwgHRMj_6rustdb5debug8profilerNtB2_8Profiler15start_profiling
FNDA:6,_RNvMNtNtCs9nxHbwgHRMj_6rustdb5debug8profilerNtB2_8Profiler16get_thread_count
FNDA:6,_RNvMNtNtCs9nxHbwgHRMj_6rustdb5debug8profilerNtB2_8Profiler18get_gc_collections
FNDA:6,_RNvMNtNtCs9nxHbwgHRMj_6rustdb5debug8profilerNtB2_8Profiler18get_process_memory
FNDA:6,_RNvMNtNtCs9nxHbwgHRMj_6rustdb5debug8profilerNtB2_8Profiler19collect_cpu_metrics
FNDA:6,_RNvMNtNtCs9nxHbwgHRMj_6rustdb5debug8profilerNtB2_8Profiler22collect_memory_metrics
FNDA:6,_RNvMNtNtCs9nxHbwgHRMj_6rustdb5debug8profilerNtB2_8Profiler26get_process_virtual_memory
FNDA:1,_RNvMNtNtCs9nxHbwgHRMj_6rustdb5debug8profilerNtB2_8Profiler27generate_performance_report
FNDA:6,_RNvMNtNtCs9nxHbwgHRMj_6rustdb5debug8profilerNtB2_8Profiler28collect_performance_snapshot
FNDA:1,_RNvMNtNtCs9nxHbwgHRMj_6rustdb5debug8profilerNtB2_8Profiler3new
FNDA:1,_RNvMNtNtCs9nxHbwgHRMj_6rustdb5debug8profilerNtB2_8Profiler8shutdown
FNDA:2,_RNvMNtNtCs9nxHbwgHRMj_6rustdb5debug8profilerNtB2_8Profiler9get_stats
FNF:33
FNH:30
DA:114,1
DA:115,1
DA:116,1
DA:117,1
DA:118,1
DA:119,1
DA:120,1
DA:121,1
DA:124,1
DA:125,1
DA:126,1
DA:128,1
DA:129,1
DA:132,1
DA:133,1
DA:134,0
DA:135,1
DA:137,1
DA:139,1
DA:140,1
DA:141,1
DA:142,1
DA:145,1
DA:146,1
DA:147,1
DA:148,1
DA:149,1
DA:150,1
DA:151,1
DA:153,1
DA:154,1
DA:156,6
DA:157,6
DA:159,5
DA:163,5
DA:164,5
DA:167,5
DA:168,5
DA:169,0
DA:170,5
DA:174,5
DA:176,0
DA:177,1
DA:180,2
DA:181,2
DA:183,2
DA:184,1
DA:185,1
DA:186,2
DA:189,6
DA:190,6
DA:191,6
DA:192,6
DA:193,6
DA:195,6
DA:196,6
DA:197,6
DA:198,6
DA:199,6
DA:200,6
DA:203,6
DA:204,6
DA:205,6
DA:208,6
DA:209,6
DA:210,6
DA:213,6
DA:214,6
DA:215,6
DA:218,6
DA:219,6
DA:222,6
DA:223,6
DA:224,6
DA:225,6
DA:226,6
DA:229,6
DA:230,6
DA:231,6
DA:232,6
DA:233,6
DA:234,6
DA:235,6
DA:236,6
DA:237,6
DA:240,6
DA:241,6
DA:242,6
DA:243,6
DA:244,6
DA:247,6
DA:248,6
DA:249,6
DA:251,6
DA:252,6
DA:253,6
DA:254,6
DA:255,6
DA:256,6
DA:257,6
DA:258,6
DA:259,6
DA:260,6
DA:261,6
DA:262,6
DA:265,5
DA:266,5
DA:267,5
DA:268,5
DA:270,5
DA:271,5
DA:272,5
DA:273,5
DA:274,5
DA:275,5
DA:277,5
DA:278,5
DA:279,5
DA:280,5
DA:281,5
DA:282,5
DA:283,5
DA:284,5
DA:285,5
DA:286,5
DA:287,5
DA:288,5
DA:289,5
DA:291,5
DA:292,5
DA:295,6
DA:300,6
DA:301,6
DA:302,6
DA:303,6
DA:306,6
DA:308,6
DA:309,6
DA:312,6
DA:314,6
DA:315,6
DA:316,6
DA:317,6
DA:318,6
DA:319,6
DA:322,6
DA:324,6
DA:325,6
DA:326,6
DA:327,6
DA:328,6
DA:329,6
DA:332,6
DA:334,6
DA:335,6
DA:336,6
DA:337,6
DA:338,6
DA:339,6
DA:342,6
DA:344,6
DA:345,6
DA:346,6
DA:347,6
DA:350,6
DA:352,6
DA:353,6
DA:356,6
DA:358,6
DA:359,6
DA:362,6
DA:364,6
DA:365,6
DA:368,6
DA:370,6
DA:371,6
DA:374,6
DA:376,6
DA:377,6
DA:378,6
DA:379,6
DA:380,6
DA:381,6
DA:384,2
DA:385,2
DA:386,2
DA:387,2
DA:388,2
DA:391,2
DA:392,2
DA:393,2
DA:396,1
DA:397,1
DA:398,1
DA:400,1
DA:402,1
DA:405,1
DA:406,1
DA:407,1
DA:408,1
DA:409,1
DA:410,1
DA:411,1
DA:412,1
DA:415,1
DA:416,1
DA:417,1
DA:418,1
DA:419,1
DA:420,1
DA:423,1
DA:424,1
DA:425,1
DA:426,1
DA:427,1
DA:428,1
DA:429,1
DA:430,1
DA:431,1
DA:432,1
DA:433,1
DA:434,1
DA:435,1
DA:436,1
DA:437,1
DA:438,1
DA:439,1
DA:442,1
DA:443,0
DA:445,0
DA:446,0
DA:447,0
DA:448,0
DA:449,0
DA:451,0
DA:452,0
DA:453,0
DA:455,0
DA:456,0
DA:457,0
DA:459,0
DA:460,1
DA:463,1
DA:464,1
DA:465,0
DA:466,1
DA:467,1
DA:468,0
DA:469,1
DA:470,1
DA:471,0
DA:472,1
DA:474,1
DA:475,1
DA:476,1
DA:477,1
DA:478,1
DA:479,1
DA:481,1
DA:482,1
DA:485,1
DA:486,1
DA:487,1
DA:489,1
DA:491,1
DA:492,0
DA:493,1
DA:495,1
DA:496,1
DA:498,1
DA:499,1
DA:501,1
DA:503,1
DA:504,1
DA:505,0
DA:506,0
DA:508,0
DA:510,1
DA:513,0
DA:514,0
DA:515,0
DA:516,0
DA:518,0
DA:520,0
DA:521,0
DA:522,0
DA:523,0
DA:524,0
DA:525,0
DA:526,0
DA:527,0
DA:528,0
DA:529,0
DA:530,0
DA:531,0
DA:532,0
DA:533,0
DA:534,0
DA:536,0
DA:537,0
DA:540,1
DA:541,1
DA:542,1
DA:546,1
DA:547,1
DA:548,1
DA:556,1
DA:557,1
DA:558,1
DA:559,1
DA:560,1
DA:561,1
DA:563,1
DA:566,1
DA:569,1
DA:570,1
DA:572,1
DA:575,1
DA:576,1
DA:579,1
DA:580,1
DA:581,1
DA:582,1
DA:585,1
DA:587,1
DA:588,1
DA:589,1
DA:592,1
DA:593,1
DA:594,1
DA:595,1
DA:596,1
DA:597,1
DA:599,1
DA:601,1
DA:602,1
DA:603,1
DA:605,1
DA:606,1
DA:607,1
DA:608,0
DA:610,1
DA:611,1
DA:612,1
DA:613,1
DA:614,0
DA:615,1
DA:618,1
DA:619,1
DA:620,1
DA:621,1
DA:622,1
DA:623,1
DA:624,1
DA:625,1
DA:626,1
DA:627,1
DA:628,1
DA:629,1
DA:630,1
DA:631,1
DA:632,1
DA:633,1
DA:634,1
DA:635,1
DA:636,1
DA:637,1
DA:638,1
DA:639,1
DA:640,1
DA:641,1
DA:642,1
DA:643,1
DA:644,1
DA:645,1
DA:646,1
DA:647,1
DA:648,1
DA:649,1
DA:650,1
DA:651,1
DA:652,1
DA:653,1
DA:654,1
DA:655,1
DA:656,1
DA:657,1
DA:658,1
DA:661,3
DA:662,1
DA:663,1
DA:664,1
BRF:0
BRH:0
LF:398
LH:349
end_of_record
SF:C:\Users\Admin\RustProjects\RustBD\src\debug\query_tracer.rs
FN:531,_RNvXs1_NtNtCsioRnW7FrYT6_6rustdb5debug12query_tracerNtB5_11QueryTracerNtNtNtCsixiwFwjEgS7_4core3ops4drop4Drop4drop
FN:228,_RNvMs0_NtNtCsioRnW7FrYT6_6rustdb5debug12query_tracerNtB5_11QueryTracer11start_trace
FN:319,_RNvMs0_NtNtCsioRnW7FrYT6_6rustdb5debug12query_tracerNtB5_11QueryTracer12finish_trace
FN:387,_RNvMs0_NtNtCsioRnW7FrYT6_6rustdb5debug12query_tracerNtB5_11QueryTracer16get_active_trace
FN:393,_RNvMs0_NtNtCsioRnW7FrYT6_6rustdb5debug12query_tracerNtB5_11QueryTracer17get_active_traces
FN:399,_RNvMs0_NtNtCsioRnW7FrYT6_6rustdb5debug12query_tracerNtB5_11QueryTracer20get_completed_traces
FN:490,_RNvMs0_NtNtCsioRnW7FrYT6_6rustdb5debug12query_tracerNtB5_11QueryTracer22generate_status_report
FN:179,_RNvMs0_NtNtCsioRnW7FrYT6_6rustdb5debug12query_tracerNtB5_11QueryTracer24start_background_cleanup
FN:411,_RNvMs0_NtNtCsioRnW7FrYT6_6rustdb5debug12query_tracerNtB5_11QueryTracer27generate_performance_report
FN:163,_RNvMs0_NtNtCsioRnW7FrYT6_6rustdb5debug12query_tracerNtB5_11QueryTracer3new
FN:523,_RNvMs0_NtNtCsioRnW7FrYT6_6rustdb5debug12query_tracerNtB5_11QueryTracer8shutdown
FN:284,_RNvMs0_NtNtCsioRnW7FrYT6_6rustdb5debug12query_tracerNtB5_11QueryTracer9add_event
FN:406,_RNvMs0_NtNtCsioRnW7FrYT6_6rustdb5debug12query_tracerNtB5_11QueryTracer9get_stats
FN:39,_RNvXNtNtCsioRnW7FrYT6_6rustdb5debug12query_tracerNtB2_10QueryStageNtNtCsixiwFwjEgS7_4core3fmt7Display3fmt
FN:117,_RNvXs_NtNtCsioRnW7FrYT6_6rustdb5debug12query_tracerNtB4_11QueryStatusNtNtCsixiwFwjEgS7_4core3fmt7Display3fmt
FN:184,_RNCNvMs0_NtNtCsioRnW7FrYT6_6rustdb5debug12query_tracerNtB7_11QueryTracer24start_background_cleanup0Bb_
FN:465,_RNCNvMs0_NtNtCsioRnW7FrYT6_6rustdb5debug12query_tracerNtB7_11QueryTracer27generate_performance_report0Bb_
FN:467,_RNCNvMs0_NtNtCsioRnW7FrYT6_6rustdb5debug12query_tracerNtB7_11QueryTracer27generate_performance_reports_0Bb_
FN:304,_RNCNvMs0_NtNtCsioRnW7FrYT6_6rustdb5debug12query_tracerNtB7_11QueryTracer9add_event0Bb_
FN:387,_RNvMs0_NtNtCs9nxHbwgHRMj_6rustdb5debug12query_tracerNtB5_11QueryTracer16get_active_trace
FN:393,_RNvMs0_NtNtCs9nxHbwgHRMj_6rustdb5debug12query_tracerNtB5_11QueryTracer17get_active_traces
FN:490,_RNvMs0_NtNtCs9nxHbwgHRMj_6rustdb5debug12query_tracerNtB5_11QueryTracer22generate_status_report
FN:39,_RNvXNtNtCs9nxHbwgHRMj_6rustdb5debug12query_tracerNtB2_10QueryStageNtNtCsixiwFwjEgS7_4core3fmt7Display3fmt
FN:542,_RNvNtNtNtCs9nxHbwgHRMj_6rustdb5debug12query_tracer5testss_17test_query_tracer
FN:619,_RNvNtNtNtCs9nxHbwgHRMj_6rustdb5debug12query_tracer5testss_23test_query_tracer_error
FN:531,_RNvXs1_NtNtCs9nxHbwgHRMj_6rustdb5debug12query_tracerNtB5_11QueryTracerNtNtNtCsixiwFwjEgS7_4core3ops4drop4Drop4drop
FN:184,_RNCNvMs0_NtNtCs9nxHbwgHRMj_6rustdb5debug12query_tracerNtB7_11QueryTracer24start_background_cleanup0Bb_
FN:465,_RNCNvMs0_NtNtCs9nxHbwgHRMj_6rustdb5debug12query_tracerNtB7_11QueryTracer27generate_performance_report0Bb_
FN:467,_RNCNvMs0_NtNtCs9nxHbwgHRMj_6rustdb5debug12query_tracerNtB7_11QueryTracer27generate_performance_reports_0Bb_
FN:304,_RNCNvMs0_NtNtCs9nxHbwgHRMj_6rustdb5debug12query_tracerNtB7_11QueryTracer9add_event0Bb_
FN:542,_RNCNvNtNtNtCs9nxHbwgHRMj_6rustdb5debug12query_tracer5testss_17test_query_tracer0B9_
FN:619,_RNCNvNtNtNtCs9nxHbwgHRMj_6rustdb5debug12query_tracer5testss_23test_query_tracer_error0B9_
FN:228,_RNvMs0_NtNtCs9nxHbwgHRMj_6rustdb5debug12query_tracerNtB5_11QueryTracer11start_trace
FN:319,_RNvMs0_NtNtCs9nxHbwgHRMj_6rustdb5debug12query_tracerNtB5_11QueryTracer12finish_trace
FN:399,_RNvMs0_NtNtCs9nxHbwgHRMj_6rustdb5debug12query_tracerNtB5_11QueryTracer20get_completed_traces
FN:179,_RNvMs0_NtNtCs9nxHbwgHRMj_6rustdb5debug12query_tracerNtB5_11QueryTracer24start_background_cleanup
FN:411,_RNvMs0_NtNtCs9nxHbwgHRMj_6rustdb5debug12query_tracerNtB5_11QueryTracer27generate_performance_report
FN:163,_RNvMs0_NtNtCs9nxHbwgHRMj_6rustdb5debug12query_tracerNtB5_11QueryTracer3new
FN:523,_RNvMs0_NtNtCs9nxHbwgHRMj_6rustdb5debug12query_tracerNtB5_11QueryTracer8shutdown
FN:284,_RNvMs0_NtNtCs9nxHbwgHRMj_6rustdb5debug12query_tracerNtB5_11QueryTracer9add_event
FN:406,_RNvMs0_NtNtCs9nxHbwgHRMj_6rustdb5debug12query_tracerNtB5_11QueryTracer9get_stats
FN:117,_RNvXs_NtNtCs9nxHbwgHRMj_6rustdb5debug12query_tracerNtB4_11QueryStatusNtNtCsixiwFwjEgS7_4core3fmt7Display3fmt
FNDA:0,_RNvXs1_NtNtCsioRnW7FrYT6_6rustdb5debug12query_tracerNtB5_11QueryTracerNtNtNtCsixiwFwjEgS7_4core3ops4drop4Drop4drop
FNDA:0,_RNvMs0_NtNtCsioRnW7FrYT6_6rustdb5debug12query_tracerNtB5_11QueryTracer11start_trace
FNDA:0,_RNvMs0_NtNtCsioRnW7FrYT6_6rustdb5debug12query_tracerNtB5_11QueryTracer12finish_trace
FNDA:0,_RNvMs0_NtNtCsioRnW7FrYT6_6rustdb5debug12query_tracerNtB5_11QueryTracer16get_active_trace
FNDA:0,_RNvMs0_NtNtCsioRnW7FrYT6_6rustdb5debug12query_tracerNtB5_11QueryTracer17get_active_traces
FNDA:0,_RNvMs0_NtNtCsioRnW7FrYT6_6rustdb5debug12query_tracerNtB5_11QueryTracer20get_completed_traces
FNDA:0,_RNvMs0_NtNtCsioRnW7FrYT6_6rustdb5debug12query_tracerNtB5_11QueryTracer22generate_status_report
FNDA:0,_RNvMs0_NtNtCsioRnW7FrYT6_6rustdb5debug12query_tracerNtB5_11QueryTracer24start_background_cleanup
FNDA:0,_RNvMs0_NtNtCsioRnW7FrYT6_6rustdb5debug12query_tracerNtB5_11QueryTracer27generate_performance_report
FNDA:0,_RNvMs0_NtNtCsioRnW7FrYT6_6rustdb5debug12query_tracerNtB5_11QueryTracer3new
FNDA:0,_RNvMs0_NtNtCsioRnW7FrYT6_6rustdb5debug12query_tracerNtB5_11QueryTracer8shutdown
FNDA:0,_RNvMs0_NtNtCsioRnW7FrYT6_6rustdb5debug12query_tracerNtB5_11QueryTracer9add_event
FNDA:0,_RNvMs0_NtNtCsioRnW7FrYT6_6rustdb5debug12query_tracerNtB5_11QueryTracer9get_stats
FNDA:0,_RNvXNtNtCsioRnW7FrYT6_6rustdb5debug12query_tracerNtB2_10QueryStageNtNtCsixiwFwjEgS7_4core3fmt7Display3fmt
FNDA:0,_RNvXs_NtNtCsioRnW7FrYT6_6rustdb5debug12query_tracerNtB4_11QueryStatusNtNtCsixiwFwjEgS7_4core3fmt7Display3fmt
FNDA:0,_RNCNvMs0_NtNtCsioRnW7FrYT6_6rustdb5debug12query_tracerNtB7_11QueryTracer24start_background_cleanup0Bb_
FNDA:0,_RNCNvMs0_NtNtCsioRnW7FrYT6_6rustdb5debug12query_tracerNtB7_11QueryTracer27generate_performance_report0Bb_
FNDA:0,_RNCNvMs0_NtNtCsioRnW7FrYT6_6rustdb5debug12query_tracerNtB7_11QueryTracer27generate_performance_reports_0Bb_
FNDA:0,_RNCNvMs0_NtNtCsioRnW7FrYT6_6rustdb5debug12query_tracerNtB7_11QueryTracer9add_event0Bb_
FNDA:0,_RNvMs0_NtNtCs9nxHbwgHRMj_6rustdb5debug12query_tracerNtB5_11QueryTracer16get_active_trace
FNDA:0,_RNvMs0_NtNtCs9nxHbwgHRMj_6rustdb5debug12query_tracerNtB5_11QueryTracer17get_active_traces
FNDA:0,_RNvMs0_NtNtCs9nxHbwgHRMj_6rustdb5debug12query_tracerNtB5_11QueryTracer22generate_status_report
FNDA:0,_RNvXNtNtCs9nxHbwgHRMj_6rustdb5debug12query_tracerNtB2_10QueryStageNtNtCsixiwFwjEgS7_4core3fmt7Display3fmt
FNDA:1,_RNvNtNtNtCs9nxHbwgHRMj_6rustdb5debug12query_tracer5testss_17test_query_tracer
FNDA:1,_RNvNtNtNtCs9nxHbwgHRMj_6rustdb5debug12query_tracer5testss_23test_query_tracer_error
FNDA:2,_RNvXs1_NtNtCs9nxHbwgHRMj_6rustdb5debug12query_tracerNtB5_11QueryTracerNtNtNtCsixiwFwjEgS7_4core3ops4drop4Drop4drop
FNDA:0,_RNCNvMs0_NtNtCs9nxHbwgHRMj_6rustdb5debug12query_tracerNtB7_11QueryTracer24start_background_cleanup0Bb_
FNDA:1,_RNCNvMs0_NtNtCs9nxHbwgHRMj_6rustdb5debug12query_tracerNtB7_11QueryTracer27generate_performance_report0Bb_
FNDA:0,_RNCNvMs0_NtNtCs9nxHbwgHRMj_6rustdb5debug12query_tracerNtB7_11QueryTracer27generate_performance_reports_0Bb_
FNDA:4,_RNCNvMs0_NtNtCs9nxHbwgHRMj_6rustdb5debug12query_tracerNtB7_11QueryTracer9add_event0Bb_
FNDA:1,_RNCNvNtNtNtCs9nxHbwgHRMj_6rustdb5debug12query_tracer5testss_17test_query_tracer0B9_
FNDA:1,_RNCNvNtNtNtCs9nxHbwgHRMj_6rustdb5debug12query_tracer5testss_23test_query_tracer_error0B9_
FNDA:2,_RNvMs0_NtNtCs9nxHbwgHRMj_6rustdb5debug12query_tracerNtB5_11QueryTracer11start_trace
FNDA:2,_RNvMs0_NtNtCs9nxHbwgHRMj_6rustdb5debug12query_tracerNtB5_11QueryTracer12finish_trace
FNDA:3,_RNvMs0_NtNtCs9nxHbwgHRMj_6rustdb5debug12query_tracerNtB5_11QueryTracer20get_completed_traces
FNDA:2,_RNvMs0_NtNtCs9nxHbwgHRMj_6rustdb5debug12query_tracerNtB5_11QueryTracer24start_background_cleanup
FNDA:1,_RNvMs0_NtNtCs9nxHbwgHRMj_6rustdb5debug12query_tracerNtB5_11QueryTracer27generate_performance_report
FNDA:2,_RNvMs0_NtNtCs9nxHbwgHRMj_6rustdb5debug12query_tracerNtB5_11QueryTracer3new
FNDA:2,_RNvMs0_NtNtCs9nxHbwgHRMj_6rustdb5debug12query_tracerNtB5_11QueryTracer8shutdown
FNDA:4,_RNvMs0_NtNtCs9nxHbwgHRMj_6rustdb5debug12query_tracerNtB5_11QueryTracer9add_event
FNDA:3,_RNvMs0_NtNtCs9nxHbwgHRMj_6rustdb5debug12query_tracerNtB5_11QueryTracer9get_stats
FNDA:2,_RNvXs_NtNtCs9nxHbwgHRMj_6rustdb5debug12query_tracerNtB4_11QueryStatusNtNtCsixiwFwjEgS7_4core3fmt7Display3fmt
FNF:23
FNH:17
DA:39,0
DA:40,0
DA:41,0
DA:42,0
DA:43,0
DA:44,0
DA:45,0
DA:46,0
DA:47,0
DA:48,0
DA:49,0
DA:50,0
DA:52,0
DA:117,2
DA:118,2
DA:119,0
DA:120,1
DA:121,1
DA:122,0
DA:124,2
DA:163,2
DA:164,2
DA:165,2
DA:166,2
DA:167,2
DA:168,2
DA:169,2
DA:170,2
DA:173,2
DA:175,2
DA:176,2
DA:179,2
DA:180,2
DA:181,2
DA:182,2
DA:184,2
DA:185,0
DA:188,0
DA:192,0
DA:193,0
DA:195,0
DA:196,0
DA:197,0
DA:198,0
DA:200,0
DA:202,0
DA:203,0
DA:205,0
DA:206,0
DA:207,0
DA:208,0
DA:211,0
DA:212,0
DA:213,0
DA:214,0
DA:218,0
DA:219,0
DA:220,0
DA:221,0
DA:225,2
DA:228,2
DA:229,2
DA:230,2
DA:231,2
DA:232,2
DA:233,2
DA:235,2
DA:236,2
DA:237,2
DA:238,2
DA:239,2
DA:240,2
DA:241,2
DA:242,2
DA:243,2
DA:244,2
DA:245,2
DA:246,2
DA:247,2
DA:248,2
DA:251,2
DA:252,2
DA:253,2
DA:254,2
DA:255,2
DA:256,2
DA:257,2
DA:258,2
DA:259,2
DA:260,2
DA:261,2
DA:262,2
DA:264,2
DA:265,2
DA:268,2
DA:269,2
DA:270,2
DA:271,2
DA:274,2
DA:275,2
DA:276,2
DA:277,2
DA:278,2
DA:280,2
DA:281,2
DA:284,4
DA:285,4
DA:286,4
DA:287,4
DA:288,4
DA:289,4
DA:290,4
DA:291,4
DA:292,4
DA:293,4
DA:294,4
DA:295,4
DA:296,4
DA:297,4
DA:299,4
DA:300,4
DA:301,4
DA:302,4
DA:303,4
DA:304,4
DA:305,4
DA:306,4
DA:310,4
DA:311,4
DA:312,4
DA:313,4
DA:314,4
DA:316,4
DA:319,2
DA:320,2
DA:321,2
DA:322,2
DA:323,2
DA:324,2
DA:325,2
DA:326,2
DA:327,2
DA:328,2
DA:329,2
DA:330,2
DA:332,2
DA:333,2
DA:334,2
DA:337,2
DA:338,2
DA:339,2
DA:340,2
DA:341,2
DA:342,2
DA:343,2
DA:346,2
DA:347,2
DA:348,2
DA:349,1
DA:350,1
DA:351,0
DA:352,0
DA:354,2
DA:355,2
DA:356,2
DA:357,2
DA:358,2
DA:359,2
DA:360,2
DA:361,2
DA:362,2
DA:365,2
DA:368,2
DA:369,2
DA:370,2
DA:371,2
DA:375,2
DA:376,2
DA:377,1
DA:378,1
DA:379,0
DA:380,0
DA:383,0
DA:384,2
DA:387,0
DA:388,0
DA:389,0
DA:390,0
DA:393,0
DA:394,0
DA:395,0
DA:396,0
DA:399,3
DA:400,3
DA:401,3
DA:402,3
DA:403,3
DA:406,3
DA:407,3
DA:408,3
DA:411,1
DA:412,1
DA:413,1
DA:415,1
DA:417,1
DA:420,1
DA:421,1
DA:422,1
DA:423,1
DA:424,1
DA:425,1
DA:426,1
DA:427,1
DA:428,1
DA:431,1
DA:432,1
DA:433,1
DA:434,1
DA:435,1
DA:437,2
DA:438,1
DA:439,1
DA:440,1
DA:441,1
DA:442,1
DA:443,1
DA:444,1
DA:445,1
DA:448,1
DA:449,1
DA:451,1
DA:452,1
DA:453,1
DA:454,1
DA:455,1
DA:457,1
DA:458,1
DA:459,1
DA:460,1
DA:463,1
DA:464,1
DA:465,1
DA:466,1
DA:467,1
DA:469,1
DA:470,1
DA:471,1
DA:472,1
DA:473,1
DA:474,1
DA:475,1
DA:476,1
DA:477,0
DA:479,1
DA:482,0
DA:484,0
DA:486,1
DA:487,1
DA:490,0
DA:491,0
DA:492,0
DA:493,0
DA:495,0
DA:497,0
DA:498,0
DA:499,0
DA:500,0
DA:501,0
DA:503,0
DA:504,0
DA:506,0
DA:509,0
DA:510,0
DA:512,0
DA:513,0
DA:515,0
DA:519,0
DA:520,0
DA:523,2
DA:524,2
DA:525,2
DA:526,2
DA:527,2
DA:531,2
DA:532,2
DA:533,2
DA:542,1
DA:543,1
DA:544,1
DA:545,1
DA:546,1
DA:548,1
DA:551,1
DA:554,1
DA:555,1
DA:556,1
DA:557,1
DA:558,1
DA:559,1
DA:560,1
DA:561,1
DA:564,1
DA:565,1
DA:566,1
DA:567,1
DA:568,1
DA:569,1
DA:570,1
DA:571,1
DA:574,1
DA:575,1
DA:576,1
DA:577,1
DA:578,1
DA:579,1
DA:580,1
DA:581,1
DA:585,1
DA:586,1
DA:587,1
DA:588,1
DA:589,1
DA:590,1
DA:594,1
DA:595,1
DA:596,1
DA:597,1
DA:600,1
DA:601,1
DA:603,1
DA:604,1
DA:605,1
DA:606,1
DA:607,1
DA:608,1
DA:609,1
DA:612,1
DA:613,1
DA:614,1
DA:615,1
DA:616,1
DA:619,1
DA:620,1
DA:621,1
DA:622,1
DA:623,1
DA:625,1
DA:627,1
DA:629,1
DA:630,1
DA:631,1
DA:632,1
DA:633,1
DA:634,1
DA:635,1
DA:636,1
DA:639,1
DA:640,1
DA:641,1
DA:642,1
DA:643,1
DA:644,1
DA:647,1
DA:648,1
DA:649,1
DA:650,1
DA:652,1
DA:653,1
DA:655,1
DA:656,1
DA:657,1
DA:658,1
BRF:0
BRH:0
LF:380
LH:304
end_of_record
SF:C:\Users\Admin\RustProjects\RustBD\src\executor\executor.rs
FN:196,_RNCNvMs_NtNtCsioRnW7FrYT6_6rustdb8executor8executorNtB6_13QueryExecutor10build_sort0Ba_
FN:184,_RNCNvMs_NtNtCsioRnW7FrYT6_6rustdb8executor8executorNtB6_13QueryExecutor14build_group_by0Ba_
FN:109,_RNCNvMs_NtNtCsioRnW7FrYT6_6rustdb8executor8executorNtB6_13QueryExecutor16build_index_scan0Ba_
FN:159,_RNCNvMs_NtNtCsioRnW7FrYT6_6rustdb8executor8executorNtB6_13QueryExecutor20parse_join_condition0Ba_
FN:162,_RNCNvMs_NtNtCsioRnW7FrYT6_6rustdb8executor8executorNtB6_13QueryExecutor20parse_join_conditions0_0Ba_
FN:161,_RNCNvMs_NtNtCsioRnW7FrYT6_6rustdb8executor8executorNtB6_13QueryExecutor20parse_join_conditions_0Ba_
FN:196,_RNCNvMs_NtNtCs9nxHbwgHRMj_6rustdb8executor8executorNtB6_13QueryExecutor10build_sort0Ba_
FN:184,_RNCNvMs_NtNtCs9nxHbwgHRMj_6rustdb8executor8executorNtB6_13QueryExecutor14build_group_by0Ba_
FN:109,_RNCNvMs_NtNtCs9nxHbwgHRMj_6rustdb8executor8executorNtB6_13QueryExecutor16build_index_scan0Ba_
FN:159,_RNCNvMs_NtNtCs9nxHbwgHRMj_6rustdb8executor8executorNtB6_13QueryExecutor20parse_join_condition0Ba_
FN:162,_RNCNvMs_NtNtCs9nxHbwgHRMj_6rustdb8executor8executorNtB6_13QueryExecutor20parse_join_conditions0_0Ba_
FN:161,_RNCNvMs_NtNtCs9nxHbwgHRMj_6rustdb8executor8executorNtB6_13QueryExecutor20parse_join_conditions_0Ba_
FN:142,_RNvMs_NtNtCs9nxHbwgHRMj_6rustdb8executor8executorNtB4_13QueryExecutor10build_join
FN:190,_RNvMs_NtNtCs9nxHbwgHRMj_6rustdb8executor8executorNtB4_13QueryExecutor10build_sort
FN:203,_RNvMs_NtNtCs9nxHbwgHRMj_6rustdb8executor8executorNtB4_13QueryExecutor11build_limit
FN:55,_RNvMs_NtNtCs9nxHbwgHRMj_6rustdb8executor8executorNtB4_13QueryExecutor11with_config
FN:131,_RNvMs_NtNtCs9nxHbwgHRMj_6rustdb8executor8executorNtB4_13QueryExecutor12build_filter
FN:209,_RNvMs_NtNtCs9nxHbwgHRMj_6rustdb8executor8executorNtB4_13QueryExecutor12build_offset
FN:177,_RNvMs_NtNtCs9nxHbwgHRMj_6rustdb8executor8executorNtB4_13QueryExecutor14build_group_by
FN:76,_RNvMs_NtNtCs9nxHbwgHRMj_6rustdb8executor8executorNtB4_13QueryExecutor14build_operator
FN:104,_RNvMs_NtNtCs9nxHbwgHRMj_6rustdb8executor8executorNtB4_13QueryExecutor16build_index_scan
FN:137,_RNvMs_NtNtCs9nxHbwgHRMj_6rustdb8executor8executorNtB4_13QueryExecutor16build_projection
FN:94,_RNvMs_NtNtCs9nxHbwgHRMj_6rustdb8executor8executorNtB4_13QueryExecutor16build_table_scan
FN:157,_RNvMs_NtNtCs9nxHbwgHRMj_6rustdb8executor8executorNtB4_13QueryExecutor20parse_join_condition
FN:47,_RNvMs_NtNtCs9nxHbwgHRMj_6rustdb8executor8executorNtB4_13QueryExecutor3new
FN:66,_RNvMs_NtNtCs9nxHbwgHRMj_6rustdb8executor8executorNtB4_13QueryExecutor7execute
FN:29,_RNvXNtNtCs9nxHbwgHRMj_6rustdb8executor8executorNtB2_19QueryExecutorConfigNtNtCsixiwFwjEgS7_4core7default7Default7default
FNDA:0,_RNCNvMs_NtNtCsioRnW7FrYT6_6rustdb8executor8executorNtB6_13QueryExecutor10build_sort0Ba_
FNDA:0,_RNCNvMs_NtNtCsioRnW7FrYT6_6rustdb8executor8executorNtB6_13QueryExecutor14build_group_by0Ba_
FNDA:0,_RNCNvMs_NtNtCsioRnW7FrYT6_6rustdb8executor8executorNtB6_13QueryExecutor16build_index_scan0Ba_
FNDA:0,_RNCNvMs_NtNtCsioRnW7FrYT6_6rustdb8executor8executorNtB6_13QueryExecutor20parse_join_condition0Ba_
FNDA:0,_RNCNvMs_NtNtCsioRnW7FrYT6_6rustdb8executor8executorNtB6_13QueryExecutor20parse_join_conditions0_0Ba_
FNDA:0,_RNCNvMs_NtNtCsioRnW7FrYT6_6rustdb8executor8executorNtB6_13QueryExecutor20parse_join_conditions_0Ba_
FNDA:0,_RNCNvMs_NtNtCs9nxHbwgHRMj_6rustdb8executor8executorNtB6_13QueryExecutor10build_sort0Ba_
FNDA:0,_RNCNvMs_NtNtCs9nxHbwgHRMj_6rustdb8executor8executorNtB6_13QueryExecutor14build_group_by0Ba_
FNDA:0,_RNCNvMs_NtNtCs9nxHbwgHRMj_6rustdb8executor8executorNtB6_13QueryExecutor16build_index_scan0Ba_
FNDA:0,_RNCNvMs_NtNtCs9nxHbwgHRMj_6rustdb8executor8executorNtB6_13QueryExecutor20parse_join_condition0Ba_
FNDA:0,_RNCNvMs_NtNtCs9nxHbwgHRMj_6rustdb8executor8executorNtB6_13QueryExecutor20parse_join_conditions0_0Ba_
FNDA:0,_RNCNvMs_NtNtCs9nxHbwgHRMj_6rustdb8executor8executorNtB6_13QueryExecutor20parse_join_conditions_0Ba_
FNDA:0,_RNvMs_NtNtCs9nxHbwgHRMj_6rustdb8executor8executorNtB4_13QueryExecutor10build_join
FNDA:0,_RNvMs_NtNtCs9nxHbwgHRMj_6rustdb8executor8executorNtB4_13QueryExecutor10build_sort
FNDA:0,_RNvMs_NtNtCs9nxHbwgHRMj_6rustdb8executor8executorNtB4_13QueryExecutor11build_limit
FNDA:0,_RNvMs_NtNtCs9nxHbwgHRMj_6rustdb8executor8executorNtB4_13QueryExecutor11with_config
FNDA:0,_RNvMs_NtNtCs9nxHbwgHRMj_6rustdb8executor8executorNtB4_13QueryExecutor12build_filter
FNDA:0,_RNvMs_NtNtCs9nxHbwgHRMj_6rustdb8executor8executorNtB4_13QueryExecutor12build_offset
FNDA:0,_RNvMs_NtNtCs9nxHbwgHRMj_6rustdb8executor8executorNtB4_13QueryExecutor14build_group_by
FNDA:0,_RNvMs_NtNtCs9nxHbwgHRMj_6rustdb8executor8executorNtB4_13QueryExecutor14build_operator
FNDA:0,_RNvMs_NtNtCs9nxHbwgHRMj_6rustdb8executor8executorNtB4_13QueryExecutor16build_index_scan
FNDA:0,_RNvMs_NtNtCs9nxHbwgHRMj_6rustdb8executor8executorNtB4_13QueryExecutor16build_projection
FNDA:0,_RNvMs_NtNtCs9nxHbwgHRMj_6rustdb8executor8executorNtB4_13QueryExecutor16build_table_scan
FNDA:0,_RNvMs_NtNtCs9nxHbwgHRMj_6rustdb8executor8executorNtB4_13QueryExecutor20parse_join_condition
FNDA:0,_RNvMs_NtNtCs9nxHbwgHRMj_6rustdb8executor8executorNtB4_13QueryExecutor3new
FNDA:0,_RNvMs_NtNtCs9nxHbwgHRMj_6rustdb8executor8executorNtB4_13QueryExecutor7execute
FNDA:0,_RNvXNtNtCs9nxHbwgHRMj_6rustdb8executor8executorNtB2_19QueryExecutorConfigNtNtCsixiwFwjEgS7_4core7default7Default7default
FNF:21
FNH:0
DA:29,0
DA:30,0
DA:31,0
DA:32,0
DA:33,0
DA:34,0
DA:47,0
DA:48,0
DA:49,0
DA:50,0
DA:51,0
DA:52,0
DA:55,0
DA:56,0
DA:57,0
DA:58,0
DA:59,0
DA:60,0
DA:61,0
DA:62,0
DA:63,0
DA:66,0
DA:67,0
DA:68,0
DA:69,0
DA:70,0
DA:71,0
DA:72,0
DA:73,0
DA:76,0
DA:77,0
DA:78,0
DA:79,0
DA:80,0
DA:81,0
DA:82,0
DA:83,0
DA:84,0
DA:85,0
DA:86,0
DA:87,0
DA:88,0
DA:89,0
DA:90,0
DA:92,0
DA:94,0
DA:95,0
DA:96,0
DA:98,0
DA:100,0
DA:101,0
DA:102,0
DA:104,0
DA:105,0
DA:106,0
DA:107,0
DA:108,0
DA:109,0
DA:110,0
DA:111,0
DA:112,0
DA:113,0
DA:114,0
DA:115,0
DA:116,0
DA:118,0
DA:119,0
DA:120,0
DA:121,0
DA:122,0
DA:123,0
DA:124,0
DA:125,0
DA:126,0
DA:127,0
DA:128,0
DA:129,0
DA:131,0
DA:132,0
DA:133,0
DA:134,0
DA:135,0
DA:137,0
DA:139,0
DA:140,0
DA:142,0
DA:143,0
DA:144,0
DA:145,0
DA:146,0
DA:147,0
DA:148,0
DA:149,0
DA:150,0
DA:151,0
DA:153,0
DA:154,0
DA:155,0
DA:157,0
DA:158,0
DA:159,0
DA:160,0
DA:161,0
DA:162,0
DA:163,0
DA:164,0
DA:165,0
DA:166,0
DA:167,0
DA:168,0
DA:169,0
DA:170,0
DA:171,0
DA:172,0
DA:173,0
DA:174,0
DA:175,0
DA:177,0
DA:178,0
DA:179,0
DA:180,0
DA:181,0
DA:182,0
DA:183,0
DA:184,0
DA:185,0
DA:186,0
DA:187,0
DA:188,0
DA:190,0
DA:191,0
DA:192,0
DA:193,0
DA:194,0
DA:195,0
DA:196,0
DA:197,0
DA:198,0
DA:199,0
DA:200,0
DA:201,0
DA:203,0
DA:204,0
DA:205,0
DA:206,0
DA:207,0
DA:209,0
DA:210,0
DA:211,0
DA:212,0
DA:213,0
BRF:0
BRH:0
LF:156
LH:0
end_of_record
SF:C:\Users\Admin\RustProjects\RustBD\src\executor\operators.rs
FN:371,_RNCNvMs1_NtNtCsioRnW7FrYT6_6rustdb8executor9operatorsNtB7_17IndexScanOperator11load_record0Bb_
FN:311,_RNCNvMs1_NtNtCsioRnW7FrYT6_6rustdb8executor9operatorsNtB7_17IndexScanOperator20perform_index_search0Bb_
FN:1634,_RNCNvMsk_NtNtCsioRnW7FrYT6_6rustdb8executor9operatorsNtB7_12SortOperator13load_and_sort0Bb_
FN:371,_RNCNvMs1_NtNtCs9nxHbwgHRMj_6rustdb8executor9operatorsNtB7_17IndexScanOperator11load_record0Bb_
FN:311,_RNCNvMs1_NtNtCs9nxHbwgHRMj_6rustdb8executor9operatorsNtB7_17IndexScanOperator20perform_index_search0Bb_
FN:1634,_RNCNvMsk_NtNtCs9nxHbwgHRMj_6rustdb8executor9operatorsNtB7_12SortOperator13load_and_sort0Bb_
FN:134,_RNvMNtNtCs9nxHbwgHRMj_6rustdb8executor9operatorsNtB2_17TableScanOperator12apply_filter
FN:117,_RNvMNtNtCs9nxHbwgHRMj_6rustdb8executor9operatorsNtB2_17TableScanOperator14find_next_page
FN:144,_RNvMNtNtCs9nxHbwgHRMj_6rustdb8executor9operatorsNtB2_17TableScanOperator18evaluate_condition
FN:72,_RNvMNtNtCs9nxHbwgHRMj_6rustdb8executor9operatorsNtB2_17TableScanOperator3new
FN:92,_RNvMNtNtCs9nxHbwgHRMj_6rustdb8executor9operatorsNtB2_17TableScanOperator9load_page
FN:213,_RNvMs0_NtNtCs9nxHbwgHRMj_6rustdb8executor9operatorsNtB5_17TableScanOperator15parse_page_rows
FN:367,_RNvMs1_NtNtCs9nxHbwgHRMj_6rustdb8executor9operatorsNtB5_17IndexScanOperator11load_record
FN:383,_RNvMs1_NtNtCs9nxHbwgHRMj_6rustdb8executor9operatorsNtB5_17IndexScanOperator12bytes_to_row
FN:307,_RNvMs1_NtNtCs9nxHbwgHRMj_6rustdb8executor9operatorsNtB5_17IndexScanOperator20perform_index_search
FN:399,_RNvMs1_NtNtCs9nxHbwgHRMj_6rustdb8executor9operatorsNtB5_17IndexScanOperator23apply_search_conditions
FN:349,_RNvMs1_NtNtCs9nxHbwgHRMj_6rustdb8executor9operatorsNtB5_17IndexScanOperator28range_bounds_from_conditions
FN:280,_RNvMs1_NtNtCs9nxHbwgHRMj_6rustdb8executor9operatorsNtB5_17IndexScanOperator3new
FN:470,_RNvMs3_NtNtCs9nxHbwgHRMj_6rustdb8executor9operatorsNtB5_17RangeScanOperator11is_in_range
FN:456,_RNvMs3_NtNtCs9nxHbwgHRMj_6rustdb8executor9operatorsNtB5_17RangeScanOperator3new
FN:544,_RNvMs5_NtNtCs9nxHbwgHRMj_6rustdb8executor9operatorsNtB5_23ConditionalScanOperator18evaluate_condition
FN:535,_RNvMs5_NtNtCs9nxHbwgHRMj_6rustdb8executor9operatorsNtB5_23ConditionalScanOperator3new
FN:725,_RNvMs7_NtNtCs9nxHbwgHRMj_6rustdb8executor9operatorsNtB5_22NestedLoopJoinOperator12combine_rows
FN:717,_RNvMs7_NtNtCs9nxHbwgHRMj_6rustdb8executor9operatorsNtB5_22NestedLoopJoinOperator14compare_values
FN:673,_RNvMs7_NtNtCs9nxHbwgHRMj_6rustdb8executor9operatorsNtB5_22NestedLoopJoinOperator16load_right_block
FN:691,_RNvMs7_NtNtCs9nxHbwgHRMj_6rustdb8executor9operatorsNtB5_22NestedLoopJoinOperator20check_join_condition
FN:645,_RNvMs7_NtNtCs9nxHbwgHRMj_6rustdb8executor9operatorsNtB5_22NestedLoopJoinOperator3new
FN:932,_RNvMs9_NtNtCs9nxHbwgHRMj_6rustdb8executor9operatorsNtB5_16HashJoinOperator12combine_rows
FN:889,_RNvMs9_NtNtCs9nxHbwgHRMj_6rustdb8executor9operatorsNtB5_16HashJoinOperator12get_join_key
FN:924,_RNvMs9_NtNtCs9nxHbwgHRMj_6rustdb8executor9operatorsNtB5_16HashJoinOperator14compare_values
FN:872,_RNvMs9_NtNtCs9nxHbwgHRMj_6rustdb8executor9operatorsNtB5_16HashJoinOperator16build_hash_table
FN:898,_RNvMs9_NtNtCs9nxHbwgHRMj_6rustdb8executor9operatorsNtB5_16HashJoinOperator20check_join_condition
FN:838,_RNvMs9_NtNtCs9nxHbwgHRMj_6rustdb8executor9operatorsNtB5_16HashJoinOperator3new
FN:1146,_RNvMsb_NtNtCs9nxHbwgHRMj_6rustdb8executor9operatorsNtB5_17MergeJoinOperator12combine_rows
FN:1080,_RNvMsb_NtNtCs9nxHbwgHRMj_6rustdb8executor9operatorsNtB5_17MergeJoinOperator12compare_keys
FN:1071,_RNvMsb_NtNtCs9nxHbwgHRMj_6rustdb8executor9operatorsNtB5_17MergeJoinOperator12get_join_key
FN:1085,_RNvMsb_NtNtCs9nxHbwgHRMj_6rustdb8executor9operatorsNtB5_17MergeJoinOperator18load_matching_keys
FN:1042,_RNvMsb_NtNtCs9nxHbwgHRMj_6rustdb8executor9operatorsNtB5_17MergeJoinOperator3new
FN:1238,_RNvMsd_NtNtCs9nxHbwgHRMj_6rustdb8executor9operatorsNtB5_13LimitOperator3new
FN:1287,_RNvMsf_NtNtCs9nxHbwgHRMj_6rustdb8executor9operatorsNtB5_14OffsetOperator3new
FN:1392,_RNvMsh_NtNtCs9nxHbwgHRMj_6rustdb8executor9operatorsNtB5_19ScanOperatorFactory17create_index_scan
FN:1371,_RNvMsh_NtNtCs9nxHbwgHRMj_6rustdb8executor9operatorsNtB5_19ScanOperatorFactory17create_range_scan
FN:1359,_RNvMsh_NtNtCs9nxHbwgHRMj_6rustdb8executor9operatorsNtB5_19ScanOperatorFactory17create_table_scan
FN:1382,_RNvMsh_NtNtCs9nxHbwgHRMj_6rustdb8executor9operatorsNtB5_19ScanOperatorFactory23create_conditional_scan
FN:1340,_RNvMsh_NtNtCs9nxHbwgHRMj_6rustdb8executor9operatorsNtB5_19ScanOperatorFactory3new
FN:1348,_RNvMsh_NtNtCs9nxHbwgHRMj_6rustdb8executor9operatorsNtB5_19ScanOperatorFactory9add_index
FN:1476,_RNvMsi_NtNtCs9nxHbwgHRMj_6rustdb8executor9operatorsNtB5_19HashGroupByOperator13process_input
FN:1458,_RNvMsi_NtNtCs9nxHbwgHRMj_6rustdb8executor9operatorsNtB5_19HashGroupByOperator3new
FN:1624,_RNvMsk_NtNtCs9nxHbwgHRMj_6rustdb8executor9operatorsNtB5_12SortOperator13load_and_sort
FN:1600,_RNvMsk_NtNtCs9nxHbwgHRMj_6rustdb8executor9operatorsNtB5_12SortOperator3new
FN:1716,_RNvMsm_NtNtCs9nxHbwgHRMj_6rustdb8executor9operatorsNtB5_19SortGroupByOperator16load_and_process
FN:1698,_RNvMsm_NtNtCs9nxHbwgHRMj_6rustdb8executor9operatorsNtB5_19SortGroupByOperator3new
FN:1855,_RNvMso_NtNtCs9nxHbwgHRMj_6rustdb8executor9operatorsNtB5_30AggregationSortOperatorFactory11create_sort
FN:1830,_RNvMso_NtNtCs9nxHbwgHRMj_6rustdb8executor9operatorsNtB5_30AggregationSortOperatorFactory15create_group_by
FN:433,_RNvXs2_NtNtCs9nxHbwgHRMj_6rustdb8executor9operatorsNtB5_17IndexScanOperatorNtB5_8Operator10get_schema
FN:437,_RNvXs2_NtNtCs9nxHbwgHRMj_6rustdb8executor9operatorsNtB5_17IndexScanOperatorNtB5_8Operator14get_statistics
FN:405,_RNvXs2_NtNtCs9nxHbwgHRMj_6rustdb8executor9operatorsNtB5_17IndexScanOperatorNtB5_8Operator4next
FN:426,_RNvXs2_NtNtCs9nxHbwgHRMj_6rustdb8executor9operatorsNtB5_17IndexScanOperatorNtB5_8Operator5reset
FN:514,_RNvXs4_NtNtCs9nxHbwgHRMj_6rustdb8executor9operatorsNtB5_17RangeScanOperatorNtB5_8Operator10get_schema
FN:518,_RNvXs4_NtNtCs9nxHbwgHRMj_6rustdb8executor9operatorsNtB5_17RangeScanOperatorNtB5_8Operator14get_statistics
FN:488,_RNvXs4_NtNtCs9nxHbwgHRMj_6rustdb8executor9operatorsNtB5_17RangeScanOperatorNtB5_8Operator4next
FN:508,_RNvXs4_NtNtCs9nxHbwgHRMj_6rustdb8executor9operatorsNtB5_17RangeScanOperatorNtB5_8Operator5reset
FN:575,_RNvXs6_NtNtCs9nxHbwgHRMj_6rustdb8executor9operatorsNtB5_23ConditionalScanOperatorNtB5_8Operator10get_schema
FN:579,_RNvXs6_NtNtCs9nxHbwgHRMj_6rustdb8executor9operatorsNtB5_23ConditionalScanOperatorNtB5_8Operator14get_statistics
FN:552,_RNvXs6_NtNtCs9nxHbwgHRMj_6rustdb8executor9operatorsNtB5_23ConditionalScanOperatorNtB5_8Operator4next
FN:569,_RNvXs6_NtNtCs9nxHbwgHRMj_6rustdb8executor9operatorsNtB5_23ConditionalScanOperatorNtB5_8Operator5reset
FN:801,_RNvXs8_NtNtCs9nxHbwgHRMj_6rustdb8executor9operatorsNtB5_22NestedLoopJoinOperatorNtB5_8Operator10get_schema
FN:805,_RNvXs8_NtNtCs9nxHbwgHRMj_6rustdb8executor9operatorsNtB5_22NestedLoopJoinOperatorNtB5_8Operator14get_statistics
FN:743,_RNvXs8_NtNtCs9nxHbwgHRMj_6rustdb8executor9operatorsNtB5_22NestedLoopJoinOperatorNtB5_8Operator4next
FN:791,_RNvXs8_NtNtCs9nxHbwgHRMj_6rustdb8executor9operatorsNtB5_22NestedLoopJoinOperatorNtB5_8Operator5reset
FN:202,_RNvXs_NtNtCs9nxHbwgHRMj_6rustdb8executor9operatorsNtB4_17TableScanOperatorNtB4_8Operator10get_schema
FN:206,_RNvXs_NtNtCs9nxHbwgHRMj_6rustdb8executor9operatorsNtB4_17TableScanOperatorNtB4_8Operator14get_statistics
FN:152,_RNvXs_NtNtCs9nxHbwgHRMj_6rustdb8executor9operatorsNtB4_17TableScanOperatorNtB4_8Operator4next
FN:194,_RNvXs_NtNtCs9nxHbwgHRMj_6rustdb8executor9operatorsNtB4_17TableScanOperatorNtB4_8Operator5reset
FN:1005,_RNvXsa_NtNtCs9nxHbwgHRMj_6rustdb8executor9operatorsNtB5_16HashJoinOperatorNtB5_8Operator10get_schema
FN:1009,_RNvXsa_NtNtCs9nxHbwgHRMj_6rustdb8executor9operatorsNtB5_16HashJoinOperatorNtB5_8Operator14get_statistics
FN:950,_RNvXsa_NtNtCs9nxHbwgHRMj_6rustdb8executor9operatorsNtB5_16HashJoinOperatorNtB5_8Operator4next
FN:994,_RNvXsa_NtNtCs9nxHbwgHRMj_6rustdb8executor9operatorsNtB5_16HashJoinOperatorNtB5_8Operator5reset
FN:1220,_RNvXsc_NtNtCs9nxHbwgHRMj_6rustdb8executor9operatorsNtB5_17MergeJoinOperatorNtB5_8Operator10get_schema
FN:1224,_RNvXsc_NtNtCs9nxHbwgHRMj_6rustdb8executor9operatorsNtB5_17MergeJoinOperatorNtB5_8Operator14get_statistics
FN:1164,_RNvXsc_NtNtCs9nxHbwgHRMj_6rustdb8executor9operatorsNtB5_17MergeJoinOperatorNtB5_8Operator4next
FN:1207,_RNvXsc_NtNtCs9nxHbwgHRMj_6rustdb8executor9operatorsNtB5_17MergeJoinOperatorNtB5_8Operator5reset
FN:1269,_RNvXse_NtNtCs9nxHbwgHRMj_6rustdb8executor9operatorsNtB5_13LimitOperatorNtB5_8Operator10get_schema
FN:1273,_RNvXse_NtNtCs9nxHbwgHRMj_6rustdb8executor9operatorsNtB5_13LimitOperatorNtB5_8Operator14get_statistics
FN:1249,_RNvXse_NtNtCs9nxHbwgHRMj_6rustdb8executor9operatorsNtB5_13LimitOperatorNtB5_8Operator4next
FN:1262,_RNvXse_NtNtCs9nxHbwgHRMj_6rustdb8executor9operatorsNtB5_13LimitOperatorNtB5_8Operator5reset
FN:1321,_RNvXsg_NtNtCs9nxHbwgHRMj_6rustdb8executor9operatorsNtB5_14OffsetOperatorNtB5_8Operator10get_schema
FN:1325,_RNvXsg_NtNtCs9nxHbwgHRMj_6rustdb8executor9operatorsNtB5_14OffsetOperatorNtB5_8Operator14get_statistics
FN:1298,_RNvXsg_NtNtCs9nxHbwgHRMj_6rustdb8executor9operatorsNtB5_14OffsetOperatorNtB5_8Operator4next
FN:1314,_RNvXsg_NtNtCs9nxHbwgHRMj_6rustdb8executor9operatorsNtB5_14OffsetOperatorNtB5_8Operator5reset
FN:1571,_RNvXsj_NtNtCs9nxHbwgHRMj_6rustdb8executor9operatorsNtB5_19HashGroupByOperatorNtB5_8Operator10get_schema
FN:1575,_RNvXsj_NtNtCs9nxHbwgHRMj_6rustdb8executor9operatorsNtB5_19HashGroupByOperatorNtB5_8Operator14get_statistics
FN:1546,_RNvXsj_NtNtCs9nxHbwgHRMj_6rustdb8executor9operatorsNtB5_19HashGroupByOperatorNtB5_8Operator4next
FN:1563,_RNvXsj_NtNtCs9nxHbwgHRMj_6rustdb8executor9operatorsNtB5_19HashGroupByOperatorNtB5_8Operator5reset
FN:1669,_RNvXsl_NtNtCs9nxHbwgHRMj_6rustdb8executor9operatorsNtB5_12SortOperatorNtB5_8Operator10get_schema
FN:1673,_RNvXsl_NtNtCs9nxHbwgHRMj_6rustdb8executor9operatorsNtB5_12SortOperatorNtB5_8Operator14get_statistics
FN:1644,_RNvXsl_NtNtCs9nxHbwgHRMj_6rustdb8executor9operatorsNtB5_12SortOperatorNtB5_8Operator4next
FN:1661,_RNvXsl_NtNtCs9nxHbwgHRMj_6rustdb8executor9operatorsNtB5_12SortOperatorNtB5_8Operator5reset
FN:1816,_RNvXsn_NtNtCs9nxHbwgHRMj_6rustdb8executor9operatorsNtB5_19SortGroupByOperatorNtB5_8Operator10get_schema
FN:1820,_RNvXsn_NtNtCs9nxHbwgHRMj_6rustdb8executor9operatorsNtB5_19SortGroupByOperatorNtB5_8Operator14get_statistics
FN:1791,_RNvXsn_NtNtCs9nxHbwgHRMj_6rustdb8executor9operatorsNtB5_19SortGroupByOperatorNtB5_8Operator4next
FN:1808,_RNvXsn_NtNtCs9nxHbwgHRMj_6rustdb8executor9operatorsNtB5_19SortGroupByOperatorNtB5_8Operator5reset
FNDA:0,_RNCNvMs1_NtNtCsioRnW7FrYT6_6rustdb8executor9operatorsNtB7_17IndexScanOperator11load_record0Bb_
FNDA:0,_RNCNvMs1_NtNtCsioRnW7FrYT6_6rustdb8executor9operatorsNtB7_17IndexScanOperator20perform_index_search0Bb_
FNDA:0,_RNCNvMsk_NtNtCsioRnW7FrYT6_6rustdb8executor9operatorsNtB7_12SortOperator13load_and_sort0Bb_
FNDA:0,_RNCNvMs1_NtNtCs9nxHbwgHRMj_6rustdb8executor9operatorsNtB7_17IndexScanOperator11load_record0Bb_
FNDA:0,_RNCNvMs1_NtNtCs9nxHbwgHRMj_6rustdb8executor9operatorsNtB7_17IndexScanOperator20perform_index_search0Bb_
FNDA:0,_RNCNvMsk_NtNtCs9nxHbwgHRMj_6rustdb8executor9operatorsNtB7_12SortOperator13load_and_sort0Bb_
FNDA:0,_RNvMNtNtCs9nxHbwgHRMj_6rustdb8executor9operatorsNtB2_17TableScanOperator12apply_filter
FNDA:0,_RNvMNtNtCs9nxHbwgHRMj_6rustdb8executor9operatorsNtB2_17TableScanOperator14find_next_page
FNDA:0,_RNvMNtNtCs9nxHbwgHRMj_6rustdb8executor9operatorsNtB2_17TableScanOperator18evaluate_condition
FNDA:0,_RNvMNtNtCs9nxHbwgHRMj_6rustdb8executor9operatorsNtB2_17TableScanOperator3new
FNDA:0,_RNvMNtNtCs9nxHbwgHRMj_6rustdb8executor9operatorsNtB2_17TableScanOperator9load_page
FNDA:0,_RNvMs0_NtNtCs9nxHbwgHRMj_6rustdb8executor9operatorsNtB5_17TableScanOperator15parse_page_rows
FNDA:0,_RNvMs1_NtNtCs9nxHbwgHRMj_6rustdb8executor9operatorsNtB5_17IndexScanOperator11load_record
FNDA:0,_RNvMs1_NtNtCs9nxHbwgHRMj_6rustdb8executor9operatorsNtB5_17IndexScanOperator12bytes_to_row
FNDA:0,_RNvMs1_NtNtCs9nxHbwgHRMj_6rustdb8executor9operatorsNtB5_17IndexScanOperator20perform_index_search
FNDA:0,_RNvMs1_NtNtCs9nxHbwgHRMj_6rustdb8executor9operatorsNtB5_17IndexScanOperator23apply_search_conditions
FNDA:0,_RNvMs1_NtNtCs9nxHbwgHRMj_6rustdb8executor9operatorsNtB5_17IndexScanOperator28range_bounds_from_conditions
FNDA:0,_RNvMs1_NtNtCs9nxHbwgHRMj_6rustdb8executor9operatorsNtB5_17IndexScanOperator3new
FNDA:0,_RNvMs3_NtNtCs9nxHbwgHRMj_6rustdb8executor9operatorsNtB5_17RangeScanOperator11is_in_range
FNDA:0,_RNvMs3_NtNtCs9nxHbwgHRMj_6rustdb8executor9operatorsNtB5_17RangeScanOperator3new
FNDA:0,_RNvMs5_NtNtCs9nxHbwgHRMj_6rustdb8executor9operatorsNtB5_23ConditionalScanOperator18evaluate_condition
FNDA:0,_RNvMs5_NtNtCs9nxHbwgHRMj_6rustdb8executor9operatorsNtB5_23ConditionalScanOperator3new
FNDA:0,_RNvMs7_NtNtCs9nxHbwgHRMj_6rustdb8executor9operatorsNtB5_22NestedLoopJoinOperator12combine_rows
FNDA:0,_RNvMs7_NtNtCs9nxHbwgHRMj_6rustdb8executor9operatorsNtB5_22NestedLoopJoinOperator14compare_values
FNDA:0,_RNvMs7_NtNtCs9nxHbwgHRMj_6rustdb8executor9operatorsNtB5_22NestedLoopJoinOperator16load_right_block
FNDA:0,_RNvMs7_NtNtCs9nxHbwgHRMj_6rustdb8executor9operatorsNtB5_22NestedLoopJoinOperator20check_join_condition
FNDA:0,_RNvMs7_NtNtCs9nxHbwgHRMj_6rustdb8executor9operatorsNtB5_22NestedLoopJoinOperator3new
FNDA:0,_RNvMs9_NtNtCs9nxHbwgHRMj_6rustdb8executor9operatorsNtB5_16HashJoinOperator12combine_rows
FNDA:0,_RNvMs9_NtNtCs9nxHbwgHRMj_6rustdb8executor9operatorsNtB5_16HashJoinOperator12get_join_key
FNDA:0,_RNvMs9_NtNtCs9nxHbwgHRMj_6rustdb8executor9operatorsNtB5_16HashJoinOperator14compare_values
FNDA:0,_RNvMs9_NtNtCs9nxHbwgHRMj_6rustdb8executor9operatorsNtB5_16HashJoinOperator16build_hash_table
FNDA:0,_RNvMs9_NtNtCs9nxHbwgHRMj_6rustdb8executor9operatorsNtB5_16HashJoinOperator20check_join_condition
FNDA:0,_RNvMs9_NtNtCs9nxHbwgHRMj_6rustdb8executor9operatorsNtB5_16HashJoinOperator3new
FNDA:0,_RNvMsb_NtNtCs9nxHbwgHRMj_6rustdb8executor9operatorsNtB5_17MergeJoinOperator12combine_rows
FNDA:0,_RNvMsb_NtNtCs9nxHbwgHRMj_6rustdb8executor9operatorsNtB5_17MergeJoinOperator12compare_keys
FNDA:0,_RNvMsb_NtNtCs9nxHbwgHRMj_6rustdb8executor9operatorsNtB5_17MergeJoinOperator12get_join_key
FNDA:0,_RNvMsb_NtNtCs9nxHbwgHRMj_6rustdb8executor9operatorsNtB5_17MergeJoinOperator18load_matching_keys
FNDA:0,_RNvMsb_NtNtCs9nxHbwgHRMj_6rustdb8executor9operatorsNtB5_17MergeJoinOperator3new
FNDA:0,_RNvMsd_NtNtCs9nxHbwgHRMj_6rustdb8executor9operatorsNtB5_13LimitOperator3new
FNDA:0,_RNvMsf_NtNtCs9nxHbwgHRMj_6rustdb8executor9operatorsNtB5_14OffsetOperator3new
FNDA:0,_RNvMsh_NtNtCs9nxHbwgHRMj_6rustdb8executor9operatorsNtB5_19ScanOperatorFactory17create_index_scan
FNDA:0,_RNvMsh_NtNtCs9nxHbwgHRMj_6rustdb8executor9operatorsNtB5_19ScanOperatorFactory17create_range_scan
FNDA:0,_RNvMsh_NtNtCs9nxHbwgHRMj_6rustdb8executor9operatorsNtB5_19ScanOperatorFactory17create_table_scan
FNDA:0,_RNvMsh_NtNtCs9nxHbwgHRMj_6rustdb8executor9operatorsNtB5_19ScanOperatorFactory23create_conditional_scan
FNDA:0,_RNvMsh_NtNtCs9nxHbwgHRMj_6rustdb8executor9operatorsNtB5_19ScanOperatorFactory3new
FNDA:0,_RNvMsh_NtNtCs9nxHbwgHRMj_6rustdb8executor9operatorsNtB5_19ScanOperatorFactory9add_index
FNDA:0,_RNvMsi_NtNtCs9nxHbwgHRMj_6rustdb8executor9operatorsNtB5_19HashGroupByOperator13process_input
FNDA:0,_RNvMsi_NtNtCs9nxHbwgHRMj_6rustdb8executor9operatorsNtB5_19HashGroupByOperator3new
FNDA:0,_RNvMsk_NtNtCs9nxHbwgHRMj_6rustdb8executor9operatorsNtB5_12SortOperator13load_and_sort
FNDA:0,_RNvMsk_NtNtCs9nxHbwgHRMj_6rustdb8executor9operatorsNtB5_12SortOperator3new
FNDA:0,_RNvMsm_NtNtCs9nxHbwgHRMj_6rustdb8executor9operatorsNtB5_19SortGroupByOperator16load_and_process
FNDA:0,_RNvMsm_NtNtCs9nxHbwgHRMj_6rustdb8executor9operatorsNtB5_19SortGroupByOperator3new
FNDA:0,_RNvMso_NtNtCs9nxHbwgHRMj_6rustdb8executor9operatorsNtB5_30AggregationSortOperatorFactory11create_sort
FNDA:0,_RNvMso_NtNtCs9nxHbwgHRMj_6rustdb8executor9operatorsNtB5_30AggregationSortOperatorFactory15create_group_by
FNDA:0,_RNvXs2_NtNtCs9nxHbwgHRMj_6rustdb8executor9operatorsNtB5_17IndexScanOperatorNtB5_8Operator10get_schema
FNDA:0,_RNvXs2_NtNtCs9nxHbwgHRMj_6rustdb8executor9operatorsNtB5_17IndexScanOperatorNtB5_8Operator14get_statistics
FNDA:0,_RNvXs2_NtNtCs9nxHbwgHRMj_6rustdb8executor9operatorsNtB5_17IndexScanOperatorNtB5_8Operator4next
FNDA:0,_RNvXs2_NtNtCs9nxHbwgHRMj_6rustdb8executor9operatorsNtB5_17IndexScanOperatorNtB5_8Operator5reset
FNDA:0,_RNvXs4_NtNtCs9nxHbwgHRMj_6rustdb8executor9operatorsNtB5_17RangeScanOperatorNtB5_8Operator10get_schema
FNDA:0,_RNvXs4_NtNtCs9nxHbwgHRMj_6rustdb8executor9operatorsNtB5_17RangeScanOperatorNtB5_8Operator14get_statistics
FNDA:0,_RNvXs4_NtNtCs9nxHbwgHRMj_6rustdb8executor9operatorsNtB5_17RangeScanOperatorNtB5_8Operator4next
FNDA:0,_RNvXs4_NtNtCs9nxHbwgHRMj_6rustdb8executor9operatorsNtB5_17RangeScanOperatorNtB5_8Operator5reset
FNDA:0,_RNvXs6_NtNtCs9nxHbwgHRMj_6rustdb8executor9operatorsNtB5_23ConditionalScanOperatorNtB5_8Operator10get_schema
FNDA:0,_RNvXs6_NtNtCs9nxHbwgHRMj_6rustdb8executor9operatorsNtB5_23ConditionalScanOperatorNtB5_8Operator14get_statistics
FNDA:0,_RNvXs6_NtNtCs9nxHbwgHRMj_6rustdb8executor9operatorsNtB5_23ConditionalScanOperatorNtB5_8Operator4next
FNDA:0,_RNvXs6_NtNtCs9nxHbwgHRMj_6rustdb8executor9operatorsNtB5_23ConditionalScanOperatorNtB5_8Operator5reset
FNDA:0,_RNvXs8_NtNtCs9nxHbwgHRMj_6rustdb8executor9operatorsNtB5_22NestedLoopJoinOperatorNtB5_8Operator10get_schema
FNDA:0,_RNvXs8_NtNtCs9nxHbwgHRMj_6rustdb8executor9operatorsNtB5_22NestedLoopJoinOperatorNtB5_8Operator14get_statistics
FNDA:0,_RNvXs8_NtNtCs9nxHbwgHRMj_6rustdb8executor9operatorsNtB5_22NestedLoopJoinOperatorNtB5_8Operator4next
FNDA:0,_RNvXs8_NtNtCs9nxHbwgHRMj_6rustdb8executor9operatorsNtB5_22NestedLoopJoinOperatorNtB5_8Operator5reset
FNDA:0,_RNvXs_NtNtCs9nxHbwgHRMj_6rustdb8executor9operatorsNtB4_17TableScanOperatorNtB4_8Operator10get_schema
FNDA:0,_RNvXs_NtNtCs9nxHbwgHRMj_6rustdb8executor9operatorsNtB4_17TableScanOperatorNtB4_8Operator14get_statistics
FNDA:0,_RNvXs_NtNtCs9nxHbwgHRMj_6rustdb8executor9operatorsNtB4_17TableScanOperatorNtB4_8Operator4next
FNDA:0,_RNvXs_NtNtCs9nxHbwgHRMj_6rustdb8executor9operatorsNtB4_17TableScanOperatorNtB4_8Operator5reset
FNDA:0,_RNvXsa_NtNtCs9nxHbwgHRMj_6rustdb8executor9operatorsNtB5_16HashJoinOperatorNtB5_8Operator10get_schema
FNDA:0,_RNvXsa_NtNtCs9nxHbwgHRMj_6rustdb8executor9operatorsNtB5_16HashJoinOperatorNtB5_8Operator14get_statistics
FNDA:0,_RNvXsa_NtNtCs9nxHbwgHRMj_6rustdb8executor9operatorsNtB5_16HashJoinOperatorNtB5_8Operator4next
FNDA:0,_RNvXsa_NtNtCs9nxHbwgHRMj_6rustdb8executor9operatorsNtB5_16HashJoinOperatorNtB5_8Operator5reset
FNDA:0,_RNvXsc_NtNtCs9nxHbwgHRMj_6rustdb8executor9operatorsNtB5_17MergeJoinOperatorNtB5_8Operator10get_schema
FNDA:0,_RNvXsc_NtNtCs9nxHbwgHRMj_6rustdb8executor9operatorsNtB5_17MergeJoinOperatorNtB5_8Operator14get_statistics
FNDA:0,_RNvXsc_NtNtCs9nxHbwgHRMj_6rustdb8executor9operatorsNtB5_17MergeJoinOperatorNtB5_8Operator4next
FNDA:0,_RNvXsc_NtNtCs9nxHbwgHRMj_6rustdb8executor9operatorsNtB5_17MergeJoinOperatorNtB5_8Operator5reset
FNDA:0,_RNvXse_NtNtCs9nxHbwgHRMj_6rustdb8executor9operatorsNtB5_13LimitOperatorNtB5_8Operator10get_schema
FNDA:0,_RNvXse_NtNtCs9nxHbwgHRMj_6rustdb8executor9operatorsNtB5_13LimitOperatorNtB5_8Operator14get_statistics
FNDA:0,_RNvXse_NtNtCs9nxHbwgHRMj_6rustdb8executor9operatorsNtB5_13LimitOperatorNtB5_8Operator4next
FNDA:0,_RNvXse_NtNtCs9nxHbwgHRMj_6rustdb8executor9operatorsNtB5_13LimitOperatorNtB5_8Operator5reset
FNDA:0,_RNvXsg_NtNtCs9nxHbwgHRMj_6rustdb8executor9operatorsNtB5_14OffsetOperatorNtB5_8Operator10get_schema
FNDA:0,_RNvXsg_NtNtCs9nxHbwgHRMj_6rustdb8executor9operatorsNtB5_14OffsetOperatorNtB5_8Operator14get_statistics
FNDA:0,_RNvXsg_NtNtCs9nxHbwgHRMj_6rustdb8executor9operatorsNtB5_14OffsetOperatorNtB5_8Operator4next
FNDA:0,_RNvXsg_NtNtCs9nxHbwgHRMj_6rustdb8executor9operatorsNtB5_14OffsetOperatorNtB5_8Operator5reset
FNDA:0,_RNvXsj_NtNtCs9nxHbwgHRMj_6rustdb8executor9operatorsNtB5_19HashGroupByOperatorNtB5_8Operator10get_schema
FNDA:0,_RNvXsj_NtNtCs9nxHbwgHRMj_6rustdb8executor9operatorsNtB5_19HashGroupByOperatorNtB5_8Operator14get_statistics
FNDA:0,_RNvXsj_NtNtCs9nxHbwgHRMj_6rustdb8executor9operatorsNtB5_19HashGroupByOperatorNtB5_8Operator4next
FNDA:0,_RNvXsj_NtNtCs9nxHbwgHRMj_6rustdb8executor9operatorsNtB5_19HashGroupByOperatorNtB5_8Operator5reset
FNDA:0,_RNvXsl_NtNtCs9nxHbwgHRMj_6rustdb8executor9operatorsNtB5_12SortOperatorNtB5_8Operator10get_schema
FNDA:0,_RNvXsl_NtNtCs9nxHbwgHRMj_6rustdb8executor9operatorsNtB5_12SortOperatorNtB5_8Operator14get_statistics
FNDA:0,_RNvXsl_NtNtCs9nxHbwgHRMj_6rustdb8executor9operatorsNtB5_12SortOperatorNtB5_8Operator4next
FNDA:0,_RNvXsl_NtNtCs9nxHbwgHRMj_6rustdb8executor9operatorsNtB5_12SortOperatorNtB5_8Operator5reset
FNDA:0,_RNvXsn_NtNtCs9nxHbwgHRMj_6rustdb8executor9operatorsNtB5_19SortGroupByOperatorNtB5_8Operator10get_schema
FNDA:0,_RNvXsn_NtNtCs9nxHbwgHRMj_6rustdb8executor9operatorsNtB5_19SortGroupByOperatorNtB5_8Operator14get_statistics
FNDA:0,_RNvXsn_NtNtCs9nxHbwgHRMj_6rustdb8executor9operatorsNtB5_19SortGroupByOperatorNtB5_8Operator4next
FNDA:0,_RNvXsn_NtNtCs9nxHbwgHRMj_6rustdb8executor9operatorsNtB5_19SortGroupByOperatorNtB5_8Operator5reset
FNF:99
FNH:0
DA:72,0
DA:73,0
DA:74,0
DA:75,0
DA:76,0
DA:77,0
DA:78,0
DA:79,0
DA:80,0
DA:81,0
DA:82,0
DA:83,0
DA:84,0
DA:85,0
DA:86,0
DA:87,0
DA:88,0
DA:89,0
DA:92,0
DA:94,0
DA:95,0
DA:96,0
DA:99,0
DA:102,0
DA:104,0
DA:105,0
DA:106,0
DA:107,0
DA:108,0
DA:110,0
DA:111,0
DA:113,0
DA:114,0
DA:117,0
DA:119,0
DA:120,0
DA:122,0
DA:126,0
DA:127,0
DA:129,0
DA:131,0
DA:134,0
DA:135,0
DA:137,0
DA:139,0
DA:141,0
DA:144,0
DA:146,0
DA:147,0
DA:148,0
DA:152,0
DA:153,0
DA:157,0
DA:158,0
DA:159,0
DA:161,0
DA:162,0
DA:163,0
DA:164,0
DA:166,0
DA:167,0
DA:170,0
DA:173,0
DA:174,0
DA:175,0
DA:176,0
DA:179,0
DA:180,0
DA:181,0
DA:182,0
DA:183,0
DA:187,0
DA:190,0
DA:191,0
DA:192,0
DA:194,0
DA:195,0
DA:196,0
DA:197,0
DA:198,0
DA:199,0
DA:200,0
DA:202,0
DA:203,0
DA:204,0
DA:206,0
DA:207,0
DA:208,0
DA:213,0
DA:215,0
DA:218,0
DA:219,0
DA:220,0
DA:221,0
DA:222,0
DA:223,0
DA:224,0
DA:225,0
DA:226,0
DA:229,0
DA:230,0
DA:280,0
DA:281,0
DA:282,0
DA:283,0
DA:284,0
DA:285,0
DA:286,0
DA:287,0
DA:288,0
DA:289,0
DA:290,0
DA:291,0
DA:292,0
DA:293,0
DA:294,0
DA:295,0
DA:296,0
DA:297,0
DA:298,0
DA:301,0
DA:303,0
DA:304,0
DA:307,0
DA:308,0
DA:309,0
DA:310,0
DA:311,0
DA:313,0
DA:315,0
DA:316,0
DA:319,0
DA:320,0
DA:322,0
DA:324,0
DA:325,0
DA:326,0
DA:333,0
DA:334,0
DA:335,0
DA:339,0
DA:340,0
DA:345,0
DA:346,0
DA:347,0
DA:349,0
DA:350,0
DA:351,0
DA:352,0
DA:353,0
DA:354,0
DA:355,0
DA:356,0
DA:357,0
DA:358,0
DA:359,0
DA:360,0
DA:363,0
DA:364,0
DA:367,0
DA:368,0
DA:369,0
DA:370,0
DA:371,0
DA:372,0
DA:373,0
DA:375,0
DA:376,0
DA:377,0
DA:379,0
DA:380,0
DA:383,0
DA:384,0
DA:385,0
DA:386,0
DA:388,0
DA:389,0
DA:390,0
DA:391,0
DA:392,0
DA:393,0
DA:395,0
DA:396,0
DA:399,0
DA:400,0
DA:401,0
DA:405,0
DA:406,0
DA:408,0
DA:409,0
DA:410,0
DA:412,0
DA:413,0
DA:414,0
DA:415,0
DA:416,0
DA:417,0
DA:418,0
DA:419,0
DA:422,0
DA:423,0
DA:424,0
DA:426,0
DA:427,0
DA:428,0
DA:429,0
DA:430,0
DA:431,0
DA:433,0
DA:434,0
DA:435,0
DA:437,0
DA:438,0
DA:439,0
DA:456,0
DA:457,0
DA:458,0
DA:459,0
DA:460,0
DA:461,0
DA:462,0
DA:463,0
DA:464,0
DA:465,0
DA:466,0
DA:467,0
DA:470,0
DA:471,0
DA:472,0
DA:473,0
DA:474,0
DA:475,0
DA:477,0
DA:478,0
DA:479,0
DA:480,0
DA:481,0
DA:483,0
DA:484,0
DA:488,0
DA:489,0
DA:491,0
DA:492,0
DA:496,0
DA:497,0
DA:498,0
DA:499,0
DA:500,0
DA:501,0
DA:504,0
DA:505,0
DA:506,0
DA:508,0
DA:509,0
DA:510,0
DA:511,0
DA:512,0
DA:514,0
DA:515,0
DA:516,0
DA:518,0
DA:519,0
DA:520,0
DA:535,0
DA:536,0
DA:537,0
DA:538,0
DA:539,0
DA:540,0
DA:541,0
DA:544,0
DA:546,0
DA:547,0
DA:548,0
DA:552,0
DA:553,0
DA:555,0
DA:556,0
DA:558,0
DA:559,0
DA:560,0
DA:561,0
DA:562,0
DA:565,0
DA:566,0
DA:567,0
DA:569,0
DA:570,0
DA:571,0
DA:572,0
DA:573,0
DA:575,0
DA:576,0
DA:577,0
DA:579,0
DA:580,0
DA:581,0
DA:645,0
DA:646,0
DA:647,0
DA:648,0
DA:649,0
DA:650,0
DA:651,0
DA:652,0
DA:653,0
DA:656,0
DA:658,0
DA:659,0
DA:660,0
DA:661,0
DA:662,0
DA:663,0
DA:664,0
DA:665,0
DA:666,0
DA:667,0
DA:668,0
DA:669,0
DA:670,0
DA:673,0
DA:674,0
DA:675,0
DA:678,0
DA:679,0
DA:680,0
DA:681,0
DA:682,0
DA:686,0
DA:687,0
DA:688,0
DA:691,0
DA:692,0
DA:693,0
DA:695,0
DA:696,0
DA:697,0
DA:698,0
DA:700,0
DA:703,0
DA:706,0
DA:709,0
DA:712,0
DA:714,0
DA:717,0
DA:719,0
DA:720,0
DA:721,0
DA:722,0
DA:725,0
DA:726,0
DA:729,0
DA:730,0
DA:731,0
DA:734,0
DA:735,0
DA:736,0
DA:738,0
DA:739,0
DA:743,0
DA:744,0
DA:748,0
DA:749,0
DA:750,0
DA:752,0
DA:753,0
DA:756,0
DA:757,0
DA:758,0
DA:760,0
DA:761,0
DA:764,0
DA:765,0
DA:766,0
DA:768,0
DA:769,0
DA:770,0
DA:771,0
DA:772,0
DA:773,0
DA:777,0
DA:778,0
DA:781,0
DA:782,0
DA:783,0
DA:784,0
DA:787,0
DA:788,0
DA:789,0
DA:791,0
DA:792,0
DA:793,0
DA:794,0
DA:795,0
DA:796,0
DA:797,0
DA:798,0
DA:799,0
DA:801,0
DA:802,0
DA:803,0
DA:805,0
DA:806,0
DA:807,0
DA:838,0
DA:839,0
DA:840,0
DA:841,0
DA:842,0
DA:843,0
DA:844,0
DA:845,0
DA:846,0
DA:849,0
DA:851,0
DA:852,0
DA:853,0
DA:854,0
DA:855,0
DA:856,0
DA:857,0
DA:858,0
DA:859,0
DA:860,0
DA:861,0
DA:862,0
DA:863,0
DA:866,0
DA:868,0
DA:869,0
DA:872,0
DA:873,0
DA:876,0
DA:877,0
DA:878,0
DA:879,0
DA:880,0
DA:881,0
DA:882,0
DA:884,0
DA:885,0
DA:886,0
DA:889,0
DA:890,0
DA:891,0
DA:893,0
DA:895,0
DA:898,0
DA:899,0
DA:900,0
DA:902,0
DA:903,0
DA:904,0
DA:905,0
DA:907,0
DA:910,0
DA:913,0
DA:916,0
DA:919,0
DA:921,0
DA:924,0
DA:926,0
DA:927,0
DA:928,0
DA:929,0
DA:932,0
DA:933,0
DA:936,0
DA:937,0
DA:938,0
DA:941,0
DA:942,0
DA:943,0
DA:945,0
DA:946,0
DA:950,0
DA:951,0
DA:955,0
DA:956,0
DA:957,0
DA:959,0
DA:960,0
DA:963,0
DA:964,0
DA:966,0
DA:967,0
DA:968,0
DA:970,0
DA:971,0
DA:974,0
DA:975,0
DA:976,0
DA:978,0
DA:979,0
DA:980,0
DA:981,0
DA:982,0
DA:983,0
DA:987,0
DA:990,0
DA:991,0
DA:992,0
DA:994,0
DA:995,0
DA:996,0
DA:997,0
DA:998,0
DA:999,0
DA:1000,0
DA:1001,0
DA:1002,0
DA:1003,0
DA:1005,0
DA:1006,0
DA:1007,0
DA:1009,0
DA:1010,0
DA:1011,0
DA:1042,0
DA:1043,0
DA:1044,0
DA:1045,0
DA:1046,0
DA:1047,0
DA:1048,0
DA:1049,0
DA:1052,0
DA:1054,0
DA:1055,0
DA:1056,0
DA:1057,0
DA:1058,0
DA:1059,0
DA:1060,0
DA:1061,0
DA:1062,0
DA:1063,0
DA:1064,0
DA:1065,0
DA:1066,0
DA:1067,0
DA:1068,0
DA:1071,0
DA:1072,0
DA:1073,0
DA:1075,0
DA:1077,0
DA:1080,0
DA:1081,0
DA:1082,0
DA:1085,0
DA:1086,0
DA:1087,0
DA:1088,0
DA:1089,0
DA:1092,0
DA:1093,0
DA:1094,0
DA:1095,0
DA:1096,0
DA:1097,0
DA:1099,0
DA:1101,0
DA:1102,0
DA:1104,0
DA:1107,0
DA:1110,0
DA:1111,0
DA:1112,0
DA:1113,0
DA:1114,0
DA:1116,0
DA:1121,0
DA:1122,0
DA:1123,0
DA:1124,0
DA:1125,0
DA:1127,0
DA:1133,0
DA:1137,0
DA:1140,0
DA:1142,0
DA:1143,0
DA:1146,0
DA:1147,0
DA:1150,0
DA:1151,0
DA:1152,0
DA:1155,0
DA:1156,0
DA:1157,0
DA:1159,0
DA:1160,0
DA:1164,0
DA:1165,0
DA:1169,0
DA:1170,0
DA:1172,0
DA:1175,0
DA:1176,0
DA:1177,0
DA:1178,0
DA:1179,0
DA:1180,0
DA:1181,0
DA:1184,0
DA:1185,0
DA:1187,0
DA:1189,0
DA:1190,0
DA:1191,0
DA:1194,0
DA:1195,0
DA:1196,0
DA:1197,0
DA:1198,0
DA:1200,0
DA:1203,0
DA:1204,0
DA:1205,0
DA:1207,0
DA:1208,0
DA:1209,0
DA:1210,0
DA:1211,0
DA:1212,0
DA:1213,0
DA:1214,0
DA:1215,0
DA:1216,0
DA:1217,0
DA:1218,0
DA:1220,0
DA:1221,0
DA:1222,0
DA:1224,0
DA:1225,0
DA:1226,0
DA:1238,0
DA:1239,0
DA:1240,0
DA:1241,0
DA:1242,0
DA:1243,0
DA:1244,0
DA:1245,0
DA:1249,0
DA:1250,0
DA:1251,0
DA:1252,0
DA:1253,0
DA:1254,0
DA:1255,0
DA:1256,0
DA:1257,0
DA:1258,0
DA:1259,0
DA:1260,0
DA:1262,0
DA:1263,0
DA:1264,0
DA:1265,0
DA:1266,0
DA:1267,0
DA:1269,0
DA:1270,0
DA:1271,0
DA:1273,0
DA:1274,0
DA:1275,0
DA:1287,0
DA:1288,0
DA:1289,0
DA:1290,0
DA:1291,0
DA:1292,0
DA:1293,0
DA:1294,0
DA:1298,0
DA:1299,0
DA:1300,0
DA:1301,0
DA:1302,0
DA:1303,0
DA:1304,0
DA:1306,0
DA:1307,0
DA:1308,0
DA:1309,0
DA:1310,0
DA:1311,0
DA:1312,0
DA:1314,0
DA:1315,0
DA:1316,0
DA:1317,0
DA:1318,0
DA:1319,0
DA:1321,0
DA:1322,0
DA:1323,0
DA:1325,0
DA:1326,0
DA:1327,0
DA:1340,0
DA:1341,0
DA:1342,0
DA:1343,0
DA:1344,0
DA:1345,0
DA:1348,0
DA:1349,0
DA:1350,0
DA:1351,0
DA:1352,0
DA:1353,0
DA:1354,0
DA:1355,0
DA:1356,0
DA:1359,0
DA:1360,0
DA:1361,0
DA:1362,0
DA:1363,0
DA:1364,0
DA:1365,0
DA:1366,0
DA:1367,0
DA:1368,0
DA:1371,0
DA:1372,0
DA:1373,0
DA:1374,0
DA:1375,0
DA:1376,0
DA:1377,0
DA:1378,0
DA:1379,0
DA:1382,0
DA:1383,0
DA:1384,0
DA:1385,0
DA:1386,0
DA:1387,0
DA:1388,0
DA:1389,0
DA:1392,0
DA:1393,0
DA:1394,0
DA:1395,0
DA:1396,0
DA:1397,0
DA:1398,0
DA:1399,0
DA:1400,0
DA:1401,0
DA:1402,0
DA:1403,0
DA:1404,0
DA:1405,0
DA:1406,0
DA:1407,0
DA:1408,0
DA:1409,0
DA:1411,0
DA:1413,0
DA:1458,0
DA:1459,0
DA:1460,0
DA:1461,0
DA:1462,0
DA:1463,0
DA:1464,0
DA:1465,0
DA:1466,0
DA:1467,0
DA:1468,0
DA:1469,0
DA:1470,0
DA:1471,0
DA:1472,0
DA:1473,0
DA:1476,0
DA:1478,0
DA:1479,0
DA:1482,0
DA:1485,0
DA:1486,0
DA:1487,0
DA:1488,0
DA:1489,0
DA:1490,0
DA:1491,0
DA:1492,0
DA:1496,0
DA:1497,0
DA:1498,0
DA:1499,0
DA:1500,0
DA:1501,0
DA:1502,0
DA:1503,0
DA:1504,0
DA:1505,0
DA:1506,0
DA:1507,0
DA:1508,0
DA:1509,0
DA:1510,0
DA:1511,0
DA:1512,0
DA:1513,0
DA:1514,0
DA:1515,0
DA:1516,0
DA:1517,0
DA:1518,0
DA:1519,0
DA:1520,0
DA:1521,0
DA:1522,0
DA:1523,0
DA:1524,0
DA:1525,0
DA:1526,0
DA:1527,0
DA:1528,0
DA:1529,0
DA:1530,0
DA:1531,0
DA:1532,0
DA:1533,0
DA:1537,0
DA:1538,0
DA:1541,0
DA:1542,0
DA:1546,0
DA:1548,0
DA:1549,0
DA:1550,0
DA:1553,0
DA:1554,0
DA:1555,0
DA:1556,0
DA:1557,0
DA:1558,0
DA:1560,0
DA:1561,0
DA:1563,0
DA:1564,0
DA:1565,0
DA:1566,0
DA:1567,0
DA:1568,0
DA:1569,0
DA:1571,0
DA:1572,0
DA:1573,0
DA:1575,0
DA:1576,0
DA:1577,0
DA:1600,0
DA:1601,0
DA:1602,0
DA:1603,0
DA:1604,0
DA:1605,0
DA:1606,0
DA:1607,0
DA:1608,0
DA:1609,0
DA:1610,0
DA:1612,0
DA:1613,0
DA:1614,0
DA:1615,0
DA:1616,0
DA:1617,0
DA:1618,0
DA:1619,0
DA:1620,0
DA:1621,0
DA:1624,0
DA:1625,0
DA:1628,0
DA:1629,0
DA:1630,0
DA:1631,0
DA:1634,0
DA:1636,0
DA:1637,0
DA:1639,0
DA:1640,0
DA:1644,0
DA:1646,0
DA:1647,0
DA:1648,0
DA:1651,0
DA:1652,0
DA:1653,0
DA:1654,0
DA:1655,0
DA:1656,0
DA:1658,0
DA:1659,0
DA:1661,0
DA:1662,0
DA:1663,0
DA:1664,0
DA:1665,0
DA:1666,0
DA:1667,0
DA:1669,0
DA:1670,0
DA:1671,0
DA:1673,0
DA:1674,0
DA:1675,0
DA:1698,0
DA:1699,0
DA:1700,0
DA:1701,0
DA:1702,0
DA:1703,0
DA:1704,0
DA:1705,0
DA:1706,0
DA:1707,0
DA:1708,0
DA:1709,0
DA:1710,0
DA:1711,0
DA:1712,0
DA:1713,0
DA:1716,0
DA:1717,0
DA:1720,0
DA:1721,0
DA:1722,0
DA:1723,0
DA:1726,0
DA:1728,0
DA:1731,0
DA:1732,0
DA:1733,0
DA:1734,0
DA:1735,0
DA:1736,0
DA:1737,0
DA:1741,0
DA:1742,0
DA:1743,0
DA:1744,0
DA:1745,0
DA:1746,0
DA:1747,0
DA:1748,0
DA:1749,0
DA:1750,0
DA:1751,0
DA:1752,0
DA:1753,0
DA:1754,0
DA:1755,0
DA:1756,0
DA:1757,0
DA:1758,0
DA:1759,0
DA:1760,0
DA:1761,0
DA:1762,0
DA:1763,0
DA:1764,0
DA:1765,0
DA:1766,0
DA:1767,0
DA:1768,0
DA:1769,0
DA:1770,0
DA:1771,0
DA:1772,0
DA:1773,0
DA:1774,0
DA:1775,0
DA:1776,0
DA:1777,0
DA:1778,0
DA:1782,0
DA:1783,0
DA:1786,0
DA:1787,0
DA:1791,0
DA:1793,0
DA:1794,0
DA:1795,0
DA:1798,0
DA:1799,0
DA:1800,0
DA:1801,0
DA:1802,0
DA:1803,0
DA:1805,0
DA:1806,0
DA:1808,0
DA:1809,0
DA:1810,0
DA:1811,0
DA:1812,0
DA:1813,0
DA:1814,0
DA:1816,0
DA:1817,0
DA:1818,0
DA:1820,0
DA:1821,0
DA:1822,0
DA:1830,0
DA:1831,0
DA:1832,0
DA:1833,0
DA:1834,0
DA:1835,0
DA:1836,0
DA:1837,0
DA:1838,0
DA:1839,0
DA:1840,0
DA:1841,0
DA:1842,0
DA:1843,0
DA:1845,0
DA:1846,0
DA:1847,0
DA:1848,0
DA:1849,0
DA:1850,0
DA:1852,0
DA:1855,0
DA:1856,0
DA:1857,0
DA:1858,0
DA:1859,0
DA:1860,0
DA:1861,0
DA:1862,0
DA:1863,0
DA:1864,0
DA:1865,0
DA:1866,0
DA:1867,0
BRF:0
BRH:0
LF:1053
LH:0
end_of_record
SF:C:\Users\Admin\RustProjects\RustBD\src\executor\result.rs
FN:11,_RNvMNtNtCsioRnW7FrYT6_6rustdb8executor6resultNtB2_9ResultSet3new
FN:11,_RNvMNtNtCs9nxHbwgHRMj_6rustdb8executor6resultNtB2_9ResultSet3new
FNDA:0,_RNvMNtNtCsioRnW7FrYT6_6rustdb8executor6resultNtB2_9ResultSet3new
FNDA:0,_RNvMNtNtCs9nxHbwgHRMj_6rustdb8executor6resultNtB2_9ResultSet3new
FNF:1
FNH:0
DA:11,0
DA:13,0
DA:14,0
BRF:0
BRH:0
LF:3
LH:0
end_of_record
SF:C:\Users\Admin\RustProjects\RustBD\src\lib.rs
FN:94,_RNvXs_CsioRnW7FrYT6_6rustdbNtB4_8DatabaseNtNtNtCsixiwFwjEgS7_4core3ops4drop4Drop4drop
FN:75,_RNvMCsioRnW7FrYT6_6rustdbNtB2_8Database3new
FN:81,_RNvMCsioRnW7FrYT6_6rustdbNtB2_8Database4open
FN:87,_RNvMCsioRnW7FrYT6_6rustdbNtB2_8Database5close
FN:75,_RNvMCs9nxHbwgHRMj_6rustdbNtB2_8Database3new
FN:81,_RNvMCs9nxHbwgHRMj_6rustdbNtB2_8Database4open
FN:87,_RNvMCs9nxHbwgHRMj_6rustdbNtB2_8Database5close
FN:94,_RNvXs_Cs9nxHbwgHRMj_6rustdbNtB4_8DatabaseNtNtNtCsixiwFwjEgS7_4core3ops4drop4Drop4drop
FNDA:0,_RNvXs_CsioRnW7FrYT6_6rustdbNtB4_8DatabaseNtNtNtCsixiwFwjEgS7_4core3ops4drop4Drop4drop
FNDA:0,_RNvMCsioRnW7FrYT6_6rustdbNtB2_8Database3new
FNDA:0,_RNvMCsioRnW7FrYT6_6rustdbNtB2_8Database4open
FNDA:0,_RNvMCsioRnW7FrYT6_6rustdbNtB2_8Database5close
FNDA:0,_RNvMCs9nxHbwgHRMj_6rustdbNtB2_8Database3new
FNDA:0,_RNvMCs9nxHbwgHRMj_6rustdbNtB2_8Database4open
FNDA:0,_RNvMCs9nxHbwgHRMj_6rustdbNtB2_8Database5close
FNDA:0,_RNvXs_Cs9nxHbwgHRMj_6rustdbNtB4_8DatabaseNtNtNtCsixiwFwjEgS7_4core3ops4drop4Drop4drop
FNF:4
FNH:0
DA:75,0
DA:77,0
DA:78,0
DA:81,0
DA:83,0
DA:84,0
DA:87,0
DA:89,0
DA:90,0
DA:94,0
DA:95,0
DA:96,0
BRF:0
BRH:0
LF:12
LH:0
end_of_record
SF:C:\Users\Admin\RustProjects\RustBD\src\logging\checkpoint.rs
FN:470,_RNCNCNvMs_NtNtCsioRnW7FrYT6_6rustdb7logging10checkpointNtB8_17CheckpointManager17create_checkpoint00CslucG1Bzb3vH_17integration_tests
FN:474,_RNCNCNvMs_NtNtCsioRnW7FrYT6_6rustdb7logging10checkpointNtB8_17CheckpointManager17create_checkpoint0s_0CslucG1Bzb3vH_17integration_tests
FN:462,_RNCNvMs_NtNtCsioRnW7FrYT6_6rustdb7logging10checkpointNtB6_17CheckpointManager17create_checkpoint0CslucG1Bzb3vH_17integration_tests
FN:574,_RNvXs0_NtNtCsioRnW7FrYT6_6rustdb7logging10checkpointNtB5_17CheckpointManagerNtNtNtCsixiwFwjEgS7_4core3ops4drop4Drop4drop
FN:560,_RNvMs_NtNtCsioRnW7FrYT6_6rustdb7logging10checkpointNtB4_17CheckpointManager14add_dirty_page
FN:494,_RNvMs_NtNtCsioRnW7FrYT6_6rustdb7logging10checkpointNtB4_17CheckpointManager14get_statistics
FN:187,_RNvMs_NtNtCsioRnW7FrYT6_6rustdb7logging10checkpointNtB4_17CheckpointManager16set_data_sources
FN:462,_RNvMs_NtNtCsioRnW7FrYT6_6rustdb7logging10checkpointNtB4_17CheckpointManager17create_checkpoint
FN:439,_RNvMs_NtNtCsioRnW7FrYT6_6rustdb7logging10checkpointNtB4_17CheckpointManager17flush_dirty_pages
FN:565,_RNvMs_NtNtCsioRnW7FrYT6_6rustdb7logging10checkpointNtB4_17CheckpointManager17remove_dirty_page
FN:539,_RNvMs_NtNtCsioRnW7FrYT6_6rustdb7logging10checkpointNtB4_17CheckpointManager18update_dirty_pages
FN:509,_RNvMs_NtNtCsioRnW7FrYT6_6rustdb7logging10checkpointNtB4_17CheckpointManager19wait_for_checkpoint
FN:202,_RNvMs_NtNtCsioRnW7FrYT6_6rustdb7logging10checkpointNtB4_17CheckpointManager21start_background_task
FN:544,_RNvMs_NtNtCsioRnW7FrYT6_6rustdb7logging10checkpointNtB4_17CheckpointManager22add_active_transaction
FN:197,_RNvMs_NtNtCsioRnW7FrYT6_6rustdb7logging10checkpointNtB4_17CheckpointManager22set_dirty_page_flusher
FN:552,_RNvMs_NtNtCsioRnW7FrYT6_6rustdb7logging10checkpointNtB4_17CheckpointManager25remove_active_transaction
FN:320,_RNvMs_NtNtCsioRnW7FrYT6_6rustdb7logging10checkpointNtB4_17CheckpointManager26create_checkpoint_internal
FN:478,_RNvMs_NtNtCsioRnW7FrYT6_6rustdb7logging10checkpointNtB4_17CheckpointManager26create_shutdown_checkpoint
FN:534,_RNvMs_NtNtCsioRnW7FrYT6_6rustdb7logging10checkpointNtB4_17CheckpointManager26update_active_transactions
FN:289,_RNvMs_NtNtCsioRnW7FrYT6_6rustdb7logging10checkpointNtB4_17CheckpointManager27check_checkpoint_conditions
FN:164,_RNvMs_NtNtCsioRnW7FrYT6_6rustdb7logging10checkpointNtB4_17CheckpointManager3new
FN:518,_RNvMs_NtNtCsioRnW7FrYT6_6rustdb7logging10checkpointNtB4_17CheckpointManager8shutdown
FN:63,_RNvXNtNtCsioRnW7FrYT6_6rustdb7logging10checkpointNtB2_16CheckpointConfigNtNtCsixiwFwjEgS7_4core7default7Default7default
FN:470,_RNCNCNvMs_NtNtCsioRnW7FrYT6_6rustdb7logging10checkpointNtB8_17CheckpointManager17create_checkpoint00Bc_
FN:474,_RNCNCNvMs_NtNtCsioRnW7FrYT6_6rustdb7logging10checkpointNtB8_17CheckpointManager17create_checkpoint0s_0Bc_
FN:512,_RNCNCNvMs_NtNtCsioRnW7FrYT6_6rustdb7logging10checkpointNtB8_17CheckpointManager19wait_for_checkpoint00Bc_
FN:486,_RNCNCNvMs_NtNtCsioRnW7FrYT6_6rustdb7logging10checkpointNtB8_17CheckpointManager26create_shutdown_checkpoint00Bc_
FN:490,_RNCNCNvMs_NtNtCsioRnW7FrYT6_6rustdb7logging10checkpointNtB8_17CheckpointManager26create_shutdown_checkpoint0s_0Bc_
FN:494,_RNCNvMs_NtNtCsioRnW7FrYT6_6rustdb7logging10checkpointNtB6_17CheckpointManager14get_statistics0Ba_
FN:462,_RNCNvMs_NtNtCsioRnW7FrYT6_6rustdb7logging10checkpointNtB6_17CheckpointManager17create_checkpoint0Ba_
FN:509,_RNCNvMs_NtNtCsioRnW7FrYT6_6rustdb7logging10checkpointNtB6_17CheckpointManager19wait_for_checkpoint0Ba_
FN:478,_RNCNvMs_NtNtCsioRnW7FrYT6_6rustdb7logging10checkpointNtB6_17CheckpointManager26create_shutdown_checkpoint0Ba_
FN:518,_RNCNvMs_NtNtCsioRnW7FrYT6_6rustdb7logging10checkpointNtB6_17CheckpointManager8shutdown0Ba_
FN:259,_RNCNCNvMs_NtNtCsioRnW7FrYT6_6rustdb7logging10checkpointNtB8_17CheckpointManager21start_background_task00Bc_
FN:362,_RNCNCNvMs_NtNtCsioRnW7FrYT6_6rustdb7logging10checkpointNtB8_17CheckpointManager26create_checkpoint_internal00Bc_
FN:364,_RNCNCNvMs_NtNtCsioRnW7FrYT6_6rustdb7logging10checkpointNtB8_17CheckpointManager26create_checkpoint_internal0s_0Bc_
FN:442,_RNCNvMs_NtNtCsioRnW7FrYT6_6rustdb7logging10checkpointNtB6_17CheckpointManager17flush_dirty_pages0Ba_
FN:216,_RNCNvMs_NtNtCsioRnW7FrYT6_6rustdb7logging10checkpointNtB6_17CheckpointManager21start_background_task0Ba_
FN:329,_RNCNvMs_NtNtCsioRnW7FrYT6_6rustdb7logging10checkpointNtB6_17CheckpointManager26create_checkpoint_internal0Ba_
FN:295,_RNCNvMs_NtNtCsioRnW7FrYT6_6rustdb7logging10checkpointNtB6_17CheckpointManager27check_checkpoint_conditions0Ba_
FN:512,_RNCNCNvMs_NtNtCs9nxHbwgHRMj_6rustdb7logging10checkpointNtB8_17CheckpointManager19wait_for_checkpoint00Bc_
FN:509,_RNCNvMs_NtNtCs9nxHbwgHRMj_6rustdb7logging10checkpointNtB6_17CheckpointManager19wait_for_checkpoint0Ba_
FN:187,_RNvMs_NtNtCs9nxHbwgHRMj_6rustdb7logging10checkpointNtB4_17CheckpointManager16set_data_sources
FN:565,_RNvMs_NtNtCs9nxHbwgHRMj_6rustdb7logging10checkpointNtB4_17CheckpointManager17remove_dirty_page
FN:509,_RNvMs_NtNtCs9nxHbwgHRMj_6rustdb7logging10checkpointNtB4_17CheckpointManager19wait_for_checkpoint
FN:197,_RNvMs_NtNtCs9nxHbwgHRMj_6rustdb7logging10checkpointNtB4_17CheckpointManager22set_dirty_page_flusher
FN:552,_RNvMs_NtNtCs9nxHbwgHRMj_6rustdb7logging10checkpointNtB4_17CheckpointManager25remove_active_transaction
FN:560,_RNvMs_NtNtCs9nxHbwgHRMj_6rustdb7logging10checkpointNtB4_17CheckpointManager14add_dirty_page
FN:494,_RNvMs_NtNtCs9nxHbwgHRMj_6rustdb7logging10checkpointNtB4_17CheckpointManager14get_statistics
FN:462,_RNvMs_NtNtCs9nxHbwgHRMj_6rustdb7logging10checkpointNtB4_17CheckpointManager17create_checkpoint
FN:439,_RNvMs_NtNtCs9nxHbwgHRMj_6rustdb7logging10checkpointNtB4_17CheckpointManager17flush_dirty_pages
FN:539,_RNvMs_NtNtCs9nxHbwgHRMj_6rustdb7logging10checkpointNtB4_17CheckpointManager18update_dirty_pages
FN:202,_RNvMs_NtNtCs9nxHbwgHRMj_6rustdb7logging10checkpointNtB4_17CheckpointManager21start_background_task
FN:544,_RNvMs_NtNtCs9nxHbwgHRMj_6rustdb7logging10checkpointNtB4_17CheckpointManager22add_active_transaction
FN:320,_RNvMs_NtNtCs9nxHbwgHRMj_6rustdb7logging10checkpointNtB4_17CheckpointManager26create_checkpoint_internal
FN:478,_RNvMs_NtNtCs9nxHbwgHRMj_6rustdb7logging10checkpointNtB4_17CheckpointManager26create_shutdown_checkpoint
FN:534,_RNvMs_NtNtCs9nxHbwgHRMj_6rustdb7logging10checkpointNtB4_17CheckpointManager26update_active_transactions
FN:289,_RNvMs_NtNtCs9nxHbwgHRMj_6rustdb7logging10checkpointNtB4_17CheckpointManager27check_checkpoint_conditions
FN:164,_RNvMs_NtNtCs9nxHbwgHRMj_6rustdb7logging10checkpointNtB4_17CheckpointManager3new
FN:518,_RNvMs_NtNtCs9nxHbwgHRMj_6rustdb7logging10checkpointNtB4_17CheckpointManager8shutdown
FN:63,_RNvXNtNtCs9nxHbwgHRMj_6rustdb7logging10checkpointNtB2_16CheckpointConfigNtNtCsixiwFwjEgS7_4core7default7Default7default
FN:587,_RNvNtNtNtCs9nxHbwgHRMj_6rustdb7logging10checkpoint5tests30create_test_checkpoint_manager
FN:607,_RNvNtNtNtCs9nxHbwgHRMj_6rustdb7logging10checkpoint5testss_22test_manual_checkpoint
FN:676,_RNvNtNtNtCs9nxHbwgHRMj_6rustdb7logging10checkpoint5testss_24test_data_source_updates
FN:660,_RNvNtNtNtCs9nxHbwgHRMj_6rustdb7logging10checkpoint5testss_24test_shutdown_checkpoint
FN:643,_RNvNtNtNtCs9nxHbwgHRMj_6rustdb7logging10checkpoint5testss_26test_checkpoint_statistics
FN:601,_RNvNtNtNtCs9nxHbwgHRMj_6rustdb7logging10checkpoint5testss_32test_checkpoint_manager_creation
FN:620,_RNvNtNtNtCs9nxHbwgHRMj_6rustdb7logging10checkpoint5testss_33test_checkpoint_with_transactions
FN:574,_RNvXs0_NtNtCs9nxHbwgHRMj_6rustdb7logging10checkpointNtB5_17CheckpointManagerNtNtNtCsixiwFwjEgS7_4core3ops4drop4Drop4drop
FN:587,_RNCNvNtNtNtCs9nxHbwgHRMj_6rustdb7logging10checkpoint5tests30create_test_checkpoint_manager0B9_
FN:607,_RNCNvNtNtNtCs9nxHbwgHRMj_6rustdb7logging10checkpoint5testss_22test_manual_checkpoint0B9_
FN:676,_RNCNvNtNtNtCs9nxHbwgHRMj_6rustdb7logging10checkpoint5testss_24test_data_source_updates0B9_
FN:660,_RNCNvNtNtNtCs9nxHbwgHRMj_6rustdb7logging10checkpoint5testss_24test_shutdown_checkpoint0B9_
FN:643,_RNCNvNtNtNtCs9nxHbwgHRMj_6rustdb7logging10checkpoint5testss_26test_checkpoint_statistics0B9_
FN:601,_RNCNvNtNtNtCs9nxHbwgHRMj_6rustdb7logging10checkpoint5testss_32test_checkpoint_manager_creation0B9_
FN:620,_RNCNvNtNtNtCs9nxHbwgHRMj_6rustdb7logging10checkpoint5testss_33test_checkpoint_with_transactions0B9_
FN:470,_RNCNCNvMs_NtNtCs9nxHbwgHRMj_6rustdb7logging10checkpointNtB8_17CheckpointManager17create_checkpoint00Bc_
FN:474,_RNCNCNvMs_NtNtCs9nxHbwgHRMj_6rustdb7logging10checkpointNtB8_17CheckpointManager17create_checkpoint0s_0Bc_
FN:259,_RNCNCNvMs_NtNtCs9nxHbwgHRMj_6rustdb7logging10checkpointNtB8_17CheckpointManager21start_background_task00Bc_
FN:362,_RNCNCNvMs_NtNtCs9nxHbwgHRMj_6rustdb7logging10checkpointNtB8_17CheckpointManager26create_checkpoint_internal00Bc_
FN:364,_RNCNCNvMs_NtNtCs9nxHbwgHRMj_6rustdb7logging10checkpointNtB8_17CheckpointManager26create_checkpoint_internal0s_0Bc_
FN:486,_RNCNCNvMs_NtNtCs9nxHbwgHRMj_6rustdb7logging10checkpointNtB8_17CheckpointManager26create_shutdown_checkpoint00Bc_
FN:490,_RNCNCNvMs_NtNtCs9nxHbwgHRMj_6rustdb7logging10checkpointNtB8_17CheckpointManager26create_shutdown_checkpoint0s_0Bc_
FN:494,_RNCNvMs_NtNtCs9nxHbwgHRMj_6rustdb7logging10checkpointNtB6_17CheckpointManager14get_statistics0Ba_
FN:462,_RNCNvMs_NtNtCs9nxHbwgHRMj_6rustdb7logging10checkpointNtB6_17CheckpointManager17create_checkpoint0Ba_
FN:442,_RNCNvMs_NtNtCs9nxHbwgHRMj_6rustdb7logging10checkpointNtB6_17CheckpointManager17flush_dirty_pages0Ba_
FN:216,_RNCNvMs_NtNtCs9nxHbwgHRMj_6rustdb7logging10checkpointNtB6_17CheckpointManager21start_background_task0Ba_
FN:329,_RNCNvMs_NtNtCs9nxHbwgHRMj_6rustdb7logging10checkpointNtB6_17CheckpointManager26create_checkpoint_internal0Ba_
FN:478,_RNCNvMs_NtNtCs9nxHbwgHRMj_6rustdb7logging10checkpointNtB6_17CheckpointManager26create_shutdown_checkpoint0Ba_
FN:295,_RNCNvMs_NtNtCs9nxHbwgHRMj_6rustdb7logging10checkpointNtB6_17CheckpointManager27check_checkpoint_conditions0Ba_
FN:518,_RNCNvMs_NtNtCs9nxHbwgHRMj_6rustdb7logging10checkpointNtB6_17CheckpointManager8shutdown0Ba_
FNDA:0,_RNCNCNvMs_NtNtCsioRnW7FrYT6_6rustdb7logging10checkpointNtB8_17CheckpointManager17create_checkpoint00CslucG1Bzb3vH_17integration_tests
FNDA:0,_RNCNCNvMs_NtNtCsioRnW7FrYT6_6rustdb7logging10checkpointNtB8_17CheckpointManager17create_checkpoint0s_0CslucG1Bzb3vH_17integration_tests
FNDA:57,_RNCNvMs_NtNtCsioRnW7FrYT6_6rustdb7logging10checkpointNtB6_17CheckpointManager17create_checkpoint0CslucG1Bzb3vH_17integration_tests
FNDA:82,_RNvXs0_NtNtCsioRnW7FrYT6_6rustdb7logging10checkpointNtB5_17CheckpointManagerNtNtNtCsixiwFwjEgS7_4core3ops4drop4Drop4drop
FNDA:0,_RNvMs_NtNtCsioRnW7FrYT6_6rustdb7logging10checkpointNtB4_17CheckpointManager14add_dirty_page
FNDA:0,_RNvMs_NtNtCsioRnW7FrYT6_6rustdb7logging10checkpointNtB4_17CheckpointManager14get_statistics
FNDA:0,_RNvMs_NtNtCsioRnW7FrYT6_6rustdb7logging10checkpointNtB4_17CheckpointManager16set_data_sources
FNDA:57,_RNvMs_NtNtCsioRnW7FrYT6_6rustdb7logging10checkpointNtB4_17CheckpointManager17create_checkpoint
FNDA:71,_RNvMs_NtNtCsioRnW7FrYT6_6rustdb7logging10checkpointNtB4_17CheckpointManager17flush_dirty_pages
FNDA:0,_RNvMs_NtNtCsioRnW7FrYT6_6rustdb7logging10checkpointNtB4_17CheckpointManager17remove_dirty_page
FNDA:0,_RNvMs_NtNtCsioRnW7FrYT6_6rustdb7logging10checkpointNtB4_17CheckpointManager18update_dirty_pages
FNDA:0,_RNvMs_NtNtCsioRnW7FrYT6_6rustdb7logging10checkpointNtB4_17CheckpointManager19wait_for_checkpoint
FNDA:82,_RNvMs_NtNtCsioRnW7FrYT6_6rustdb7logging10checkpointNtB4_17CheckpointManager21start_background_task
FNDA:0,_RNvMs_NtNtCsioRnW7FrYT6_6rustdb7logging10checkpointNtB4_17CheckpointManager22add_active_transaction
FNDA:0,_RNvMs_NtNtCsioRnW7FrYT6_6rustdb7logging10checkpointNtB4_17CheckpointManager22set_dirty_page_flusher
FNDA:0,_RNvMs_NtNtCsioRnW7FrYT6_6rustdb7logging10checkpointNtB4_17CheckpointManager25remove_active_transaction
FNDA:71,_RNvMs_NtNtCsioRnW7FrYT6_6rustdb7logging10checkpointNtB4_17CheckpointManager26create_checkpoint_internal
FNDA:0,_RNvMs_NtNtCsioRnW7FrYT6_6rustdb7logging10checkpointNtB4_17CheckpointManager26create_shutdown_checkpoint
FNDA:0,_RNvMs_NtNtCsioRnW7FrYT6_6rustdb7logging10checkpointNtB4_17CheckpointManager26update_active_transactions
FNDA:14,_RNvMs_NtNtCsioRnW7FrYT6_6rustdb7logging10checkpointNtB4_17CheckpointManager27check_checkpoint_conditions
FNDA:82,_RNvMs_NtNtCsioRnW7FrYT6_6rustdb7logging10checkpointNtB4_17CheckpointManager3new
FNDA:0,_RNvMs_NtNtCsioRnW7FrYT6_6rustdb7logging10checkpointNtB4_17CheckpointManager8shutdown
FNDA:82,_RNvXNtNtCsioRnW7FrYT6_6rustdb7logging10checkpointNtB2_16CheckpointConfigNtNtCsixiwFwjEgS7_4core7default7Default7default
FNDA:0,_RNCNCNvMs_NtNtCsioRnW7FrYT6_6rustdb7logging10checkpointNtB8_17CheckpointManager17create_checkpoint00Bc_
FNDA:0,_RNCNCNvMs_NtNtCsioRnW7FrYT6_6rustdb7logging10checkpointNtB8_17CheckpointManager17create_checkpoint0s_0Bc_
FNDA:0,_RNCNCNvMs_NtNtCsioRnW7FrYT6_6rustdb7logging10checkpointNtB8_17CheckpointManager19wait_for_checkpoint00Bc_
FNDA:0,_RNCNCNvMs_NtNtCsioRnW7FrYT6_6rustdb7logging10checkpointNtB8_17CheckpointManager26create_shutdown_checkpoint00Bc_
FNDA:0,_RNCNCNvMs_NtNtCsioRnW7FrYT6_6rustdb7logging10checkpointNtB8_17CheckpointManager26create_shutdown_checkpoint0s_0Bc_
FNDA:0,_RNCNvMs_NtNtCsioRnW7FrYT6_6rustdb7logging10checkpointNtB6_17CheckpointManager14get_statistics0Ba_
FNDA:0,_RNCNvMs_NtNtCsioRnW7FrYT6_6rustdb7logging10checkpointNtB6_17CheckpointManager17create_checkpoint0Ba_
FNDA:0,_RNCNvMs_NtNtCsioRnW7FrYT6_6rustdb7logging10checkpointNtB6_17CheckpointManager19wait_for_checkpoint0Ba_
FNDA:0,_RNCNvMs_NtNtCsioRnW7FrYT6_6rustdb7logging10checkpointNtB6_17CheckpointManager26create_shutdown_checkpoint0Ba_
FNDA:0,_RNCNvMs_NtNtCsioRnW7FrYT6_6rustdb7logging10checkpointNtB6_17CheckpointManager8shutdown0Ba_
FNDA:89,_RNCNCNvMs_NtNtCsioRnW7FrYT6_6rustdb7logging10checkpointNtB8_17CheckpointManager21start_background_task00Bc_
FNDA:0,_RNCNCNvMs_NtNtCsioRnW7FrYT6_6rustdb7logging10checkpointNtB8_17CheckpointManager26create_checkpoint_internal00Bc_
FNDA:0,_RNCNCNvMs_NtNtCsioRnW7FrYT6_6rustdb7logging10checkpointNtB8_17CheckpointManager26create_checkpoint_internal0s_0Bc_
FNDA:71,_RNCNvMs_NtNtCsioRnW7FrYT6_6rustdb7logging10checkpointNtB6_17CheckpointManager17flush_dirty_pages0Ba_
FNDA:24,_RNCNvMs_NtNtCsioRnW7FrYT6_6rustdb7logging10checkpointNtB6_17CheckpointManager21start_background_task0Ba_
FNDA:71,_RNCNvMs_NtNtCsioRnW7FrYT6_6rustdb7logging10checkpointNtB6_17CheckpointManager26create_checkpoint_internal0Ba_
FNDA:14,_RNCNvMs_NtNtCsioRnW7FrYT6_6rustdb7logging10checkpointNtB6_17CheckpointManager27check_checkpoint_conditions0Ba_
FNDA:0,_RNCNCNvMs_NtNtCs9nxHbwgHRMj_6rustdb7logging10checkpointNtB8_17CheckpointManager19wait_for_checkpoint00Bc_
FNDA:0,_RNCNvMs_NtNtCs9nxHbwgHRMj_6rustdb7logging10checkpointNtB6_17CheckpointManager19wait_for_checkpoint0Ba_
FNDA:0,_RNvMs_NtNtCs9nxHbwgHRMj_6rustdb7logging10checkpointNtB4_17CheckpointManager16set_data_sources
FNDA:0,_RNvMs_NtNtCs9nxHbwgHRMj_6rustdb7logging10checkpointNtB4_17CheckpointManager17remove_dirty_page
FNDA:0,_RNvMs_NtNtCs9nxHbwgHRMj_6rustdb7logging10checkpointNtB4_17CheckpointManager19wait_for_checkpoint
FNDA:0,_RNvMs_NtNtCs9nxHbwgHRMj_6rustdb7logging10checkpointNtB4_17CheckpointManager22set_dirty_page_flusher
FNDA:0,_RNvMs_NtNtCs9nxHbwgHRMj_6rustdb7logging10checkpointNtB4_17CheckpointManager25remove_active_transaction
FNDA:3,_RNvMs_NtNtCs9nxHbwgHRMj_6rustdb7logging10checkpointNtB4_17CheckpointManager14add_dirty_page
FNDA:3,_RNvMs_NtNtCs9nxHbwgHRMj_6rustdb7logging10checkpointNtB4_17CheckpointManager14get_statistics
FNDA:14,_RNvMs_NtNtCs9nxHbwgHRMj_6rustdb7logging10checkpointNtB4_17CheckpointManager17create_checkpoint
FNDA:19,_RNvMs_NtNtCs9nxHbwgHRMj_6rustdb7logging10checkpointNtB4_17CheckpointManager17flush_dirty_pages
FNDA:1,_RNvMs_NtNtCs9nxHbwgHRMj_6rustdb7logging10checkpointNtB4_17CheckpointManager18update_dirty_pages
FNDA:23,_RNvMs_NtNtCs9nxHbwgHRMj_6rustdb7logging10checkpointNtB4_17CheckpointManager21start_background_task
FNDA:4,_RNvMs_NtNtCs9nxHbwgHRMj_6rustdb7logging10checkpointNtB4_17CheckpointManager22add_active_transaction
FNDA:19,_RNvMs_NtNtCs9nxHbwgHRMj_6rustdb7logging10checkpointNtB4_17CheckpointManager26create_checkpoint_internal
FNDA:2,_RNvMs_NtNtCs9nxHbwgHRMj_6rustdb7logging10checkpointNtB4_17CheckpointManager26create_shutdown_checkpoint
FNDA:1,_RNvMs_NtNtCs9nxHbwgHRMj_6rustdb7logging10checkpointNtB4_17CheckpointManager26update_active_transactions
FNDA:2,_RNvMs_NtNtCs9nxHbwgHRMj_6rustdb7logging10checkpointNtB4_17CheckpointManager27check_checkpoint_conditions
FNDA:23,_RNvMs_NtNtCs9nxHbwgHRMj_6rustdb7logging10checkpointNtB4_17CheckpointManager3new
FNDA:1,_RNvMs_NtNtCs9nxHbwgHRMj_6rustdb7logging10checkpointNtB4_17CheckpointManager8shutdown
FNDA:12,_RNvXNtNtCs9nxHbwgHRMj_6rustdb7logging10checkpointNtB2_16CheckpointConfigNtNtCsixiwFwjEgS7_4core7default7Default7default
FNDA:6,_RNvNtNtNtCs9nxHbwgHRMj_6rustdb7logging10checkpoint5tests30create_test_checkpoint_manager
FNDA:1,_RNvNtNtNtCs9nxHbwgHRMj_6rustdb7logging10checkpoint5testss_22test_manual_checkpoint
FNDA:1,_RNvNtNtNtCs9nxHbwgHRMj_6rustdb7logging10checkpoint5testss_24test_data_source_updates
FNDA:1,_RNvNtNtNtCs9nxHbwgHRMj_6rustdb7logging10checkpoint5testss_24test_shutdown_checkpoint
FNDA:1,_RNvNtNtNtCs9nxHbwgHRMj_6rustdb7logging10checkpoint5testss_26test_checkpoint_statistics
FNDA:1,_RNvNtNtNtCs9nxHbwgHRMj_6rustdb7logging10checkpoint5testss_32test_checkpoint_manager_creation
FNDA:1,_RNvNtNtNtCs9nxHbwgHRMj_6rustdb7logging10checkpoint5testss_33test_checkpoint_with_transactions
FNDA:23,_RNvXs0_NtNtCs9nxHbwgHRMj_6rustdb7logging10checkpointNtB5_17CheckpointManagerNtNtNtCsixiwFwjEgS7_4core3ops4drop4Drop4drop
FNDA:6,_RNCNvNtNtNtCs9nxHbwgHRMj_6rustdb7logging10checkpoint5tests30create_test_checkpoint_manager0B9_
FNDA:1,_RNCNvNtNtNtCs9nxHbwgHRMj_6rustdb7logging10checkpoint5testss_22test_manual_checkpoint0B9_
FNDA:1,_RNCNvNtNtNtCs9nxHbwgHRMj_6rustdb7logging10checkpoint5testss_24test_data_source_updates0B9_
FNDA:1,_RNCNvNtNtNtCs9nxHbwgHRMj_6rustdb7logging10checkpoint5testss_24test_shutdown_checkpoint0B9_
FNDA:1,_RNCNvNtNtNtCs9nxHbwgHRMj_6rustdb7logging10checkpoint5testss_26test_checkpoint_statistics0B9_
FNDA:1,_RNCNvNtNtNtCs9nxHbwgHRMj_6rustdb7logging10checkpoint5testss_32test_checkpoint_manager_creation0B9_
FNDA:1,_RNCNvNtNtNtCs9nxHbwgHRMj_6rustdb7logging10checkpoint5testss_33test_checkpoint_with_transactions0B9_
FNDA:0,_RNCNCNvMs_NtNtCs9nxHbwgHRMj_6rustdb7logging10checkpointNtB8_17CheckpointManager17create_checkpoint00Bc_
FNDA:0,_RNCNCNvMs_NtNtCs9nxHbwgHRMj_6rustdb7logging10checkpointNtB8_17CheckpointManager17create_checkpoint0s_0Bc_
FNDA:29,_RNCNCNvMs_NtNtCs9nxHbwgHRMj_6rustdb7logging10checkpointNtB8_17CheckpointManager21start_background_task00Bc_
FNDA:0,_RNCNCNvMs_NtNtCs9nxHbwgHRMj_6rustdb7logging10checkpointNtB8_17CheckpointManager26create_checkpoint_internal00Bc_
FNDA:0,_RNCNCNvMs_NtNtCs9nxHbwgHRMj_6rustdb7logging10checkpointNtB8_17CheckpointManager26create_checkpoint_internal0s_0Bc_
FNDA:0,_RNCNCNvMs_NtNtCs9nxHbwgHRMj_6rustdb7logging10checkpointNtB8_17CheckpointManager26create_shutdown_checkpoint00Bc_
FNDA:0,_RNCNCNvMs_NtNtCs9nxHbwgHRMj_6rustdb7logging10checkpointNtB8_17CheckpointManager26create_shutdown_checkpoint0s_0Bc_
FNDA:3,_RNCNvMs_NtNtCs9nxHbwgHRMj_6rustdb7logging10checkpointNtB6_17CheckpointManager14get_statistics0Ba_
FNDA:14,_RNCNvMs_NtNtCs9nxHbwgHRMj_6rustdb7logging10checkpointNtB6_17CheckpointManager17create_checkpoint0Ba_
FNDA:19,_RNCNvMs_NtNtCs9nxHbwgHRMj_6rustdb7logging10checkpointNtB6_17CheckpointManager17flush_dirty_pages0Ba_
FNDA:9,_RNCNvMs_NtNtCs9nxHbwgHRMj_6rustdb7logging10checkpointNtB6_17CheckpointManager21start_background_task0Ba_
FNDA:19,_RNCNvMs_NtNtCs9nxHbwgHRMj_6rustdb7logging10checkpointNtB6_17CheckpointManager26create_checkpoint_internal0Ba_
FNDA:2,_RNCNvMs_NtNtCs9nxHbwgHRMj_6rustdb7logging10checkpointNtB6_17CheckpointManager26create_shutdown_checkpoint0Ba_
FNDA:2,_RNCNvMs_NtNtCs9nxHbwgHRMj_6rustdb7logging10checkpointNtB6_17CheckpointManager27check_checkpoint_conditions0Ba_
FNDA:1,_RNCNvMs_NtNtCs9nxHbwgHRMj_6rustdb7logging10checkpointNtB6_17CheckpointManager8shutdown0Ba_
FNF:51
FNH:38
DA:63,94
DA:64,94
DA:65,94
DA:66,94
DA:67,94
DA:68,94
DA:69,94
DA:70,94
DA:71,94
DA:72,94
DA:73,94
DA:74,94
DA:164,105
DA:165,105
DA:167,105
DA:168,105
DA:169,105
DA:170,105
DA:171,105
DA:172,105
DA:173,105
DA:174,105
DA:175,105
DA:176,105
DA:177,105
DA:178,105
DA:181,105
DA:183,105
DA:184,105
DA:187,0
DA:188,0
DA:189,0
DA:190,0
DA:191,0
DA:192,0
DA:193,0
DA:194,0
DA:197,0
DA:198,0
DA:199,0
DA:202,105
DA:203,105
DA:204,105
DA:205,105
DA:206,105
DA:207,105
DA:208,105
DA:209,105
DA:210,105
DA:211,105
DA:212,105
DA:213,105
DA:214,105
DA:216,105
DA:217,33
DA:218,28
DA:220,5
DA:223,33
DA:226,160
DA:228,160
DA:229,94
DA:230,90
DA:231,90
DA:232,90
DA:233,90
DA:234,90
DA:235,90
DA:236,90
DA:237,90
DA:238,90
DA:239,90
DA:240,90
DA:242,86
DA:243,73
DA:244,73
DA:246,86
DA:248,3
DA:249,3
DA:250,3
DA:251,3
DA:253,1
DA:259,118
DA:260,118
DA:261,103
DA:262,15
DA:264,17
DA:265,17
DA:266,17
DA:267,17
DA:268,17
DA:269,17
DA:272,160
DA:273,21
DA:274,16
DA:275,16
DA:276,16
DA:277,16
DA:278,16
DA:279,16
DA:280,16
DA:281,5
DA:285,1
DA:286,105
DA:289,16
DA:290,16
DA:291,16
DA:292,16
DA:293,16
DA:294,16
DA:295,16
DA:296,16
DA:297,16
DA:298,16
DA:301,16
DA:302,0
DA:303,0
DA:304,0
DA:305,0
DA:306,16
DA:307,0
DA:308,0
DA:309,0
DA:310,0
DA:311,16
DA:312,0
DA:313,0
DA:314,0
DA:315,0
DA:316,16
DA:317,16
DA:320,90
DA:321,90
DA:322,90
DA:323,90
DA:324,90
DA:325,90
DA:326,90
DA:327,90
DA:328,90
DA:329,90
DA:330,90
DA:333,90
DA:334,90
DA:335,90
DA:336,90
DA:337,90
DA:340,90
DA:341,90
DA:346,90
DA:347,90
DA:348,90
DA:351,90
DA:352,90
DA:353,90
DA:356,90
DA:357,90
DA:360,90
DA:361,90
DA:362,0
DA:363,0
DA:364,0
DA:365,0
DA:367,90
DA:369,90
DA:372,90
DA:373,90
DA:375,90
DA:376,90
DA:377,90
DA:378,90
DA:381,90
DA:384,86
DA:386,86
DA:387,86
DA:388,86
DA:389,86
DA:390,86
DA:394,86
DA:397,86
DA:398,86
DA:399,86
DA:400,86
DA:401,86
DA:402,86
DA:403,86
DA:404,86
DA:405,86
DA:406,86
DA:410,86
DA:411,86
DA:412,86
DA:413,13
DA:414,71
DA:415,2
DA:416,0
DA:419,86
DA:420,86
DA:421,86
DA:422,86
DA:424,86
DA:425,86
DA:426,86
DA:427,86
DA:430,86
DA:431,86
DA:435,86
DA:436,86
DA:439,90
DA:440,90
DA:441,90
DA:442,90
DA:443,90
DA:446,90
DA:448,92
DA:450,2
DA:453,2
DA:455,2
DA:458,90
DA:459,90
DA:462,71
DA:463,71
DA:465,71
DA:466,71
DA:467,71
DA:468,71
DA:469,71
DA:470,71
DA:472,71
DA:473,71
DA:474,71
DA:475,71
DA:478,2
DA:479,2
DA:481,2
DA:482,2
DA:483,2
DA:484,2
DA:485,2
DA:486,2
DA:488,2
DA:489,2
DA:490,2
DA:491,2
DA:494,3
DA:495,3
DA:497,3
DA:498,3
DA:499,3
DA:500,3
DA:502,3
DA:504,0
DA:506,3
DA:509,0
DA:510,0
DA:511,0
DA:512,0
DA:514,0
DA:515,0
DA:518,1
DA:520,1
DA:523,1
DA:526,1
DA:527,1
DA:528,0
DA:530,1
DA:531,1
DA:534,1
DA:535,1
DA:536,1
DA:539,1
DA:540,1
DA:541,1
DA:544,4
DA:545,4
DA:546,4
DA:547,4
DA:548,4
DA:549,4
DA:552,0
DA:553,0
DA:554,0
DA:555,0
DA:556,0
DA:557,0
DA:560,3
DA:561,3
DA:562,3
DA:565,0
DA:566,0
DA:567,0
DA:568,0
DA:569,0
DA:570,0
DA:574,105
DA:575,105
DA:576,104
DA:577,104
DA:578,105
DA:587,6
DA:588,6
DA:589,6
DA:590,6
DA:592,6
DA:594,6
DA:595,6
DA:597,6
DA:598,6
DA:601,1
DA:602,1
DA:603,2
DA:604,1
DA:607,1
DA:608,1
DA:610,1
DA:612,1
DA:613,1
DA:614,1
DA:616,2
DA:617,1
DA:620,1
DA:621,1
DA:624,1
DA:625,1
DA:626,1
DA:629,1
DA:630,1
DA:631,1
DA:633,1
DA:635,1
DA:636,1
DA:637,1
DA:639,2
DA:640,1
DA:643,1
DA:644,1
DA:647,1
DA:648,1
DA:650,1
DA:652,1
DA:653,1
DA:654,1
DA:656,2
DA:657,1
DA:660,1
DA:661,1
DA:663,1
DA:665,1
DA:667,1
DA:668,1
DA:670,1
DA:672,2
DA:673,1
DA:676,1
DA:677,1
DA:680,1
DA:681,1
DA:682,1
DA:683,1
DA:686,1
DA:687,1
DA:688,1
DA:689,1
DA:691,1
DA:693,1
DA:694,1
DA:696,2
DA:697,1
BRF:0
BRH:0
LF:397
LH:341
end_of_record
SF:C:\Users\Admin\RustProjects\RustBD\src\logging\compaction.rs
FN:507,_RNvXs0_NtNtCsioRnW7FrYT6_6rustdb7logging10compactionNtB5_17CompactionManagerNtNtNtCsixiwFwjEgS7_4core3ops4drop4Drop4drop
FN:371,_RNCNCNvMs_NtNtCsioRnW7FrYT6_6rustdb7logging10compactionNtB8_17CompactionManager22compress_specific_file00Bc_
FN:376,_RNCNCNvMs_NtNtCsioRnW7FrYT6_6rustdb7logging10compactionNtB8_17CompactionManager22compress_specific_file0s_0Bc_
FN:470,_RNCNvMs_NtNtCsioRnW7FrYT6_6rustdb7logging10compactionNtB6_17CompactionManager16cleanup_old_logs0Ba_
FN:368,_RNCNvMs_NtNtCsioRnW7FrYT6_6rustdb7logging10compactionNtB6_17CompactionManager22compress_specific_file0Ba_
FN:348,_RNvMs_NtNtCsioRnW7FrYT6_6rustdb7logging10compactionNtB4_17CompactionManager11delete_file
FN:318,_RNvMs_NtNtCsioRnW7FrYT6_6rustdb7logging10compactionNtB4_17CompactionManager12archive_file
FN:119,_RNvMs_NtNtCsioRnW7FrYT6_6rustdb7logging10compactionNtB4_17CompactionManager12compact_logs
FN:439,_RNvMs_NtNtCsioRnW7FrYT6_6rustdb7logging10compactionNtB4_17CompactionManager13compress_data
FN:393,_RNvMs_NtNtCsioRnW7FrYT6_6rustdb7logging10compactionNtB4_17CompactionManager13compress_file
FN:270,_RNvMs_NtNtCsioRnW7FrYT6_6rustdb7logging10compactionNtB4_17CompactionManager14classify_files
FN:363,_RNvMs_NtNtCsioRnW7FrYT6_6rustdb7logging10compactionNtB4_17CompactionManager14get_statistics
FN:466,_RNvMs_NtNtCsioRnW7FrYT6_6rustdb7logging10compactionNtB4_17CompactionManager16cleanup_old_logs
FN:208,_RNvMs_NtNtCsioRnW7FrYT6_6rustdb7logging10compactionNtB4_17CompactionManager18discover_log_files
FN:499,_RNvMs_NtNtCsioRnW7FrYT6_6rustdb7logging10compactionNtB4_17CompactionManager20stop_auto_compaction
FN:97,_RNvMs_NtNtCsioRnW7FrYT6_6rustdb7logging10compactionNtB4_17CompactionManager21start_auto_compaction
FN:368,_RNvMs_NtNtCsioRnW7FrYT6_6rustdb7logging10compactionNtB4_17CompactionManager22compress_specific_file
FN:88,_RNvMs_NtNtCsioRnW7FrYT6_6rustdb7logging10compactionNtB4_17CompactionManager3new
FN:39,_RNvXNtNtCsioRnW7FrYT6_6rustdb7logging10compactionNtB2_16CompactionConfigNtNtCsixiwFwjEgS7_4core7default7Default7default
FN:355,_RNCNCNvMs_NtNtCsioRnW7FrYT6_6rustdb7logging10compactionNtB8_17CompactionManager11delete_file00Bc_
FN:323,_RNCNCNvMs_NtNtCsioRnW7FrYT6_6rustdb7logging10compactionNtB8_17CompactionManager12archive_file00Bc_
FN:339,_RNCNCNvMs_NtNtCsioRnW7FrYT6_6rustdb7logging10compactionNtB8_17CompactionManager12archive_file0s0_0Bc_
FN:332,_RNCNCNvMs_NtNtCsioRnW7FrYT6_6rustdb7logging10compactionNtB8_17CompactionManager12archive_file0s_0Bc_
FN:399,_RNCNCNvMs_NtNtCsioRnW7FrYT6_6rustdb7logging10compactionNtB8_17CompactionManager13compress_file00Bc_
FN:416,_RNCNCNvMs_NtNtCsioRnW7FrYT6_6rustdb7logging10compactionNtB8_17CompactionManager13compress_file0s0_0Bc_
FN:411,_RNCNCNvMs_NtNtCsioRnW7FrYT6_6rustdb7logging10compactionNtB8_17CompactionManager13compress_file0s_0Bc_
FN:217,_RNCNCNvMs_NtNtCsioRnW7FrYT6_6rustdb7logging10compactionNtB8_17CompactionManager18discover_log_files00Bc_
FN:226,_RNCNCNvMs_NtNtCsioRnW7FrYT6_6rustdb7logging10compactionNtB8_17CompactionManager18discover_log_files0s0_0Bc_
FN:227,_RNCNCNvMs_NtNtCsioRnW7FrYT6_6rustdb7logging10compactionNtB8_17CompactionManager18discover_log_files0s1_0Bc_
FN:231,_RNCNCNvMs_NtNtCsioRnW7FrYT6_6rustdb7logging10compactionNtB8_17CompactionManager18discover_log_files0s2_0Bc_
FN:236,_RNCNCNvMs_NtNtCsioRnW7FrYT6_6rustdb7logging10compactionNtB8_17CompactionManager18discover_log_files0s3_0Bc_
FN:256,_RNCNCNvMs_NtNtCsioRnW7FrYT6_6rustdb7logging10compactionNtB8_17CompactionManager18discover_log_files0s4_0Bc_
FN:222,_RNCNCNvMs_NtNtCsioRnW7FrYT6_6rustdb7logging10compactionNtB8_17CompactionManager18discover_log_files0s_0Bc_
FN:348,_RNCNvMs_NtNtCsioRnW7FrYT6_6rustdb7logging10compactionNtB6_17CompactionManager11delete_file0Ba_
FN:318,_RNCNvMs_NtNtCsioRnW7FrYT6_6rustdb7logging10compactionNtB6_17CompactionManager12archive_file0Ba_
FN:119,_RNCNvMs_NtNtCsioRnW7FrYT6_6rustdb7logging10compactionNtB6_17CompactionManager12compact_logs0Ba_
FN:393,_RNCNvMs_NtNtCsioRnW7FrYT6_6rustdb7logging10compactionNtB6_17CompactionManager13compress_file0Ba_
FN:208,_RNCNvMs_NtNtCsioRnW7FrYT6_6rustdb7logging10compactionNtB6_17CompactionManager18discover_log_files0Ba_
FN:104,_RNCNvMs_NtNtCsioRnW7FrYT6_6rustdb7logging10compactionNtB6_17CompactionManager21start_auto_compaction0Ba_
FN:355,_RNCNCNvMs_NtNtCs9nxHbwgHRMj_6rustdb7logging10compactionNtB8_17CompactionManager11delete_file00Bc_
FN:323,_RNCNCNvMs_NtNtCs9nxHbwgHRMj_6rustdb7logging10compactionNtB8_17CompactionManager12archive_file00Bc_
FN:339,_RNCNCNvMs_NtNtCs9nxHbwgHRMj_6rustdb7logging10compactionNtB8_17CompactionManager12archive_file0s0_0Bc_
FN:332,_RNCNCNvMs_NtNtCs9nxHbwgHRMj_6rustdb7logging10compactionNtB8_17CompactionManager12archive_file0s_0Bc_
FN:348,_RNCNvMs_NtNtCs9nxHbwgHRMj_6rustdb7logging10compactionNtB6_17CompactionManager11delete_file0Ba_
FN:318,_RNCNvMs_NtNtCs9nxHbwgHRMj_6rustdb7logging10compactionNtB6_17CompactionManager12archive_file0Ba_
FN:119,_RNCNvMs_NtNtCs9nxHbwgHRMj_6rustdb7logging10compactionNtB6_17CompactionManager12compact_logs0Ba_
FN:104,_RNCNvMs_NtNtCs9nxHbwgHRMj_6rustdb7logging10compactionNtB6_17CompactionManager21start_auto_compaction0Ba_
FN:348,_RNvMs_NtNtCs9nxHbwgHRMj_6rustdb7logging10compactionNtB4_17CompactionManager11delete_file
FN:318,_RNvMs_NtNtCs9nxHbwgHRMj_6rustdb7logging10compactionNtB4_17CompactionManager12archive_file
FN:119,_RNvMs_NtNtCs9nxHbwgHRMj_6rustdb7logging10compactionNtB4_17CompactionManager12compact_logs
FN:97,_RNvMs_NtNtCs9nxHbwgHRMj_6rustdb7logging10compactionNtB4_17CompactionManager21start_auto_compaction
FN:655,_RNvNtNtNtCs9nxHbwgHRMj_6rustdb7logging10compaction5testss_15test_statistics
FN:607,_RNvNtNtNtCs9nxHbwgHRMj_6rustdb7logging10compaction5testss_21test_cleanup_old_logs
FN:524,_RNvNtNtNtCs9nxHbwgHRMj_6rustdb7logging10compaction5testss_23test_discover_log_files
FN:546,_RNvNtNtNtCs9nxHbwgHRMj_6rustdb7logging10compaction5testss_24test_file_classification
FN:629,_RNvNtNtNtCs9nxHbwgHRMj_6rustdb7logging10compaction5testss_27test_compress_specific_file
FN:518,_RNvNtNtNtCs9nxHbwgHRMj_6rustdb7logging10compaction5testss_32test_compaction_manager_creation
FN:507,_RNvXs0_NtNtCs9nxHbwgHRMj_6rustdb7logging10compactionNtB5_17CompactionManagerNtNtNtCsixiwFwjEgS7_4core3ops4drop4Drop4drop
FN:399,_RNCNCNvMs_NtNtCs9nxHbwgHRMj_6rustdb7logging10compactionNtB8_17CompactionManager13compress_file00Bc_
FN:416,_RNCNCNvMs_NtNtCs9nxHbwgHRMj_6rustdb7logging10compactionNtB8_17CompactionManager13compress_file0s0_0Bc_
FN:411,_RNCNCNvMs_NtNtCs9nxHbwgHRMj_6rustdb7logging10compactionNtB8_17CompactionManager13compress_file0s_0Bc_
FN:217,_RNCNCNvMs_NtNtCs9nxHbwgHRMj_6rustdb7logging10compactionNtB8_17CompactionManager18discover_log_files00Bc_
FN:226,_RNCNCNvMs_NtNtCs9nxHbwgHRMj_6rustdb7logging10compactionNtB8_17CompactionManager18discover_log_files0s0_0Bc_
FN:227,_RNCNCNvMs_NtNtCs9nxHbwgHRMj_6rustdb7logging10compactionNtB8_17CompactionManager18discover_log_files0s1_0Bc_
FN:231,_RNCNCNvMs_NtNtCs9nxHbwgHRMj_6rustdb7logging10compactionNtB8_17CompactionManager18discover_log_files0s2_0Bc_
FN:236,_RNCNCNvMs_NtNtCs9nxHbwgHRMj_6rustdb7logging10compactionNtB8_17CompactionManager18discover_log_files0s3_0Bc_
FN:256,_RNCNCNvMs_NtNtCs9nxHbwgHRMj_6rustdb7logging10compactionNtB8_17CompactionManager18discover_log_files0s4_0Bc_
FN:222,_RNCNCNvMs_NtNtCs9nxHbwgHRMj_6rustdb7logging10compactionNtB8_17CompactionManager18discover_log_files0s_0Bc_
FN:371,_RNCNCNvMs_NtNtCs9nxHbwgHRMj_6rustdb7logging10compactionNtB8_17CompactionManager22compress_specific_file00Bc_
FN:376,_RNCNCNvMs_NtNtCs9nxHbwgHRMj_6rustdb7logging10compactionNtB8_17CompactionManager22compress_specific_file0s_0Bc_
FN:393,_RNCNvMs_NtNtCs9nxHbwgHRMj_6rustdb7logging10compactionNtB6_17CompactionManager13compress_file0Ba_
FN:470,_RNCNvMs_NtNtCs9nxHbwgHRMj_6rustdb7logging10compactionNtB6_17CompactionManager16cleanup_old_logs0Ba_
FN:208,_RNCNvMs_NtNtCs9nxHbwgHRMj_6rustdb7logging10compactionNtB6_17CompactionManager18discover_log_files0Ba_
FN:368,_RNCNvMs_NtNtCs9nxHbwgHRMj_6rustdb7logging10compactionNtB6_17CompactionManager22compress_specific_file0Ba_
FN:439,_RNvMs_NtNtCs9nxHbwgHRMj_6rustdb7logging10compactionNtB4_17CompactionManager13compress_data
FN:393,_RNvMs_NtNtCs9nxHbwgHRMj_6rustdb7logging10compactionNtB4_17CompactionManager13compress_file
FN:270,_RNvMs_NtNtCs9nxHbwgHRMj_6rustdb7logging10compactionNtB4_17CompactionManager14classify_files
FN:363,_RNvMs_NtNtCs9nxHbwgHRMj_6rustdb7logging10compactionNtB4_17CompactionManager14get_statistics
FN:466,_RNvMs_NtNtCs9nxHbwgHRMj_6rustdb7logging10compactionNtB4_17CompactionManager16cleanup_old_logs
FN:208,_RNvMs_NtNtCs9nxHbwgHRMj_6rustdb7logging10compactionNtB4_17CompactionManager18discover_log_files
FN:499,_RNvMs_NtNtCs9nxHbwgHRMj_6rustdb7logging10compactionNtB4_17CompactionManager20stop_auto_compaction
FN:368,_RNvMs_NtNtCs9nxHbwgHRMj_6rustdb7logging10compactionNtB4_17CompactionManager22compress_specific_file
FN:88,_RNvMs_NtNtCs9nxHbwgHRMj_6rustdb7logging10compactionNtB4_17CompactionManager3new
FN:39,_RNvXNtNtCs9nxHbwgHRMj_6rustdb7logging10compactionNtB2_16CompactionConfigNtNtCsixiwFwjEgS7_4core7default7Default7default
FN:539,_RNCNCNvNtNtNtCs9nxHbwgHRMj_6rustdb7logging10compaction5testss_23test_discover_log_files00Bb_
FN:540,_RNCNCNvNtNtNtCs9nxHbwgHRMj_6rustdb7logging10compaction5testss_23test_discover_log_files0s_0Bb_
FN:655,_RNCNvNtNtNtCs9nxHbwgHRMj_6rustdb7logging10compaction5testss_15test_statistics0B9_
FN:607,_RNCNvNtNtNtCs9nxHbwgHRMj_6rustdb7logging10compaction5testss_21test_cleanup_old_logs0B9_
FN:524,_RNCNvNtNtNtCs9nxHbwgHRMj_6rustdb7logging10compaction5testss_23test_discover_log_files0B9_
FN:546,_RNCNvNtNtNtCs9nxHbwgHRMj_6rustdb7logging10compaction5testss_24test_file_classification0B9_
FN:629,_RNCNvNtNtNtCs9nxHbwgHRMj_6rustdb7logging10compaction5testss_27test_compress_specific_file0B9_
FN:518,_RNCNvNtNtNtCs9nxHbwgHRMj_6rustdb7logging10compaction5testss_32test_compaction_manager_creation0B9_
FNDA:0,_RNvXs0_NtNtCsioRnW7FrYT6_6rustdb7logging10compactionNtB5_17CompactionManagerNtNtNtCsixiwFwjEgS7_4core3ops4drop4Drop4drop
FNDA:0,_RNCNCNvMs_NtNtCsioRnW7FrYT6_6rustdb7logging10compactionNtB8_17CompactionManager22compress_specific_file00Bc_
FNDA:0,_RNCNCNvMs_NtNtCsioRnW7FrYT6_6rustdb7logging10compactionNtB8_17CompactionManager22compress_specific_file0s_0Bc_
FNDA:0,_RNCNvMs_NtNtCsioRnW7FrYT6_6rustdb7logging10compactionNtB6_17CompactionManager16cleanup_old_logs0Ba_
FNDA:0,_RNCNvMs_NtNtCsioRnW7FrYT6_6rustdb7logging10compactionNtB6_17CompactionManager22compress_specific_file0Ba_
FNDA:0,_RNvMs_NtNtCsioRnW7FrYT6_6rustdb7logging10compactionNtB4_17CompactionManager11delete_file
FNDA:0,_RNvMs_NtNtCsioRnW7FrYT6_6rustdb7logging10compactionNtB4_17CompactionManager12archive_file
FNDA:0,_RNvMs_NtNtCsioRnW7FrYT6_6rustdb7logging10compactionNtB4_17CompactionManager12compact_logs
FNDA:0,_RNvMs_NtNtCsioRnW7FrYT6_6rustdb7logging10compactionNtB4_17CompactionManager13compress_data
FNDA:0,_RNvMs_NtNtCsioRnW7FrYT6_6rustdb7logging10compactionNtB4_17CompactionManager13compress_file
FNDA:0,_RNvMs_NtNtCsioRnW7FrYT6_6rustdb7logging10compactionNtB4_17CompactionManager14classify_files
FNDA:0,_RNvMs_NtNtCsioRnW7FrYT6_6rustdb7logging10compactionNtB4_17CompactionManager14get_statistics
FNDA:0,_RNvMs_NtNtCsioRnW7FrYT6_6rustdb7logging10compactionNtB4_17CompactionManager16cleanup_old_logs
FNDA:0,_RNvMs_NtNtCsioRnW7FrYT6_6rustdb7logging10compactionNtB4_17CompactionManager18discover_log_files
FNDA:0,_RNvMs_NtNtCsioRnW7FrYT6_6rustdb7logging10compactionNtB4_17CompactionManager20stop_auto_compaction
FNDA:0,_RNvMs_NtNtCsioRnW7FrYT6_6rustdb7logging10compactionNtB4_17CompactionManager21start_auto_compaction
FNDA:0,_RNvMs_NtNtCsioRnW7FrYT6_6rustdb7logging10compactionNtB4_17CompactionManager22compress_specific_file
FNDA:0,_RNvMs_NtNtCsioRnW7FrYT6_6rustdb7logging10compactionNtB4_17CompactionManager3new
FNDA:0,_RNvXNtNtCsioRnW7FrYT6_6rustdb7logging10compactionNtB2_16CompactionConfigNtNtCsixiwFwjEgS7_4core7default7Default7default
FNDA:0,_RNCNCNvMs_NtNtCsioRnW7FrYT6_6rustdb7logging10compactionNtB8_17CompactionManager11delete_file00Bc_
FNDA:0,_RNCNCNvMs_NtNtCsioRnW7FrYT6_6rustdb7logging10compactionNtB8_17CompactionManager12archive_file00Bc_
FNDA:0,_RNCNCNvMs_NtNtCsioRnW7FrYT6_6rustdb7logging10compactionNtB8_17CompactionManager12archive_file0s0_0Bc_
FNDA:0,_RNCNCNvMs_NtNtCsioRnW7FrYT6_6rustdb7logging10compactionNtB8_17CompactionManager12archive_file0s_0Bc_
FNDA:0,_RNCNCNvMs_NtNtCsioRnW7FrYT6_6rustdb7logging10compactionNtB8_17CompactionManager13compress_file00Bc_
FNDA:0,_RNCNCNvMs_NtNtCsioRnW7FrYT6_6rustdb7logging10compactionNtB8_17CompactionManager13compress_file0s0_0Bc_
FNDA:0,_RNCNCNvMs_NtNtCsioRnW7FrYT6_6rustdb7logging10compactionNtB8_17CompactionManager13compress_file0s_0Bc_
FNDA:0,_RNCNCNvMs_NtNtCsioRnW7FrYT6_6rustdb7logging10compactionNtB8_17CompactionManager18discover_log_files00Bc_
FNDA:0,_RNCNCNvMs_NtNtCsioRnW7FrYT6_6rustdb7logging10compactionNtB8_17CompactionManager18discover_log_files0s0_0Bc_
FNDA:0,_RNCNCNvMs_NtNtCsioRnW7FrYT6_6rustdb7logging10compactionNtB8_17CompactionManager18discover_log_files0s1_0Bc_
FNDA:0,_RNCNCNvMs_NtNtCsioRnW7FrYT6_6rustdb7logging10compactionNtB8_17CompactionManager18discover_log_files0s2_0Bc_
FNDA:0,_RNCNCNvMs_NtNtCsioRnW7FrYT6_6rustdb7logging10compactionNtB8_17CompactionManager18discover_log_files0s3_0Bc_
FNDA:0,_RNCNCNvMs_NtNtCsioRnW7FrYT6_6rustdb7logging10compactionNtB8_17CompactionManager18discover_log_files0s4_0Bc_
FNDA:0,_RNCNCNvMs_NtNtCsioRnW7FrYT6_6rustdb7logging10compactionNtB8_17CompactionManager18discover_log_files0s_0Bc_
FNDA:0,_RNCNvMs_NtNtCsioRnW7FrYT6_6rustdb7logging10compactionNtB6_17CompactionManager11delete_file0Ba_
FNDA:0,_RNCNvMs_NtNtCsioRnW7FrYT6_6rustdb7logging10compactionNtB6_17CompactionManager12archive_file0Ba_
FNDA:0,_RNCNvMs_NtNtCsioRnW7FrYT6_6rustdb7logging10compactionNtB6_17CompactionManager12compact_logs0Ba_
FNDA:0,_RNCNvMs_NtNtCsioRnW7FrYT6_6rustdb7logging10compactionNtB6_17CompactionManager13compress_file0Ba_
FNDA:0,_RNCNvMs_NtNtCsioRnW7FrYT6_6rustdb7logging10compactionNtB6_17CompactionManager18discover_log_files0Ba_
FNDA:0,_RNCNvMs_NtNtCsioRnW7FrYT6_6rustdb7logging10compactionNtB6_17CompactionManager21start_auto_compaction0Ba_
FNDA:0,_RNCNCNvMs_NtNtCs9nxHbwgHRMj_6rustdb7logging10compactionNtB8_17CompactionManager11delete_file00Bc_
FNDA:0,_RNCNCNvMs_NtNtCs9nxHbwgHRMj_6rustdb7logging10compactionNtB8_17CompactionManager12archive_file00Bc_
FNDA:0,_RNCNCNvMs_NtNtCs9nxHbwgHRMj_6rustdb7logging10compactionNtB8_17CompactionManager12archive_file0s0_0Bc_
FNDA:0,_RNCNCNvMs_NtNtCs9nxHbwgHRMj_6rustdb7logging10compactionNtB8_17CompactionManager12archive_file0s_0Bc_
FNDA:0,_RNCNvMs_NtNtCs9nxHbwgHRMj_6rustdb7logging10compactionNtB6_17CompactionManager11delete_file0Ba_
FNDA:0,_RNCNvMs_NtNtCs9nxHbwgHRMj_6rustdb7logging10compactionNtB6_17CompactionManager12archive_file0Ba_
FNDA:0,_RNCNvMs_NtNtCs9nxHbwgHRMj_6rustdb7logging10compactionNtB6_17CompactionManager12compact_logs0Ba_
FNDA:0,_RNCNvMs_NtNtCs9nxHbwgHRMj_6rustdb7logging10compactionNtB6_17CompactionManager21start_auto_compaction0Ba_
FNDA:0,_RNvMs_NtNtCs9nxHbwgHRMj_6rustdb7logging10compactionNtB4_17CompactionManager11delete_file
FNDA:0,_RNvMs_NtNtCs9nxHbwgHRMj_6rustdb7logging10compactionNtB4_17CompactionManager12archive_file
FNDA:0,_RNvMs_NtNtCs9nxHbwgHRMj_6rustdb7logging10compactionNtB4_17CompactionManager12compact_logs
FNDA:0,_RNvMs_NtNtCs9nxHbwgHRMj_6rustdb7logging10compactionNtB4_17CompactionManager21start_auto_compaction
FNDA:1,_RNvNtNtNtCs9nxHbwgHRMj_6rustdb7logging10compaction5testss_15test_statistics
FNDA:1,_RNvNtNtNtCs9nxHbwgHRMj_6rustdb7logging10compaction5testss_21test_cleanup_old_logs
FNDA:1,_RNvNtNtNtCs9nxHbwgHRMj_6rustdb7logging10compaction5testss_23test_discover_log_files
FNDA:1,_RNvNtNtNtCs9nxHbwgHRMj_6rustdb7logging10compaction5testss_24test_file_classification
FNDA:1,_RNvNtNtNtCs9nxHbwgHRMj_6rustdb7logging10compaction5testss_27test_compress_specific_file
FNDA:1,_RNvNtNtNtCs9nxHbwgHRMj_6rustdb7logging10compaction5testss_32test_compaction_manager_creation
FNDA:6,_RNvXs0_NtNtCs9nxHbwgHRMj_6rustdb7logging10compactionNtB5_17CompactionManagerNtNtNtCsixiwFwjEgS7_4core3ops4drop4Drop4drop
FNDA:0,_RNCNCNvMs_NtNtCs9nxHbwgHRMj_6rustdb7logging10compactionNtB8_17CompactionManager13compress_file00Bc_
FNDA:0,_RNCNCNvMs_NtNtCs9nxHbwgHRMj_6rustdb7logging10compactionNtB8_17CompactionManager13compress_file0s0_0Bc_
FNDA:0,_RNCNCNvMs_NtNtCs9nxHbwgHRMj_6rustdb7logging10compactionNtB8_17CompactionManager13compress_file0s_0Bc_
FNDA:0,_RNCNCNvMs_NtNtCs9nxHbwgHRMj_6rustdb7logging10compactionNtB8_17CompactionManager18discover_log_files00Bc_
FNDA:3,_RNCNCNvMs_NtNtCs9nxHbwgHRMj_6rustdb7logging10compactionNtB8_17CompactionManager18discover_log_files0s0_0Bc_
FNDA:1,_RNCNCNvMs_NtNtCs9nxHbwgHRMj_6rustdb7logging10compactionNtB8_17CompactionManager18discover_log_files0s1_0Bc_
FNDA:0,_RNCNCNvMs_NtNtCs9nxHbwgHRMj_6rustdb7logging10compactionNtB8_17CompactionManager18discover_log_files0s2_0Bc_
FNDA:3,_RNCNCNvMs_NtNtCs9nxHbwgHRMj_6rustdb7logging10compactionNtB8_17CompactionManager18discover_log_files0s3_0Bc_
FNDA:3,_RNCNCNvMs_NtNtCs9nxHbwgHRMj_6rustdb7logging10compactionNtB8_17CompactionManager18discover_log_files0s4_0Bc_
FNDA:0,_RNCNCNvMs_NtNtCs9nxHbwgHRMj_6rustdb7logging10compactionNtB8_17CompactionManager18discover_log_files0s_0Bc_
FNDA:0,_RNCNCNvMs_NtNtCs9nxHbwgHRMj_6rustdb7logging10compactionNtB8_17CompactionManager22compress_specific_file00Bc_
FNDA:2,_RNCNCNvMs_NtNtCs9nxHbwgHRMj_6rustdb7logging10compactionNtB8_17CompactionManager22compress_specific_file0s_0Bc_
FNDA:2,_RNCNvMs_NtNtCs9nxHbwgHRMj_6rustdb7logging10compactionNtB6_17CompactionManager13compress_file0Ba_
FNDA:1,_RNCNvMs_NtNtCs9nxHbwgHRMj_6rustdb7logging10compactionNtB6_17CompactionManager16cleanup_old_logs0Ba_
FNDA:2,_RNCNvMs_NtNtCs9nxHbwgHRMj_6rustdb7logging10compactionNtB6_17CompactionManager18discover_log_files0Ba_
FNDA:2,_RNCNvMs_NtNtCs9nxHbwgHRMj_6rustdb7logging10compactionNtB6_17CompactionManager22compress_specific_file0Ba_
FNDA:2,_RNvMs_NtNtCs9nxHbwgHRMj_6rustdb7logging10compactionNtB4_17CompactionManager13compress_data
FNDA:2,_RNvMs_NtNtCs9nxHbwgHRMj_6rustdb7logging10compactionNtB4_17CompactionManager13compress_file
FNDA:1,_RNvMs_NtNtCs9nxHbwgHRMj_6rustdb7logging10compactionNtB4_17CompactionManager14classify_files
FNDA:1,_RNvMs_NtNtCs9nxHbwgHRMj_6rustdb7logging10compactionNtB4_17CompactionManager14get_statistics
FNDA:1,_RNvMs_NtNtCs9nxHbwgHRMj_6rustdb7logging10compactionNtB4_17CompactionManager16cleanup_old_logs
FNDA:2,_RNvMs_NtNtCs9nxHbwgHRMj_6rustdb7logging10compactionNtB4_17CompactionManager18discover_log_files
FNDA:6,_RNvMs_NtNtCs9nxHbwgHRMj_6rustdb7logging10compactionNtB4_17CompactionManager20stop_auto_compaction
FNDA:2,_RNvMs_NtNtCs9nxHbwgHRMj_6rustdb7logging10compactionNtB4_17CompactionManager22compress_specific_file
FNDA:6,_RNvMs_NtNtCs9nxHbwgHRMj_6rustdb7logging10compactionNtB4_17CompactionManager3new
FNDA:6,_RNvXNtNtCs9nxHbwgHRMj_6rustdb7logging10compactionNtB2_16CompactionConfigNtNtCsixiwFwjEgS7_4core7default7Default7default
FNDA:1,_RNCNCNvNtNtNtCs9nxHbwgHRMj_6rustdb7logging10compaction5testss_23test_discover_log_files00Bb_
FNDA:2,_RNCNCNvNtNtNtCs9nxHbwgHRMj_6rustdb7logging10compaction5testss_23test_discover_log_files0s_0Bb_
FNDA:1,_RNCNvNtNtNtCs9nxHbwgHRMj_6rustdb7logging10compaction5testss_15test_statistics0B9_
FNDA:1,_RNCNvNtNtNtCs9nxHbwgHRMj_6rustdb7logging10compaction5testss_21test_cleanup_old_logs0B9_
FNDA:1,_RNCNvNtNtNtCs9nxHbwgHRMj_6rustdb7logging10compaction5testss_23test_discover_log_files0B9_
FNDA:1,_RNCNvNtNtNtCs9nxHbwgHRMj_6rustdb7logging10compaction5testss_24test_file_classification0B9_
FNDA:1,_RNCNvNtNtNtCs9nxHbwgHRMj_6rustdb7logging10compaction5testss_27test_compress_specific_file0B9_
FNDA:1,_RNCNvNtNtNtCs9nxHbwgHRMj_6rustdb7logging10compaction5testss_32test_compaction_manager_creation0B9_
FNF:53
FNH:34
DA:39,6
DA:40,6
DA:41,6
DA:42,6
DA:43,6
DA:44,6
DA:45,6
DA:46,6
DA:47,6
DA:48,6
DA:49,6
DA:50,6
DA:88,6
DA:89,6
DA:90,6
DA:91,6
DA:92,6
DA:93,6
DA:94,6
DA:97,0
DA:98,0
DA:99,0
DA:100,0
DA:102,0
DA:104,0
DA:105,0
DA:108,0
DA:110,0
DA:111,0
DA:112,0
DA:113,0
DA:116,0
DA:119,0
DA:120,0
DA:122,0
DA:123,0
DA:125,0
DA:126,0
DA:127,0
DA:128,0
DA:129,0
DA:132,0
DA:134,0
DA:135,0
DA:136,0
DA:139,0
DA:140,0
DA:141,0
DA:142,0
DA:143,0
DA:144,0
DA:145,0
DA:146,0
DA:147,0
DA:148,0
DA:149,0
DA:154,0
DA:155,0
DA:156,0
DA:157,0
DA:158,0
DA:159,0
DA:160,0
DA:161,0
DA:166,0
DA:167,0
DA:168,0
DA:169,0
DA:170,0
DA:171,0
DA:172,0
DA:173,0
DA:174,0
DA:179,0
DA:180,0
DA:181,0
DA:182,0
DA:183,0
DA:184,0
DA:186,0
DA:187,0
DA:188,0
DA:189,0
DA:191,0
DA:193,0
DA:194,0
DA:195,0
DA:198,0
DA:199,0
DA:202,0
DA:204,0
DA:205,0
DA:208,2
DA:209,2
DA:211,2
DA:212,0
DA:213,2
DA:215,2
DA:216,2
DA:217,2
DA:219,5
DA:220,5
DA:221,5
DA:222,5
DA:224,3
DA:226,3
DA:227,1
DA:229,3
DA:230,3
DA:231,3
DA:233,3
DA:234,3
DA:235,3
DA:236,3
DA:237,3
DA:238,3
DA:239,3
DA:240,3
DA:244,3
DA:245,3
DA:246,3
DA:247,3
DA:248,3
DA:249,3
DA:250,3
DA:251,3
DA:252,3
DA:253,3
DA:254,3
DA:255,3
DA:256,3
DA:259,3
DA:260,0
DA:264,2
DA:266,2
DA:267,2
DA:270,1
DA:271,1
DA:272,1
DA:273,1
DA:274,1
DA:275,1
DA:276,1
DA:277,1
DA:279,1
DA:280,1
DA:281,1
DA:282,1
DA:284,4
DA:285,3
DA:287,3
DA:288,1
DA:289,1
DA:290,2
DA:291,1
DA:292,1
DA:293,1
DA:294,1
DA:295,1
DA:296,1
DA:297,0
DA:298,0
DA:299,1
DA:303,1
DA:304,0
DA:305,0
DA:307,0
DA:308,0
DA:309,0
DA:310,0
DA:312,1
DA:314,1
DA:315,1
DA:318,0
DA:319,0
DA:320,0
DA:323,0
DA:324,0
DA:325,0
DA:327,0
DA:330,0
DA:331,0
DA:332,0
DA:333,0
DA:334,0
DA:337,0
DA:338,0
DA:339,0
DA:341,0
DA:342,0
DA:344,0
DA:345,0
DA:348,0
DA:349,0
DA:351,0
DA:353,0
DA:354,0
DA:355,0
DA:357,0
DA:359,0
DA:360,0
DA:363,1
DA:364,1
DA:365,1
DA:368,2
DA:369,2
DA:370,2
DA:371,2
DA:373,2
DA:374,2
DA:375,2
DA:376,2
DA:377,2
DA:378,2
DA:379,2
DA:380,2
DA:389,2
DA:390,2
DA:393,2
DA:394,2
DA:397,2
DA:398,2
DA:399,2
DA:401,2
DA:404,2
DA:405,2
DA:408,2
DA:409,2
DA:410,2
DA:411,2
DA:414,2
DA:415,2
DA:416,2
DA:419,2
DA:420,2
DA:421,2
DA:422,2
DA:424,2
DA:425,2
DA:426,2
DA:427,2
DA:429,2
DA:430,2
DA:431,2
DA:435,2
DA:436,2
DA:439,2
DA:441,2
DA:442,2
DA:443,2
DA:445,48
DA:447,48
DA:448,14
DA:449,34
DA:451,34
DA:452,32
DA:453,32
DA:454,32
DA:458,2
DA:459,0
DA:460,2
DA:462,2
DA:463,2
DA:466,1
DA:467,1
DA:468,1
DA:469,1
DA:470,1
DA:471,1
DA:472,1
DA:473,1
DA:474,1
DA:475,1
DA:477,1
DA:478,1
DA:480,2
DA:481,1
DA:482,1
DA:483,1
DA:484,1
DA:485,1
DA:486,1
DA:487,1
DA:488,0
DA:489,0
DA:490,0
DA:492,0
DA:495,1
DA:496,1
DA:499,6
DA:500,6
DA:501,0
DA:502,6
DA:503,6
DA:507,6
DA:508,6
DA:509,6
DA:518,1
DA:519,1
DA:520,1
DA:521,1
DA:524,1
DA:525,1
DA:526,1
DA:527,1
DA:530,1
DA:531,1
DA:533,1
DA:534,1
DA:536,1
DA:538,1
DA:539,1
DA:540,2
DA:542,2
DA:543,1
DA:546,1
DA:547,1
DA:548,1
DA:549,1
DA:550,1
DA:552,1
DA:554,1
DA:555,1
DA:556,1
DA:557,1
DA:559,1
DA:560,1
DA:561,1
DA:562,1
DA:563,1
DA:564,1
DA:565,1
DA:566,1
DA:567,1
DA:568,1
DA:569,1
DA:570,1
DA:571,1
DA:572,1
DA:573,1
DA:574,1
DA:575,1
DA:576,1
DA:577,1
DA:578,1
DA:579,1
DA:580,1
DA:581,1
DA:582,1
DA:583,1
DA:584,1
DA:585,1
DA:586,1
DA:587,1
DA:588,1
DA:589,1
DA:590,1
DA:591,1
DA:592,1
DA:595,1
DA:597,1
DA:598,1
DA:600,1
DA:601,1
DA:603,2
DA:604,1
DA:607,1
DA:608,1
DA:609,1
DA:610,1
DA:613,1
DA:614,1
DA:617,1
DA:620,1
DA:622,1
DA:623,1
DA:625,2
DA:626,1
DA:629,1
DA:630,1
DA:631,1
DA:632,1
DA:635,1
DA:636,1
DA:637,1
DA:639,1
DA:641,1
DA:642,1
DA:645,1
DA:648,1
DA:649,1
DA:651,2
DA:652,1
DA:655,1
DA:656,1
DA:657,1
DA:659,1
DA:660,1
DA:661,1
DA:663,1
DA:665,1
DA:666,1
DA:667,1
DA:668,1
DA:669,1
DA:670,1
DA:672,2
DA:673,1
BRF:0
BRH:0
LF:448
LH:314
end_of_record
SF:C:\Users\Admin\RustProjects\RustBD\src\logging\log_record.rs
FN:451,_RNvMNtNtCsioRnW7FrYT6_6rustdb7logging10log_recordNtB2_9LogRecord11description
FN:445,_RNvMNtNtCsioRnW7FrYT6_6rustdb7logging10log_recordNtB2_9LogRecord11deserialize
FN:428,_RNvMNtNtCsioRnW7FrYT6_6rustdb7logging10log_recordNtB2_9LogRecord12add_metadata
FN:434,_RNvMNtNtCsioRnW7FrYT6_6rustdb7logging10log_recordNtB2_9LogRecord12get_metadata
FN:513,_RNvMNtNtCsioRnW7FrYT6_6rustdb7logging10log_recordNtB2_9LogRecord14calculate_size
FN:371,_RNvMNtNtCsioRnW7FrYT6_6rustdb7logging10log_recordNtB2_9LogRecord14new_checkpoint
FN:341,_RNvMNtNtCsioRnW7FrYT6_6rustdb7logging10log_recordNtB2_9LogRecord15new_data_delete
FN:280,_RNvMNtNtCsioRnW7FrYT6_6rustdb7logging10log_recordNtB2_9LogRecord15new_data_insert
FN:310,_RNvMNtNtCsioRnW7FrYT6_6rustdb7logging10log_recordNtB2_9LogRecord15new_data_update
FN:617,_RNvMNtNtCsioRnW7FrYT6_6rustdb7logging10log_recordNtB2_9LogRecord15verify_checksum
FN:404,_RNvMNtNtCsioRnW7FrYT6_6rustdb7logging10log_recordNtB2_9LogRecord16is_transactional
FN:555,_RNvMNtNtCsioRnW7FrYT6_6rustdb7logging10log_recordNtB2_9LogRecord18calculate_checksum
FN:263,_RNvMNtNtCsioRnW7FrYT6_6rustdb7logging10log_recordNtB2_9LogRecord21new_transaction_abort
FN:211,_RNvMNtNtCsioRnW7FrYT6_6rustdb7logging10log_recordNtB2_9LogRecord21new_transaction_begin
FN:238,_RNvMNtNtCsioRnW7FrYT6_6rustdb7logging10log_recordNtB2_9LogRecord22new_transaction_commit
FN:417,_RNvMNtNtCsioRnW7FrYT6_6rustdb7logging10log_recordNtB2_9LogRecord24requires_immediate_flush
FN:611,_RNvMNtNtCsioRnW7FrYT6_6rustdb7logging10log_recordNtB2_9LogRecord24update_size_and_checksum
FN:182,_RNvMNtNtCsioRnW7FrYT6_6rustdb7logging10log_recordNtB2_9LogRecord3new
FN:399,_RNvMNtNtCsioRnW7FrYT6_6rustdb7logging10log_recordNtB2_9LogRecord4size
FN:439,_RNvMNtNtCsioRnW7FrYT6_6rustdb7logging10log_recordNtB2_9LogRecord9serialize
FN:678,_RNvMs0_NtNtCsioRnW7FrYT6_6rustdb7logging10log_recordNtB5_17LogRecordIterator11sort_by_lsn
FN:657,_RNvMs0_NtNtCsioRnW7FrYT6_6rustdb7logging10log_recordNtB5_17LogRecordIterator14filter_by_type
FN:671,_RNvMs0_NtNtCsioRnW7FrYT6_6rustdb7logging10log_recordNtB5_17LogRecordIterator20filter_by_time_range
FN:664,_RNvMs0_NtNtCsioRnW7FrYT6_6rustdb7logging10log_recordNtB5_17LogRecordIterator21filter_by_transaction
FN:649,_RNvMs0_NtNtCsioRnW7FrYT6_6rustdb7logging10log_recordNtB5_17LogRecordIterator3new
FN:684,_RNvMs0_NtNtCsioRnW7FrYT6_6rustdb7logging10log_recordNtB5_17LogRecordIterator5count
FN:692,_RNvXs1_NtNtCsioRnW7FrYT6_6rustdb7logging10log_recordNtB5_17LogRecordIteratorNtNtNtNtCsixiwFwjEgS7_4core4iter6traits8iterator8Iterator4next
FN:625,_RNvXs_NtNtCsioRnW7FrYT6_6rustdb7logging10log_recordNtB4_9LogRecordNtNtCsixiwFwjEgS7_4core7default7Default7default
FN:447,_RNCNvMNtNtCsioRnW7FrYT6_6rustdb7logging10log_recordNtB4_9LogRecord11deserialize0B8_
FN:533,_RNCNvMNtNtCsioRnW7FrYT6_6rustdb7logging10log_recordNtB4_9LogRecord14calculate_size0B8_
FN:534,_RNCNvMNtNtCsioRnW7FrYT6_6rustdb7logging10log_recordNtB4_9LogRecord14calculate_sizes_0B8_
FN:441,_RNCNvMNtNtCsioRnW7FrYT6_6rustdb7logging10log_recordNtB4_9LogRecord9serialize0B8_
FN:659,_RNCNvMs0_NtNtCsioRnW7FrYT6_6rustdb7logging10log_recordNtB7_17LogRecordIterator14filter_by_type0Bb_
FN:673,_RNCNvMs0_NtNtCsioRnW7FrYT6_6rustdb7logging10log_recordNtB7_17LogRecordIterator20filter_by_time_range0Bb_
FN:666,_RNCNvMs0_NtNtCsioRnW7FrYT6_6rustdb7logging10log_recordNtB7_17LogRecordIterator21filter_by_transaction0Bb_
FN:659,_RNCNvMs0_NtNtCs9nxHbwgHRMj_6rustdb7logging10log_recordNtB7_17LogRecordIterator14filter_by_type0Bb_
FN:673,_RNCNvMs0_NtNtCs9nxHbwgHRMj_6rustdb7logging10log_recordNtB7_17LogRecordIterator20filter_by_time_range0Bb_
FN:399,_RNvMNtNtCs9nxHbwgHRMj_6rustdb7logging10log_recordNtB2_9LogRecord4size
FN:678,_RNvMs0_NtNtCs9nxHbwgHRMj_6rustdb7logging10log_recordNtB5_17LogRecordIterator11sort_by_lsn
FN:657,_RNvMs0_NtNtCs9nxHbwgHRMj_6rustdb7logging10log_recordNtB5_17LogRecordIterator14filter_by_type
FN:671,_RNvMs0_NtNtCs9nxHbwgHRMj_6rustdb7logging10log_recordNtB5_17LogRecordIterator20filter_by_time_range
FN:684,_RNvMs0_NtNtCs9nxHbwgHRMj_6rustdb7logging10log_recordNtB5_17LogRecordIterator5count
FN:625,_RNvXs_NtNtCs9nxHbwgHRMj_6rustdb7logging10log_recordNtB4_9LogRecordNtNtCsixiwFwjEgS7_4core7default7Default7default
FN:447,_RNCNvMNtNtCs9nxHbwgHRMj_6rustdb7logging10log_recordNtB4_9LogRecord11deserialize0B8_
FN:533,_RNCNvMNtNtCs9nxHbwgHRMj_6rustdb7logging10log_recordNtB4_9LogRecord14calculate_size0B8_
FN:534,_RNCNvMNtNtCs9nxHbwgHRMj_6rustdb7logging10log_recordNtB4_9LogRecord14calculate_sizes_0B8_
FN:441,_RNCNvMNtNtCs9nxHbwgHRMj_6rustdb7logging10log_recordNtB4_9LogRecord9serialize0B8_
FN:666,_RNCNvMs0_NtNtCs9nxHbwgHRMj_6rustdb7logging10log_recordNtB7_17LogRecordIterator21filter_by_transaction0Bb_
FN:451,_RNvMNtNtCs9nxHbwgHRMj_6rustdb7logging10log_recordNtB2_9LogRecord11description
FN:445,_RNvMNtNtCs9nxHbwgHRMj_6rustdb7logging10log_recordNtB2_9LogRecord11deserialize
FN:428,_RNvMNtNtCs9nxHbwgHRMj_6rustdb7logging10log_recordNtB2_9LogRecord12add_metadata
FN:434,_RNvMNtNtCs9nxHbwgHRMj_6rustdb7logging10log_recordNtB2_9LogRecord12get_metadata
FN:513,_RNvMNtNtCs9nxHbwgHRMj_6rustdb7logging10log_recordNtB2_9LogRecord14calculate_size
FN:371,_RNvMNtNtCs9nxHbwgHRMj_6rustdb7logging10log_recordNtB2_9LogRecord14new_checkpoint
FN:341,_RNvMNtNtCs9nxHbwgHRMj_6rustdb7logging10log_recordNtB2_9LogRecord15new_data_delete
FN:280,_RNvMNtNtCs9nxHbwgHRMj_6rustdb7logging10log_recordNtB2_9LogRecord15new_data_insert
FN:310,_RNvMNtNtCs9nxHbwgHRMj_6rustdb7logging10log_recordNtB2_9LogRecord15new_data_update
FN:617,_RNvMNtNtCs9nxHbwgHRMj_6rustdb7logging10log_recordNtB2_9LogRecord15verify_checksum
FN:404,_RNvMNtNtCs9nxHbwgHRMj_6rustdb7logging10log_recordNtB2_9LogRecord16is_transactional
FN:555,_RNvMNtNtCs9nxHbwgHRMj_6rustdb7logging10log_recordNtB2_9LogRecord18calculate_checksum
FN:263,_RNvMNtNtCs9nxHbwgHRMj_6rustdb7logging10log_recordNtB2_9LogRecord21new_transaction_abort
FN:211,_RNvMNtNtCs9nxHbwgHRMj_6rustdb7logging10log_recordNtB2_9LogRecord21new_transaction_begin
FN:238,_RNvMNtNtCs9nxHbwgHRMj_6rustdb7logging10log_recordNtB2_9LogRecord22new_transaction_commit
FN:417,_RNvMNtNtCs9nxHbwgHRMj_6rustdb7logging10log_recordNtB2_9LogRecord24requires_immediate_flush
FN:611,_RNvMNtNtCs9nxHbwgHRMj_6rustdb7logging10log_recordNtB2_9LogRecord24update_size_and_checksum
FN:182,_RNvMNtNtCs9nxHbwgHRMj_6rustdb7logging10log_recordNtB2_9LogRecord3new
FN:439,_RNvMNtNtCs9nxHbwgHRMj_6rustdb7logging10log_recordNtB2_9LogRecord9serialize
FN:664,_RNvMs0_NtNtCs9nxHbwgHRMj_6rustdb7logging10log_recordNtB5_17LogRecordIterator21filter_by_transaction
FN:649,_RNvMs0_NtNtCs9nxHbwgHRMj_6rustdb7logging10log_recordNtB5_17LogRecordIterator3new
FN:692,_RNvXs1_NtNtCs9nxHbwgHRMj_6rustdb7logging10log_recordNtB5_17LogRecordIteratorNtNtNtNtCsixiwFwjEgS7_4core4iter6traits8iterator8Iterator4next
FN:769,_RNvNtNtNtCs9nxHbwgHRMj_6rustdb7logging10log_record5testss_13test_metadata
FN:745,_RNvNtNtNtCs9nxHbwgHRMj_6rustdb7logging10log_record5testss_18test_serialization
FN:719,_RNvNtNtNtCs9nxHbwgHRMj_6rustdb7logging10log_record5testss_20test_data_operations
FN:784,_RNvNtNtNtCs9nxHbwgHRMj_6rustdb7logging10log_record5testss_20test_record_iterator
FN:736,_RNvNtNtNtCs9nxHbwgHRMj_6rustdb7logging10log_record5testss_22test_checkpoint_record
FN:708,_RNvNtNtNtCs9nxHbwgHRMj_6rustdb7logging10log_record5testss_24test_log_record_creation
FN:804,_RNvNtNtNtCs9nxHbwgHRMj_6rustdb7logging10log_record5testss_24test_record_descriptions
FN:757,_RNvNtNtNtCs9nxHbwgHRMj_6rustdb7logging10log_record5testss_26test_checksum_verification
FNDA:0,_RNvMNtNtCsioRnW7FrYT6_6rustdb7logging10log_recordNtB2_9LogRecord11description
FNDA:0,_RNvMNtNtCsioRnW7FrYT6_6rustdb7logging10log_recordNtB2_9LogRecord11deserialize
FNDA:0,_RNvMNtNtCsioRnW7FrYT6_6rustdb7logging10log_recordNtB2_9LogRecord12add_metadata
FNDA:0,_RNvMNtNtCsioRnW7FrYT6_6rustdb7logging10log_recordNtB2_9LogRecord12get_metadata
FNDA:85,_RNvMNtNtCsioRnW7FrYT6_6rustdb7logging10log_recordNtB2_9LogRecord14calculate_size
FNDA:85,_RNvMNtNtCsioRnW7FrYT6_6rustdb7logging10log_recordNtB2_9LogRecord14new_checkpoint
FNDA:0,_RNvMNtNtCsioRnW7FrYT6_6rustdb7logging10log_recordNtB2_9LogRecord15new_data_delete
FNDA:0,_RNvMNtNtCsioRnW7FrYT6_6rustdb7logging10log_recordNtB2_9LogRecord15new_data_insert
FNDA:0,_RNvMNtNtCsioRnW7FrYT6_6rustdb7logging10log_recordNtB2_9LogRecord15new_data_update
FNDA:0,_RNvMNtNtCsioRnW7FrYT6_6rustdb7logging10log_recordNtB2_9LogRecord15verify_checksum
FNDA:0,_RNvMNtNtCsioRnW7FrYT6_6rustdb7logging10log_recordNtB2_9LogRecord16is_transactional
FNDA:85,_RNvMNtNtCsioRnW7FrYT6_6rustdb7logging10log_recordNtB2_9LogRecord18calculate_checksum
FNDA:0,_RNvMNtNtCsioRnW7FrYT6_6rustdb7logging10log_recordNtB2_9LogRecord21new_transaction_abort
FNDA:0,_RNvMNtNtCsioRnW7FrYT6_6rustdb7logging10log_recordNtB2_9LogRecord21new_transaction_begin
FNDA:0,_RNvMNtNtCsioRnW7FrYT6_6rustdb7logging10log_recordNtB2_9LogRecord22new_transaction_commit
FNDA:0,_RNvMNtNtCsioRnW7FrYT6_6rustdb7logging10log_recordNtB2_9LogRecord24requires_immediate_flush
FNDA:85,_RNvMNtNtCsioRnW7FrYT6_6rustdb7logging10log_recordNtB2_9LogRecord24update_size_and_checksum
FNDA:85,_RNvMNtNtCsioRnW7FrYT6_6rustdb7logging10log_recordNtB2_9LogRecord3new
FNDA:0,_RNvMNtNtCsioRnW7FrYT6_6rustdb7logging10log_recordNtB2_9LogRecord4size
FNDA:164,_RNvMNtNtCsioRnW7FrYT6_6rustdb7logging10log_recordNtB2_9LogRecord9serialize
FNDA:0,_RNvMs0_NtNtCsioRnW7FrYT6_6rustdb7logging10log_recordNtB5_17LogRecordIterator11sort_by_lsn
FNDA:0,_RNvMs0_NtNtCsioRnW7FrYT6_6rustdb7logging10log_recordNtB5_17LogRecordIterator14filter_by_type
FNDA:0,_RNvMs0_NtNtCsioRnW7FrYT6_6rustdb7logging10log_recordNtB5_17LogRecordIterator20filter_by_time_range
FNDA:0,_RNvMs0_NtNtCsioRnW7FrYT6_6rustdb7logging10log_recordNtB5_17LogRecordIterator21filter_by_transaction
FNDA:0,_RNvMs0_NtNtCsioRnW7FrYT6_6rustdb7logging10log_recordNtB5_17LogRecordIterator3new
FNDA:0,_RNvMs0_NtNtCsioRnW7FrYT6_6rustdb7logging10log_recordNtB5_17LogRecordIterator5count
FNDA:0,_RNvXs1_NtNtCsioRnW7FrYT6_6rustdb7logging10log_recordNtB5_17LogRecordIteratorNtNtNtNtCsixiwFwjEgS7_4core4iter6traits8iterator8Iterator4next
FNDA:0,_RNvXs_NtNtCsioRnW7FrYT6_6rustdb7logging10log_recordNtB4_9LogRecordNtNtCsixiwFwjEgS7_4core7default7Default7default
FNDA:0,_RNCNvMNtNtCsioRnW7FrYT6_6rustdb7logging10log_recordNtB4_9LogRecord11deserialize0B8_
FNDA:0,_RNCNvMNtNtCsioRnW7FrYT6_6rustdb7logging10log_recordNtB4_9LogRecord14calculate_size0B8_
FNDA:0,_RNCNvMNtNtCsioRnW7FrYT6_6rustdb7logging10log_recordNtB4_9LogRecord14calculate_sizes_0B8_
FNDA:0,_RNCNvMNtNtCsioRnW7FrYT6_6rustdb7logging10log_recordNtB4_9LogRecord9serialize0B8_
FNDA:0,_RNCNvMs0_NtNtCsioRnW7FrYT6_6rustdb7logging10log_recordNtB7_17LogRecordIterator14filter_by_type0Bb_
FNDA:0,_RNCNvMs0_NtNtCsioRnW7FrYT6_6rustdb7logging10log_recordNtB7_17LogRecordIterator20filter_by_time_range0Bb_
FNDA:0,_RNCNvMs0_NtNtCsioRnW7FrYT6_6rustdb7logging10log_recordNtB7_17LogRecordIterator21filter_by_transaction0Bb_
FNDA:0,_RNCNvMs0_NtNtCs9nxHbwgHRMj_6rustdb7logging10log_recordNtB7_17LogRecordIterator14filter_by_type0Bb_
FNDA:0,_RNCNvMs0_NtNtCs9nxHbwgHRMj_6rustdb7logging10log_recordNtB7_17LogRecordIterator20filter_by_time_range0Bb_
FNDA:0,_RNvMNtNtCs9nxHbwgHRMj_6rustdb7logging10log_recordNtB2_9LogRecord4size
FNDA:0,_RNvMs0_NtNtCs9nxHbwgHRMj_6rustdb7logging10log_recordNtB5_17LogRecordIterator11sort_by_lsn
FNDA:0,_RNvMs0_NtNtCs9nxHbwgHRMj_6rustdb7logging10log_recordNtB5_17LogRecordIterator14filter_by_type
FNDA:0,_RNvMs0_NtNtCs9nxHbwgHRMj_6rustdb7logging10log_recordNtB5_17LogRecordIterator20filter_by_time_range
FNDA:0,_RNvMs0_NtNtCs9nxHbwgHRMj_6rustdb7logging10log_recordNtB5_17LogRecordIterator5count
FNDA:0,_RNvXs_NtNtCs9nxHbwgHRMj_6rustdb7logging10log_recordNtB4_9LogRecordNtNtCsixiwFwjEgS7_4core7default7Default7default
FNDA:0,_RNCNvMNtNtCs9nxHbwgHRMj_6rustdb7logging10log_recordNtB4_9LogRecord11deserialize0B8_
FNDA:8,_RNCNvMNtNtCs9nxHbwgHRMj_6rustdb7logging10log_recordNtB4_9LogRecord14calculate_size0B8_
FNDA:28,_RNCNvMNtNtCs9nxHbwgHRMj_6rustdb7logging10log_recordNtB4_9LogRecord14calculate_sizes_0B8_
FNDA:0,_RNCNvMNtNtCs9nxHbwgHRMj_6rustdb7logging10log_recordNtB4_9LogRecord9serialize0B8_
FNDA:4,_RNCNvMs0_NtNtCs9nxHbwgHRMj_6rustdb7logging10log_recordNtB7_17LogRecordIterator21filter_by_transaction0Bb_
FNDA:3,_RNvMNtNtCs9nxHbwgHRMj_6rustdb7logging10log_recordNtB2_9LogRecord11description
FNDA:1,_RNvMNtNtCs9nxHbwgHRMj_6rustdb7logging10log_recordNtB2_9LogRecord11deserialize
FNDA:2,_RNvMNtNtCs9nxHbwgHRMj_6rustdb7logging10log_recordNtB2_9LogRecord12add_metadata
FNDA:3,_RNvMNtNtCs9nxHbwgHRMj_6rustdb7logging10log_recordNtB2_9LogRecord12get_metadata
FNDA:162,_RNvMNtNtCs9nxHbwgHRMj_6rustdb7logging10log_recordNtB2_9LogRecord14calculate_size
FNDA:30,_RNvMNtNtCs9nxHbwgHRMj_6rustdb7logging10log_recordNtB2_9LogRecord14new_checkpoint
FNDA:4,_RNvMNtNtCs9nxHbwgHRMj_6rustdb7logging10log_recordNtB2_9LogRecord15new_data_delete
FNDA:24,_RNvMNtNtCs9nxHbwgHRMj_6rustdb7logging10log_recordNtB2_9LogRecord15new_data_insert
FNDA:4,_RNvMNtNtCs9nxHbwgHRMj_6rustdb7logging10log_recordNtB2_9LogRecord15new_data_update
FNDA:2,_RNvMNtNtCs9nxHbwgHRMj_6rustdb7logging10log_recordNtB2_9LogRecord15verify_checksum
FNDA:2,_RNvMNtNtCs9nxHbwgHRMj_6rustdb7logging10log_recordNtB2_9LogRecord16is_transactional
FNDA:164,_RNvMNtNtCs9nxHbwgHRMj_6rustdb7logging10log_recordNtB2_9LogRecord18calculate_checksum
FNDA:4,_RNvMNtNtCs9nxHbwgHRMj_6rustdb7logging10log_recordNtB2_9LogRecord21new_transaction_abort
FNDA:36,_RNvMNtNtCs9nxHbwgHRMj_6rustdb7logging10log_recordNtB2_9LogRecord21new_transaction_begin
FNDA:22,_RNvMNtNtCs9nxHbwgHRMj_6rustdb7logging10log_recordNtB2_9LogRecord22new_transaction_commit
FNDA:174,_RNvMNtNtCs9nxHbwgHRMj_6rustdb7logging10log_recordNtB2_9LogRecord24requires_immediate_flush
FNDA:162,_RNvMNtNtCs9nxHbwgHRMj_6rustdb7logging10log_recordNtB2_9LogRecord24update_size_and_checksum
FNDA:124,_RNvMNtNtCs9nxHbwgHRMj_6rustdb7logging10log_recordNtB2_9LogRecord3new
FNDA:391,_RNvMNtNtCs9nxHbwgHRMj_6rustdb7logging10log_recordNtB2_9LogRecord9serialize
FNDA:1,_RNvMs0_NtNtCs9nxHbwgHRMj_6rustdb7logging10log_recordNtB5_17LogRecordIterator21filter_by_transaction
FNDA:1,_RNvMs0_NtNtCs9nxHbwgHRMj_6rustdb7logging10log_recordNtB5_17LogRecordIterator3new
FNDA:4,_RNvXs1_NtNtCs9nxHbwgHRMj_6rustdb7logging10log_recordNtB5_17LogRecordIteratorNtNtNtNtCsixiwFwjEgS7_4core4iter6traits8iterator8Iterator4next
FNDA:1,_RNvNtNtNtCs9nxHbwgHRMj_6rustdb7logging10log_record5testss_13test_metadata
FNDA:1,_RNvNtNtNtCs9nxHbwgHRMj_6rustdb7logging10log_record5testss_18test_serialization
FNDA:1,_RNvNtNtNtCs9nxHbwgHRMj_6rustdb7logging10log_record5testss_20test_data_operations
FNDA:1,_RNvNtNtNtCs9nxHbwgHRMj_6rustdb7logging10log_record5testss_20test_record_iterator
FNDA:1,_RNvNtNtNtCs9nxHbwgHRMj_6rustdb7logging10log_record5testss_22test_checkpoint_record
FNDA:1,_RNvNtNtNtCs9nxHbwgHRMj_6rustdb7logging10log_record5testss_24test_log_record_creation
FNDA:1,_RNvNtNtNtCs9nxHbwgHRMj_6rustdb7logging10log_record5testss_24test_record_descriptions
FNDA:1,_RNvNtNtNtCs9nxHbwgHRMj_6rustdb7logging10log_record5testss_26test_checksum_verification
FNF:43
FNH:33
DA:182,209
DA:183,209
DA:184,209
DA:185,209
DA:186,209
DA:187,209
DA:188,209
DA:189,209
DA:190,209
DA:192,209
DA:193,209
DA:194,209
DA:195,209
DA:196,209
DA:197,209
DA:198,209
DA:199,209
DA:200,209
DA:201,209
DA:202,209
DA:203,209
DA:206,209
DA:207,209
DA:208,209
DA:211,36
DA:212,36
DA:213,36
DA:214,36
DA:215,36
DA:216,36
DA:217,36
DA:218,36
DA:219,36
DA:220,36
DA:221,36
DA:222,36
DA:223,36
DA:224,36
DA:226,36
DA:227,36
DA:228,36
DA:229,36
DA:231,36
DA:232,36
DA:233,36
DA:234,36
DA:235,36
DA:238,22
DA:239,22
DA:240,22
DA:241,22
DA:242,22
DA:243,22
DA:244,22
DA:245,22
DA:246,22
DA:247,22
DA:248,22
DA:249,22
DA:251,22
DA:252,22
DA:253,22
DA:254,22
DA:256,22
DA:257,22
DA:258,22
DA:259,22
DA:260,22
DA:263,4
DA:264,4
DA:265,4
DA:266,4
DA:267,4
DA:268,4
DA:269,4
DA:270,4
DA:271,4
DA:273,4
DA:274,4
DA:275,4
DA:276,4
DA:277,4
DA:280,24
DA:281,24
DA:282,24
DA:283,24
DA:284,24
DA:285,24
DA:286,24
DA:287,24
DA:288,24
DA:289,24
DA:290,24
DA:291,24
DA:292,24
DA:293,24
DA:294,24
DA:295,24
DA:296,24
DA:298,24
DA:299,24
DA:300,24
DA:301,24
DA:303,24
DA:304,24
DA:305,24
DA:306,24
DA:307,24
DA:310,4
DA:311,4
DA:312,4
DA:313,4
DA:314,4
DA:315,4
DA:316,4
DA:317,4
DA:318,4
DA:319,4
DA:320,4
DA:321,4
DA:322,4
DA:323,4
DA:324,4
DA:325,4
DA:326,4
DA:327,4
DA:329,4
DA:330,4
DA:331,4
DA:332,4
DA:334,4
DA:335,4
DA:336,4
DA:337,4
DA:338,4
DA:341,4
DA:342,4
DA:343,4
DA:344,4
DA:345,4
DA:346,4
DA:347,4
DA:348,4
DA:349,4
DA:350,4
DA:351,4
DA:352,4
DA:353,4
DA:354,4
DA:355,4
DA:356,4
DA:357,4
DA:359,4
DA:360,4
DA:361,4
DA:362,4
DA:364,4
DA:365,4
DA:366,4
DA:367,4
DA:368,4
DA:371,115
DA:372,115
DA:373,115
DA:374,115
DA:375,115
DA:376,115
DA:377,115
DA:378,115
DA:379,115
DA:380,115
DA:381,115
DA:382,115
DA:383,115
DA:384,115
DA:385,115
DA:386,115
DA:387,115
DA:389,115
DA:390,115
DA:391,115
DA:392,115
DA:394,115
DA:395,115
DA:396,115
DA:399,0
DA:400,0
DA:401,0
DA:404,2
DA:405,0
DA:406,2
DA:414,2
DA:417,174
DA:418,171
DA:419,174
DA:424,171
DA:425,174
DA:428,2
DA:429,2
DA:430,2
DA:431,2
DA:434,3
DA:435,3
DA:436,3
DA:439,555
DA:440,555
DA:441,555
DA:442,555
DA:445,1
DA:446,1
DA:447,1
DA:448,1
DA:451,3
DA:452,3
DA:454,1
DA:457,0
DA:460,0
DA:463,1
DA:464,1
DA:465,1
DA:469,0
DA:473,0
DA:474,0
DA:475,0
DA:479,0
DA:483,0
DA:484,0
DA:485,0
DA:489,0
DA:493,1
DA:494,1
DA:495,1
DA:497,1
DA:500,0
DA:503,0
DA:504,0
DA:505,0
DA:506,0
DA:507,0
DA:508,0
DA:510,3
DA:513,247
DA:516,247
DA:517,247
DA:518,247
DA:519,247
DA:520,247
DA:521,247
DA:522,247
DA:523,247
DA:525,247
DA:526,96
DA:527,96
DA:528,96
DA:529,96
DA:531,32
DA:532,32
DA:533,32
DA:534,32
DA:536,115
DA:537,115
DA:538,115
DA:539,115
DA:541,0
DA:542,0
DA:545,4
DA:546,0
DA:549,247
DA:551,247
DA:552,247
DA:555,249
DA:559,249
DA:562,249
DA:563,249
DA:564,249
DA:565,249
DA:566,249
DA:567,249
DA:568,249
DA:571,249
DA:572,98
DA:573,98
DA:574,98
DA:575,98
DA:576,98
DA:577,98
DA:578,32
DA:579,32
DA:580,32
DA:581,32
DA:582,32
DA:583,32
DA:584,32
DA:585,32
DA:586,115
DA:587,115
DA:588,115
DA:589,115
DA:590,115
DA:591,115
DA:592,115
DA:593,0
DA:594,0
DA:595,0
DA:596,0
DA:598,0
DA:599,0
DA:600,0
DA:601,0
DA:603,4
DA:604,0
DA:607,249
DA:608,249
DA:611,247
DA:612,247
DA:613,247
DA:614,247
DA:617,2
DA:618,2
DA:619,2
DA:620,2
DA:621,2
DA:625,0
DA:626,0
DA:627,0
DA:628,0
DA:629,0
DA:630,0
DA:631,0
DA:632,0
DA:633,0
DA:634,0
DA:635,0
DA:636,0
DA:637,0
DA:638,0
DA:649,1
DA:650,1
DA:651,1
DA:652,1
DA:653,1
DA:654,1
DA:657,0
DA:658,0
DA:659,0
DA:660,0
DA:661,0
DA:664,1
DA:665,1
DA:666,4
DA:667,1
DA:668,1
DA:671,0
DA:672,0
DA:673,0
DA:674,0
DA:675,0
DA:678,0
DA:679,0
DA:680,0
DA:681,0
DA:684,0
DA:685,0
DA:686,0
DA:692,4
DA:693,4
DA:694,3
DA:695,3
DA:696,3
DA:698,1
DA:700,4
DA:708,1
DA:709,1
DA:711,1
DA:712,1
DA:713,1
DA:714,1
DA:715,1
DA:716,1
DA:719,1
DA:720,1
DA:722,1
DA:723,1
DA:725,1
DA:726,1
DA:728,1
DA:730,1
DA:732,1
DA:733,1
DA:736,1
DA:737,1
DA:739,1
DA:740,1
DA:741,1
DA:742,1
DA:745,1
DA:746,1
DA:748,1
DA:749,1
DA:751,1
DA:752,1
DA:753,1
DA:754,1
DA:757,1
DA:758,1
DA:761,1
DA:764,1
DA:765,1
DA:766,1
DA:769,1
DA:770,1
DA:772,1
DA:773,1
DA:775,1
DA:776,1
DA:777,1
DA:778,1
DA:780,1
DA:781,1
DA:784,1
DA:785,1
DA:786,1
DA:787,1
DA:788,1
DA:789,1
DA:792,1
DA:795,1
DA:797,1
DA:798,1
DA:799,1
DA:800,1
DA:801,1
DA:804,1
DA:805,1
DA:806,1
DA:808,1
DA:809,1
DA:810,1
DA:814,1
DA:815,1
DA:816,1
DA:819,1
BRF:0
BRH:0
LF:449
LH:380
end_of_record
SF:C:\Users\Admin\RustProjects\RustBD\src\logging\log_writer.rs
FN:876,_RNvXs2_NtNtCsioRnW7FrYT6_6rustdb7logging10log_writerNtB5_9LogWriterNtNtNtCsixiwFwjEgS7_4core3ops4drop4Drop4drop
FN:72,_RNvMNtNtCsioRnW7FrYT6_6rustdb7logging10log_writerNtB2_15LogWriterConfig15high_throughput
FN:84,_RNvMNtNtCsioRnW7FrYT6_6rustdb7logging10log_writerNtB2_15LogWriterConfig7durable
FN:168,_RNvMs0_NtNtCsioRnW7FrYT6_6rustdb7logging10log_writerNtB5_12DoubleBuffer14take_for_flush
FN:163,_RNvMs0_NtNtCsioRnW7FrYT6_6rustdb7logging10log_writerNtB5_12DoubleBuffer3len
FN:152,_RNvMs0_NtNtCsioRnW7FrYT6_6rustdb7logging10log_writerNtB5_12DoubleBuffer3new
FN:159,_RNvMs0_NtNtCsioRnW7FrYT6_6rustdb7logging10log_writerNtB5_12DoubleBuffer4push
FN:800,_RNvMs1_NtNtCsioRnW7FrYT6_6rustdb7logging10log_writerNtB5_9LogWriter11current_lsn
FN:792,_RNvMs1_NtNtCsioRnW7FrYT6_6rustdb7logging10log_writerNtB5_9LogWriter12generate_lsn
FN:816,_RNvMs1_NtNtCsioRnW7FrYT6_6rustdb7logging10log_writerNtB5_9LogWriter13get_log_files
FN:806,_RNvMs1_NtNtCsioRnW7FrYT6_6rustdb7logging10log_writerNtB5_9LogWriter14get_statistics
FN:866,_RNvMs1_NtNtCsioRnW7FrYT6_6rustdb7logging10log_writerNtB5_9LogWriter14needs_rotation
FN:735,_RNvMs1_NtNtCsioRnW7FrYT6_6rustdb7logging10log_writerNtB5_9LogWriter14write_log_sync
FN:821,_RNvMs1_NtNtCsioRnW7FrYT6_6rustdb7logging10log_writerNtB5_9LogWriter15rotate_log_file
FN:335,_RNvMs1_NtNtCsioRnW7FrYT6_6rustdb7logging10log_writerNtB5_9LogWriter16analyze_log_file
FN:846,_RNvMs1_NtNtCsioRnW7FrYT6_6rustdb7logging10log_writerNtB5_9LogWriter16cleanup_old_logs
FN:832,_RNvMs1_NtNtCsioRnW7FrYT6_6rustdb7logging10log_writerNtB5_9LogWriter16verify_integrity
FN:558,_RNvMs1_NtNtCsioRnW7FrYT6_6rustdb7logging10log_writerNtB5_9LogWriter18flush_write_buffer
FN:861,_RNvMs1_NtNtCsioRnW7FrYT6_6rustdb7logging10log_writerNtB5_9LogWriter18get_total_log_size
FN:454,_RNvMs1_NtNtCsioRnW7FrYT6_6rustdb7logging10log_writerNtB5_9LogWriter19notify_sync_waiters
FN:462,_RNvMs1_NtNtCsioRnW7FrYT6_6rustdb7logging10log_writerNtB5_9LogWriter20handle_write_request
FN:811,_RNvMs1_NtNtCsioRnW7FrYT6_6rustdb7logging10log_writerNtB5_9LogWriter21get_current_file_info
FN:605,_RNvMs1_NtNtCsioRnW7FrYT6_6rustdb7logging10log_writerNtB5_9LogWriter21write_records_to_file
FN:372,_RNvMs1_NtNtCsioRnW7FrYT6_6rustdb7logging10log_writerNtB5_9LogWriter22start_background_tasks
FN:293,_RNvMs1_NtNtCsioRnW7FrYT6_6rustdb7logging10log_writerNtB5_9LogWriter23load_existing_log_files
FN:244,_RNvMs1_NtNtCsioRnW7FrYT6_6rustdb7logging10log_writerNtB5_9LogWriter3new
FN:774,_RNvMs1_NtNtCsioRnW7FrYT6_6rustdb7logging10log_writerNtB5_9LogWriter5flush
FN:708,_RNvMs1_NtNtCsioRnW7FrYT6_6rustdb7logging10log_writerNtB5_9LogWriter9write_log
FN:95,_RNvXs_NtNtCsioRnW7FrYT6_6rustdb7logging10log_writerNtB4_15LogWriterConfigNtNtCsixiwFwjEgS7_4core7default7Default7default
FN:750,_RNCNCNvMs1_NtNtCsioRnW7FrYT6_6rustdb7logging10log_writerNtB9_9LogWriter14write_log_sync00Bd_
FN:768,_RNCNCNvMs1_NtNtCsioRnW7FrYT6_6rustdb7logging10log_writerNtB9_9LogWriter14write_log_sync0s0_0Bd_
FN:764,_RNCNCNvMs1_NtNtCsioRnW7FrYT6_6rustdb7logging10log_writerNtB9_9LogWriter14write_log_sync0s_0Bd_
FN:575,_RNCNCNvMs1_NtNtCsioRnW7FrYT6_6rustdb7logging10log_writerNtB9_9LogWriter18flush_write_buffer00Bd_
FN:621,_RNCNCNvMs1_NtNtCsioRnW7FrYT6_6rustdb7logging10log_writerNtB9_9LogWriter21write_records_to_file00Bd_
FN:735,_RNCNvMs1_NtNtCsioRnW7FrYT6_6rustdb7logging10log_writerNtB7_9LogWriter14write_log_sync0Bb_
FN:337,_RNCNvMs1_NtNtCsioRnW7FrYT6_6rustdb7logging10log_writerNtB7_9LogWriter16analyze_log_file0Bb_
FN:365,_RNCNvMs1_NtNtCsioRnW7FrYT6_6rustdb7logging10log_writerNtB7_9LogWriter16analyze_log_files0_0Bb_
FN:341,_RNCNvMs1_NtNtCsioRnW7FrYT6_6rustdb7logging10log_writerNtB7_9LogWriter16analyze_log_files_0Bb_
FN:563,_RNCNvMs1_NtNtCsioRnW7FrYT6_6rustdb7logging10log_writerNtB7_9LogWriter18flush_write_buffer0Bb_
FN:472,_RNCNvMs1_NtNtCsioRnW7FrYT6_6rustdb7logging10log_writerNtB7_9LogWriter20handle_write_request0Bb_
FN:619,_RNCNvMs1_NtNtCsioRnW7FrYT6_6rustdb7logging10log_writerNtB7_9LogWriter21write_records_to_file0Bb_
FN:646,_RNCNvMs1_NtNtCsioRnW7FrYT6_6rustdb7logging10log_writerNtB7_9LogWriter21write_records_to_files0_0Bb_
FN:661,_RNCNvMs1_NtNtCsioRnW7FrYT6_6rustdb7logging10log_writerNtB7_9LogWriter21write_records_to_files1_0Bb_
FN:666,_RNCNvMs1_NtNtCsioRnW7FrYT6_6rustdb7logging10log_writerNtB7_9LogWriter21write_records_to_files2_0Bb_
FN:677,_RNCNvMs1_NtNtCsioRnW7FrYT6_6rustdb7logging10log_writerNtB7_9LogWriter21write_records_to_files3_0Bb_
FN:689,_RNCNvMs1_NtNtCsioRnW7FrYT6_6rustdb7logging10log_writerNtB7_9LogWriter21write_records_to_files4_0Bb_
FN:696,_RNCNvMs1_NtNtCsioRnW7FrYT6_6rustdb7logging10log_writerNtB7_9LogWriter21write_records_to_files5_0Bb_
FN:701,_RNCNvMs1_NtNtCsioRnW7FrYT6_6rustdb7logging10log_writerNtB7_9LogWriter21write_records_to_files6_0Bb_
FN:626,_RNCNvMs1_NtNtCsioRnW7FrYT6_6rustdb7logging10log_writerNtB7_9LogWriter21write_records_to_files_0Bb_
FN:384,_RNCNvMs1_NtNtCsioRnW7FrYT6_6rustdb7logging10log_writerNtB7_9LogWriter22start_background_tasks0Bb_
FN:434,_RNCNvMs1_NtNtCsioRnW7FrYT6_6rustdb7logging10log_writerNtB7_9LogWriter22start_background_taskss0_0Bb_
FN:409,_RNCNvMs1_NtNtCsioRnW7FrYT6_6rustdb7logging10log_writerNtB7_9LogWriter22start_background_taskss_0Bb_
FN:299,_RNCNvMs1_NtNtCsioRnW7FrYT6_6rustdb7logging10log_writerNtB7_9LogWriter23load_existing_log_files0Bb_
FN:307,_RNCNvMs1_NtNtCsioRnW7FrYT6_6rustdb7logging10log_writerNtB7_9LogWriter23load_existing_log_filess0_0Bb_
FN:302,_RNCNvMs1_NtNtCsioRnW7FrYT6_6rustdb7logging10log_writerNtB7_9LogWriter23load_existing_log_filess_0Bb_
FN:248,_RNCNvMs1_NtNtCsioRnW7FrYT6_6rustdb7logging10log_writerNtB7_9LogWriter3new0Bb_
FN:774,_RNCNvMs1_NtNtCsioRnW7FrYT6_6rustdb7logging10log_writerNtB7_9LogWriter5flush0Bb_
FN:724,_RNCNCNvMs1_NtNtCsioRnW7FrYT6_6rustdb7logging10log_writerNtB9_9LogWriter9write_log00Bd_
FN:728,_RNCNCNvMs1_NtNtCsioRnW7FrYT6_6rustdb7logging10log_writerNtB9_9LogWriter9write_log0s_0Bd_
FN:821,_RNCNvMs1_NtNtCsioRnW7FrYT6_6rustdb7logging10log_writerNtB7_9LogWriter15rotate_log_file0Bb_
FN:846,_RNCNvMs1_NtNtCsioRnW7FrYT6_6rustdb7logging10log_writerNtB7_9LogWriter16cleanup_old_logs0Bb_
FN:832,_RNCNvMs1_NtNtCsioRnW7FrYT6_6rustdb7logging10log_writerNtB7_9LogWriter16verify_integrity0Bb_
FN:708,_RNCNvMs1_NtNtCsioRnW7FrYT6_6rustdb7logging10log_writerNtB7_9LogWriter9write_log0Bb_
FN:821,_RNCNvMs1_NtNtCs9nxHbwgHRMj_6rustdb7logging10log_writerNtB7_9LogWriter15rotate_log_file0Bb_
FN:846,_RNCNvMs1_NtNtCs9nxHbwgHRMj_6rustdb7logging10log_writerNtB7_9LogWriter16cleanup_old_logs0Bb_
FN:832,_RNCNvMs1_NtNtCs9nxHbwgHRMj_6rustdb7logging10log_writerNtB7_9LogWriter16verify_integrity0Bb_
FN:72,_RNvMNtNtCs9nxHbwgHRMj_6rustdb7logging10log_writerNtB2_15LogWriterConfig15high_throughput
FN:84,_RNvMNtNtCs9nxHbwgHRMj_6rustdb7logging10log_writerNtB2_15LogWriterConfig7durable
FN:866,_RNvMs1_NtNtCs9nxHbwgHRMj_6rustdb7logging10log_writerNtB5_9LogWriter14needs_rotation
FN:821,_RNvMs1_NtNtCs9nxHbwgHRMj_6rustdb7logging10log_writerNtB5_9LogWriter15rotate_log_file
FN:846,_RNvMs1_NtNtCs9nxHbwgHRMj_6rustdb7logging10log_writerNtB5_9LogWriter16cleanup_old_logs
FN:832,_RNvMs1_NtNtCs9nxHbwgHRMj_6rustdb7logging10log_writerNtB5_9LogWriter16verify_integrity
FN:811,_RNvMs1_NtNtCs9nxHbwgHRMj_6rustdb7logging10log_writerNtB5_9LogWriter21get_current_file_info
FN:907,_RNvNtNtNtCs9nxHbwgHRMj_6rustdb7logging10log_writer5testss_14test_write_log
FN:995,_RNvNtNtNtCs9nxHbwgHRMj_6rustdb7logging10log_writer5testss_15test_statistics
FN:974,_RNvNtNtNtCs9nxHbwgHRMj_6rustdb7logging10log_writer5testss_19test_lsn_generation
FN:927,_RNvNtNtNtCs9nxHbwgHRMj_6rustdb7logging10log_writer5testss_19test_write_log_sync
FN:948,_RNvNtNtNtCs9nxHbwgHRMj_6rustdb7logging10log_writer5testss_20test_multiple_writes
FN:1045,_RNvNtNtNtCs9nxHbwgHRMj_6rustdb7logging10log_writer5testss_22test_buffer_management
FN:897,_RNvNtNtNtCs9nxHbwgHRMj_6rustdb7logging10log_writer5testss_24test_log_writer_creation
FN:907,_RNCNvNtNtNtCs9nxHbwgHRMj_6rustdb7logging10log_writer5testss_14test_write_log0B9_
FN:995,_RNCNvNtNtNtCs9nxHbwgHRMj_6rustdb7logging10log_writer5testss_15test_statistics0B9_
FN:974,_RNCNvNtNtNtCs9nxHbwgHRMj_6rustdb7logging10log_writer5testss_19test_lsn_generation0B9_
FN:927,_RNCNvNtNtNtCs9nxHbwgHRMj_6rustdb7logging10log_writer5testss_19test_write_log_sync0B9_
FN:948,_RNCNvNtNtNtCs9nxHbwgHRMj_6rustdb7logging10log_writer5testss_20test_multiple_writes0B9_
FN:1045,_RNCNvNtNtNtCs9nxHbwgHRMj_6rustdb7logging10log_writer5testss_22test_buffer_management0B9_
FN:897,_RNCNvNtNtNtCs9nxHbwgHRMj_6rustdb7logging10log_writer5testss_24test_log_writer_creation0B9_
FN:168,_RNvMs0_NtNtCs9nxHbwgHRMj_6rustdb7logging10log_writerNtB5_12DoubleBuffer14take_for_flush
FN:163,_RNvMs0_NtNtCs9nxHbwgHRMj_6rustdb7logging10log_writerNtB5_12DoubleBuffer3len
FN:152,_RNvMs0_NtNtCs9nxHbwgHRMj_6rustdb7logging10log_writerNtB5_12DoubleBuffer3new
FN:159,_RNvMs0_NtNtCs9nxHbwgHRMj_6rustdb7logging10log_writerNtB5_12DoubleBuffer4push
FN:800,_RNvMs1_NtNtCs9nxHbwgHRMj_6rustdb7logging10log_writerNtB5_9LogWriter11current_lsn
FN:792,_RNvMs1_NtNtCs9nxHbwgHRMj_6rustdb7logging10log_writerNtB5_9LogWriter12generate_lsn
FN:816,_RNvMs1_NtNtCs9nxHbwgHRMj_6rustdb7logging10log_writerNtB5_9LogWriter13get_log_files
FN:806,_RNvMs1_NtNtCs9nxHbwgHRMj_6rustdb7logging10log_writerNtB5_9LogWriter14get_statistics
FN:735,_RNvMs1_NtNtCs9nxHbwgHRMj_6rustdb7logging10log_writerNtB5_9LogWriter14write_log_sync
FN:335,_RNvMs1_NtNtCs9nxHbwgHRMj_6rustdb7logging10log_writerNtB5_9LogWriter16analyze_log_file
FN:558,_RNvMs1_NtNtCs9nxHbwgHRMj_6rustdb7logging10log_writerNtB5_9LogWriter18flush_write_buffer
FN:861,_RNvMs1_NtNtCs9nxHbwgHRMj_6rustdb7logging10log_writerNtB5_9LogWriter18get_total_log_size
FN:454,_RNvMs1_NtNtCs9nxHbwgHRMj_6rustdb7logging10log_writerNtB5_9LogWriter19notify_sync_waiters
FN:462,_RNvMs1_NtNtCs9nxHbwgHRMj_6rustdb7logging10log_writerNtB5_9LogWriter20handle_write_request
FN:605,_RNvMs1_NtNtCs9nxHbwgHRMj_6rustdb7logging10log_writerNtB5_9LogWriter21write_records_to_file
FN:372,_RNvMs1_NtNtCs9nxHbwgHRMj_6rustdb7logging10log_writerNtB5_9LogWriter22start_background_tasks
FN:293,_RNvMs1_NtNtCs9nxHbwgHRMj_6rustdb7logging10log_writerNtB5_9LogWriter23load_existing_log_files
FN:244,_RNvMs1_NtNtCs9nxHbwgHRMj_6rustdb7logging10log_writerNtB5_9LogWriter3new
FN:774,_RNvMs1_NtNtCs9nxHbwgHRMj_6rustdb7logging10log_writerNtB5_9LogWriter5flush
FN:708,_RNvMs1_NtNtCs9nxHbwgHRMj_6rustdb7logging10log_writerNtB5_9LogWriter9write_log
FN:95,_RNvXs_NtNtCs9nxHbwgHRMj_6rustdb7logging10log_writerNtB4_15LogWriterConfigNtNtCsixiwFwjEgS7_4core7default7Default7default
FN:876,_RNvXs2_NtNtCs9nxHbwgHRMj_6rustdb7logging10log_writerNtB5_9LogWriterNtNtNtCsixiwFwjEgS7_4core3ops4drop4Drop4drop
FN:750,_RNCNCNvMs1_NtNtCs9nxHbwgHRMj_6rustdb7logging10log_writerNtB9_9LogWriter14write_log_sync00Bd_
FN:768,_RNCNCNvMs1_NtNtCs9nxHbwgHRMj_6rustdb7logging10log_writerNtB9_9LogWriter14write_log_sync0s0_0Bd_
FN:764,_RNCNCNvMs1_NtNtCs9nxHbwgHRMj_6rustdb7logging10log_writerNtB9_9LogWriter14write_log_sync0s_0Bd_
FN:575,_RNCNCNvMs1_NtNtCs9nxHbwgHRMj_6rustdb7logging10log_writerNtB9_9LogWriter18flush_write_buffer00Bd_
FN:621,_RNCNCNvMs1_NtNtCs9nxHbwgHRMj_6rustdb7logging10log_writerNtB9_9LogWriter21write_records_to_file00Bd_
FN:724,_RNCNCNvMs1_NtNtCs9nxHbwgHRMj_6rustdb7logging10log_writerNtB9_9LogWriter9write_log00Bd_
FN:728,_RNCNCNvMs1_NtNtCs9nxHbwgHRMj_6rustdb7logging10log_writerNtB9_9LogWriter9write_log0s_0Bd_
FN:735,_RNCNvMs1_NtNtCs9nxHbwgHRMj_6rustdb7logging10log_writerNtB7_9LogWriter14write_log_sync0Bb_
FN:337,_RNCNvMs1_NtNtCs9nxHbwgHRMj_6rustdb7logging10log_writerNtB7_9LogWriter16analyze_log_file0Bb_
FN:365,_RNCNvMs1_NtNtCs9nxHbwgHRMj_6rustdb7logging10log_writerNtB7_9LogWriter16analyze_log_files0_0Bb_
FN:341,_RNCNvMs1_NtNtCs9nxHbwgHRMj_6rustdb7logging10log_writerNtB7_9LogWriter16analyze_log_files_0Bb_
FN:563,_RNCNvMs1_NtNtCs9nxHbwgHRMj_6rustdb7logging10log_writerNtB7_9LogWriter18flush_write_buffer0Bb_
FN:472,_RNCNvMs1_NtNtCs9nxHbwgHRMj_6rustdb7logging10log_writerNtB7_9LogWriter20handle_write_request0Bb_
FN:619,_RNCNvMs1_NtNtCs9nxHbwgHRMj_6rustdb7logging10log_writerNtB7_9LogWriter21write_records_to_file0Bb_
FN:646,_RNCNvMs1_NtNtCs9nxHbwgHRMj_6rustdb7logging10log_writerNtB7_9LogWriter21write_records_to_files0_0Bb_
FN:661,_RNCNvMs1_NtNtCs9nxHbwgHRMj_6rustdb7logging10log_writerNtB7_9LogWriter21write_records_to_files1_0Bb_
FN:666,_RNCNvMs1_NtNtCs9nxHbwgHRMj_6rustdb7logging10log_writerNtB7_9LogWriter21write_records_to_files2_0Bb_
FN:677,_RNCNvMs1_NtNtCs9nxHbwgHRMj_6rustdb7logging10log_writerNtB7_9LogWriter21write_records_to_files3_0Bb_
FN:689,_RNCNvMs1_NtNtCs9nxHbwgHRMj_6rustdb7logging10log_writerNtB7_9LogWriter21write_records_to_files4_0Bb_
FN:696,_RNCNvMs1_NtNtCs9nxHbwgHRMj_6rustdb7logging10log_writerNtB7_9LogWriter21write_records_to_files5_0Bb_
FN:701,_RNCNvMs1_NtNtCs9nxHbwgHRMj_6rustdb7logging10log_writerNtB7_9LogWriter21write_records_to_files6_0Bb_
FN:626,_RNCNvMs1_NtNtCs9nxHbwgHRMj_6rustdb7logging10log_writerNtB7_9LogWriter21write_records_to_files_0Bb_
FN:384,_RNCNvMs1_NtNtCs9nxHbwgHRMj_6rustdb7logging10log_writerNtB7_9LogWriter22start_background_tasks0Bb_
FN:434,_RNCNvMs1_NtNtCs9nxHbwgHRMj_6rustdb7logging10log_writerNtB7_9LogWriter22start_background_taskss0_0Bb_
FN:409,_RNCNvMs1_NtNtCs9nxHbwgHRMj_6rustdb7logging10log_writerNtB7_9LogWriter22start_background_taskss_0Bb_
FN:299,_RNCNvMs1_NtNtCs9nxHbwgHRMj_6rustdb7logging10log_writerNtB7_9LogWriter23load_existing_log_files0Bb_
FN:307,_RNCNvMs1_NtNtCs9nxHbwgHRMj_6rustdb7logging10log_writerNtB7_9LogWriter23load_existing_log_filess0_0Bb_
FN:302,_RNCNvMs1_NtNtCs9nxHbwgHRMj_6rustdb7logging10log_writerNtB7_9LogWriter23load_existing_log_filess_0Bb_
FN:248,_RNCNvMs1_NtNtCs9nxHbwgHRMj_6rustdb7logging10log_writerNtB7_9LogWriter3new0Bb_
FN:774,_RNCNvMs1_NtNtCs9nxHbwgHRMj_6rustdb7logging10log_writerNtB7_9LogWriter5flush0Bb_
FN:708,_RNCNvMs1_NtNtCs9nxHbwgHRMj_6rustdb7logging10log_writerNtB7_9LogWriter9write_log0Bb_
FNDA:164,_RNvXs2_NtNtCsioRnW7FrYT6_6rustdb7logging10log_writerNtB5_9LogWriterNtNtNtCsixiwFwjEgS7_4core3ops4drop4Drop4drop
FNDA:0,_RNvMNtNtCsioRnW7FrYT6_6rustdb7logging10log_writerNtB2_15LogWriterConfig15high_throughput
FNDA:0,_RNvMNtNtCsioRnW7FrYT6_6rustdb7logging10log_writerNtB2_15LogWriterConfig7durable
FNDA:79,_RNvMs0_NtNtCsioRnW7FrYT6_6rustdb7logging10log_writerNtB5_12DoubleBuffer14take_for_flush
FNDA:327,_RNvMs0_NtNtCsioRnW7FrYT6_6rustdb7logging10log_writerNtB5_12DoubleBuffer3len
FNDA:164,_RNvMs0_NtNtCsioRnW7FrYT6_6rustdb7logging10log_writerNtB5_12DoubleBuffer3new
FNDA:85,_RNvMs0_NtNtCsioRnW7FrYT6_6rustdb7logging10log_writerNtB5_12DoubleBuffer4push
FNDA:85,_RNvMs1_NtNtCsioRnW7FrYT6_6rustdb7logging10log_writerNtB5_9LogWriter11current_lsn
FNDA:85,_RNvMs1_NtNtCsioRnW7FrYT6_6rustdb7logging10log_writerNtB5_9LogWriter12generate_lsn
FNDA:14,_RNvMs1_NtNtCsioRnW7FrYT6_6rustdb7logging10log_writerNtB5_9LogWriter13get_log_files
FNDA:0,_RNvMs1_NtNtCsioRnW7FrYT6_6rustdb7logging10log_writerNtB5_9LogWriter14get_statistics
FNDA:0,_RNvMs1_NtNtCsioRnW7FrYT6_6rustdb7logging10log_writerNtB5_9LogWriter14needs_rotation
FNDA:85,_RNvMs1_NtNtCsioRnW7FrYT6_6rustdb7logging10log_writerNtB5_9LogWriter14write_log_sync
FNDA:0,_RNvMs1_NtNtCsioRnW7FrYT6_6rustdb7logging10log_writerNtB5_9LogWriter15rotate_log_file
FNDA:8652,_RNvMs1_NtNtCsioRnW7FrYT6_6rustdb7logging10log_writerNtB5_9LogWriter16analyze_log_file
FNDA:0,_RNvMs1_NtNtCsioRnW7FrYT6_6rustdb7logging10log_writerNtB5_9LogWriter16cleanup_old_logs
FNDA:0,_RNvMs1_NtNtCsioRnW7FrYT6_6rustdb7logging10log_writerNtB5_9LogWriter16verify_integrity
FNDA:166,_RNvMs1_NtNtCsioRnW7FrYT6_6rustdb7logging10log_writerNtB5_9LogWriter18flush_write_buffer
FNDA:14,_RNvMs1_NtNtCsioRnW7FrYT6_6rustdb7logging10log_writerNtB5_9LogWriter18get_total_log_size
FNDA:95,_RNvMs1_NtNtCsioRnW7FrYT6_6rustdb7logging10log_writerNtB5_9LogWriter19notify_sync_waiters
FNDA:85,_RNvMs1_NtNtCsioRnW7FrYT6_6rustdb7logging10log_writerNtB5_9LogWriter20handle_write_request
FNDA:0,_RNvMs1_NtNtCsioRnW7FrYT6_6rustdb7logging10log_writerNtB5_9LogWriter21get_current_file_info
FNDA:79,_RNvMs1_NtNtCsioRnW7FrYT6_6rustdb7logging10log_writerNtB5_9LogWriter21write_records_to_file
FNDA:164,_RNvMs1_NtNtCsioRnW7FrYT6_6rustdb7logging10log_writerNtB5_9LogWriter22start_background_tasks
FNDA:164,_RNvMs1_NtNtCsioRnW7FrYT6_6rustdb7logging10log_writerNtB5_9LogWriter23load_existing_log_files
FNDA:164,_RNvMs1_NtNtCsioRnW7FrYT6_6rustdb7logging10log_writerNtB5_9LogWriter3new
FNDA:68,_RNvMs1_NtNtCsioRnW7FrYT6_6rustdb7logging10log_writerNtB5_9LogWriter5flush
FNDA:0,_RNvMs1_NtNtCsioRnW7FrYT6_6rustdb7logging10log_writerNtB5_9LogWriter9write_log
FNDA:164,_RNvXs_NtNtCsioRnW7FrYT6_6rustdb7logging10log_writerNtB4_15LogWriterConfigNtNtCsixiwFwjEgS7_4core7default7Default7default
FNDA:0,_RNCNCNvMs1_NtNtCsioRnW7FrYT6_6rustdb7logging10log_writerNtB9_9LogWriter14write_log_sync00Bd_
FNDA:0,_RNCNCNvMs1_NtNtCsioRnW7FrYT6_6rustdb7logging10log_writerNtB9_9LogWriter14write_log_sync0s0_0Bd_
FNDA:0,_RNCNCNvMs1_NtNtCsioRnW7FrYT6_6rustdb7logging10log_writerNtB9_9LogWriter14write_log_sync0s_0Bd_
FNDA:79,_RNCNCNvMs1_NtNtCsioRnW7FrYT6_6rustdb7logging10log_writerNtB9_9LogWriter18flush_write_buffer00Bd_
FNDA:0,_RNCNCNvMs1_NtNtCsioRnW7FrYT6_6rustdb7logging10log_writerNtB9_9LogWriter21write_records_to_file00Bd_
FNDA:85,_RNCNvMs1_NtNtCsioRnW7FrYT6_6rustdb7logging10log_writerNtB7_9LogWriter14write_log_sync0Bb_
FNDA:0,_RNCNvMs1_NtNtCsioRnW7FrYT6_6rustdb7logging10log_writerNtB7_9LogWriter16analyze_log_file0Bb_
FNDA:8652,_RNCNvMs1_NtNtCsioRnW7FrYT6_6rustdb7logging10log_writerNtB7_9LogWriter16analyze_log_files0_0Bb_
FNDA:8652,_RNCNvMs1_NtNtCsioRnW7FrYT6_6rustdb7logging10log_writerNtB7_9LogWriter16analyze_log_files_0Bb_
FNDA:166,_RNCNvMs1_NtNtCsioRnW7FrYT6_6rustdb7logging10log_writerNtB7_9LogWriter18flush_write_buffer0Bb_
FNDA:85,_RNCNvMs1_NtNtCsioRnW7FrYT6_6rustdb7logging10log_writerNtB7_9LogWriter20handle_write_request0Bb_
FNDA:79,_RNCNvMs1_NtNtCsioRnW7FrYT6_6rustdb7logging10log_writerNtB7_9LogWriter21write_records_to_file0Bb_
FNDA:0,_RNCNvMs1_NtNtCsioRnW7FrYT6_6rustdb7logging10log_writerNtB7_9LogWriter21write_records_to_files0_0Bb_
FNDA:0,_RNCNvMs1_NtNtCsioRnW7FrYT6_6rustdb7logging10log_writerNtB7_9LogWriter21write_records_to_files1_0Bb_
FNDA:0,_RNCNvMs1_NtNtCsioRnW7FrYT6_6rustdb7logging10log_writerNtB7_9LogWriter21write_records_to_files2_0Bb_
FNDA:0,_RNCNvMs1_NtNtCsioRnW7FrYT6_6rustdb7logging10log_writerNtB7_9LogWriter21write_records_to_files3_0Bb_
FNDA:0,_RNCNvMs1_NtNtCsioRnW7FrYT6_6rustdb7logging10log_writerNtB7_9LogWriter21write_records_to_files4_0Bb_
FNDA:0,_RNCNvMs1_NtNtCsioRnW7FrYT6_6rustdb7logging10log_writerNtB7_9LogWriter21write_records_to_files5_0Bb_
FNDA:0,_RNCNvMs1_NtNtCsioRnW7FrYT6_6rustdb7logging10log_writerNtB7_9LogWriter21write_records_to_files6_0Bb_
FNDA:79,_RNCNvMs1_NtNtCsioRnW7FrYT6_6rustdb7logging10log_writerNtB7_9LogWriter21write_records_to_files_0Bb_
FNDA:48,_RNCNvMs1_NtNtCsioRnW7FrYT6_6rustdb7logging10log_writerNtB7_9LogWriter22start_background_tasks0Bb_
FNDA:48,_RNCNvMs1_NtNtCsioRnW7FrYT6_6rustdb7logging10log_writerNtB7_9LogWriter22start_background_taskss0_0Bb_
FNDA:48,_RNCNvMs1_NtNtCsioRnW7FrYT6_6rustdb7logging10log_writerNtB7_9LogWriter22start_background_taskss_0Bb_
FNDA:0,_RNCNvMs1_NtNtCsioRnW7FrYT6_6rustdb7logging10log_writerNtB7_9LogWriter23load_existing_log_files0Bb_
FNDA:8652,_RNCNvMs1_NtNtCsioRnW7FrYT6_6rustdb7logging10log_writerNtB7_9LogWriter23load_existing_log_filess0_0Bb_
FNDA:0,_RNCNvMs1_NtNtCsioRnW7FrYT6_6rustdb7logging10log_writerNtB7_9LogWriter23load_existing_log_filess_0Bb_
FNDA:0,_RNCNvMs1_NtNtCsioRnW7FrYT6_6rustdb7logging10log_writerNtB7_9LogWriter3new0Bb_
FNDA:68,_RNCNvMs1_NtNtCsioRnW7FrYT6_6rustdb7logging10log_writerNtB7_9LogWriter5flush0Bb_
FNDA:0,_RNCNCNvMs1_NtNtCsioRnW7FrYT6_6rustdb7logging10log_writerNtB9_9LogWriter9write_log00Bd_
FNDA:0,_RNCNCNvMs1_NtNtCsioRnW7FrYT6_6rustdb7logging10log_writerNtB9_9LogWriter9write_log0s_0Bd_
FNDA:0,_RNCNvMs1_NtNtCsioRnW7FrYT6_6rustdb7logging10log_writerNtB7_9LogWriter15rotate_log_file0Bb_
FNDA:0,_RNCNvMs1_NtNtCsioRnW7FrYT6_6rustdb7logging10log_writerNtB7_9LogWriter16cleanup_old_logs0Bb_
FNDA:0,_RNCNvMs1_NtNtCsioRnW7FrYT6_6rustdb7logging10log_writerNtB7_9LogWriter16verify_integrity0Bb_
FNDA:0,_RNCNvMs1_NtNtCsioRnW7FrYT6_6rustdb7logging10log_writerNtB7_9LogWriter9write_log0Bb_
FNDA:0,_RNCNvMs1_NtNtCs9nxHbwgHRMj_6rustdb7logging10log_writerNtB7_9LogWriter15rotate_log_file0Bb_
FNDA:0,_RNCNvMs1_NtNtCs9nxHbwgHRMj_6rustdb7logging10log_writerNtB7_9LogWriter16cleanup_old_logs0Bb_
FNDA:0,_RNCNvMs1_NtNtCs9nxHbwgHRMj_6rustdb7logging10log_writerNtB7_9LogWriter16verify_integrity0Bb_
FNDA:0,_RNvMNtNtCs9nxHbwgHRMj_6rustdb7logging10log_writerNtB2_15LogWriterConfig15high_throughput
FNDA:0,_RNvMNtNtCs9nxHbwgHRMj_6rustdb7logging10log_writerNtB2_15LogWriterConfig7durable
FNDA:0,_RNvMs1_NtNtCs9nxHbwgHRMj_6rustdb7logging10log_writerNtB5_9LogWriter14needs_rotation
FNDA:0,_RNvMs1_NtNtCs9nxHbwgHRMj_6rustdb7logging10log_writerNtB5_9LogWriter15rotate_log_file
FNDA:0,_RNvMs1_NtNtCs9nxHbwgHRMj_6rustdb7logging10log_writerNtB5_9LogWriter16cleanup_old_logs
FNDA:0,_RNvMs1_NtNtCs9nxHbwgHRMj_6rustdb7logging10log_writerNtB5_9LogWriter16verify_integrity
FNDA:0,_RNvMs1_NtNtCs9nxHbwgHRMj_6rustdb7logging10log_writerNtB5_9LogWriter21get_current_file_info
FNDA:1,_RNvNtNtNtCs9nxHbwgHRMj_6rustdb7logging10log_writer5testss_14test_write_log
FNDA:1,_RNvNtNtNtCs9nxHbwgHRMj_6rustdb7logging10log_writer5testss_15test_statistics
FNDA:1,_RNvNtNtNtCs9nxHbwgHRMj_6rustdb7logging10log_writer5testss_19test_lsn_generation
FNDA:1,_RNvNtNtNtCs9nxHbwgHRMj_6rustdb7logging10log_writer5testss_19test_write_log_sync
FNDA:1,_RNvNtNtNtCs9nxHbwgHRMj_6rustdb7logging10log_writer5testss_20test_multiple_writes
FNDA:1,_RNvNtNtNtCs9nxHbwgHRMj_6rustdb7logging10log_writer5testss_22test_buffer_management
FNDA:1,_RNvNtNtNtCs9nxHbwgHRMj_6rustdb7logging10log_writer5testss_24test_log_writer_creation
FNDA:1,_RNCNvNtNtNtCs9nxHbwgHRMj_6rustdb7logging10log_writer5testss_14test_write_log0B9_
FNDA:1,_RNCNvNtNtNtCs9nxHbwgHRMj_6rustdb7logging10log_writer5testss_15test_statistics0B9_
FNDA:1,_RNCNvNtNtNtCs9nxHbwgHRMj_6rustdb7logging10log_writer5testss_19test_lsn_generation0B9_
FNDA:1,_RNCNvNtNtNtCs9nxHbwgHRMj_6rustdb7logging10log_writer5testss_19test_write_log_sync0B9_
FNDA:1,_RNCNvNtNtNtCs9nxHbwgHRMj_6rustdb7logging10log_writer5testss_20test_multiple_writes0B9_
FNDA:1,_RNCNvNtNtNtCs9nxHbwgHRMj_6rustdb7logging10log_writer5testss_22test_buffer_management0B9_
FNDA:1,_RNCNvNtNtNtCs9nxHbwgHRMj_6rustdb7logging10log_writer5testss_24test_log_writer_creation0B9_
FNDA:47,_RNvMs0_NtNtCs9nxHbwgHRMj_6rustdb7logging10log_writerNtB5_12DoubleBuffer14take_for_flush
FNDA:342,_RNvMs0_NtNtCs9nxHbwgHRMj_6rustdb7logging10log_writerNtB5_12DoubleBuffer3len
FNDA:67,_RNvMs0_NtNtCs9nxHbwgHRMj_6rustdb7logging10log_writerNtB5_12DoubleBuffer3new
FNDA:224,_RNvMs0_NtNtCs9nxHbwgHRMj_6rustdb7logging10log_writerNtB5_12DoubleBuffer4push
FNDA:36,_RNvMs1_NtNtCs9nxHbwgHRMj_6rustdb7logging10log_writerNtB5_9LogWriter11current_lsn
FNDA:107,_RNvMs1_NtNtCs9nxHbwgHRMj_6rustdb7logging10log_writerNtB5_9LogWriter12generate_lsn
FNDA:2,_RNvMs1_NtNtCs9nxHbwgHRMj_6rustdb7logging10log_writerNtB5_9LogWriter13get_log_files
FNDA:7,_RNvMs1_NtNtCs9nxHbwgHRMj_6rustdb7logging10log_writerNtB5_9LogWriter14get_statistics
FNDA:51,_RNvMs1_NtNtCs9nxHbwgHRMj_6rustdb7logging10log_writerNtB5_9LogWriter14write_log_sync
FNDA:2273,_RNvMs1_NtNtCs9nxHbwgHRMj_6rustdb7logging10log_writerNtB5_9LogWriter16analyze_log_file
FNDA:93,_RNvMs1_NtNtCs9nxHbwgHRMj_6rustdb7logging10log_writerNtB5_9LogWriter18flush_write_buffer
FNDA:2,_RNvMs1_NtNtCs9nxHbwgHRMj_6rustdb7logging10log_writerNtB5_9LogWriter18get_total_log_size
FNDA:56,_RNvMs1_NtNtCs9nxHbwgHRMj_6rustdb7logging10log_writerNtB5_9LogWriter19notify_sync_waiters
FNDA:224,_RNvMs1_NtNtCs9nxHbwgHRMj_6rustdb7logging10log_writerNtB5_9LogWriter20handle_write_request
FNDA:47,_RNvMs1_NtNtCs9nxHbwgHRMj_6rustdb7logging10log_writerNtB5_9LogWriter21write_records_to_file
FNDA:67,_RNvMs1_NtNtCs9nxHbwgHRMj_6rustdb7logging10log_writerNtB5_9LogWriter22start_background_tasks
FNDA:67,_RNvMs1_NtNtCs9nxHbwgHRMj_6rustdb7logging10log_writerNtB5_9LogWriter23load_existing_log_files
FNDA:67,_RNvMs1_NtNtCs9nxHbwgHRMj_6rustdb7logging10log_writerNtB5_9LogWriter3new
FNDA:21,_RNvMs1_NtNtCs9nxHbwgHRMj_6rustdb7logging10log_writerNtB5_9LogWriter5flush
FNDA:173,_RNvMs1_NtNtCs9nxHbwgHRMj_6rustdb7logging10log_writerNtB5_9LogWriter9write_log
FNDA:70,_RNvXs_NtNtCs9nxHbwgHRMj_6rustdb7logging10log_writerNtB4_15LogWriterConfigNtNtCsixiwFwjEgS7_4core7default7Default7default
FNDA:67,_RNvXs2_NtNtCs9nxHbwgHRMj_6rustdb7logging10log_writerNtB5_9LogWriterNtNtNtCsixiwFwjEgS7_4core3ops4drop4Drop4drop
FNDA:0,_RNCNCNvMs1_NtNtCs9nxHbwgHRMj_6rustdb7logging10log_writerNtB9_9LogWriter14write_log_sync00Bd_
FNDA:0,_RNCNCNvMs1_NtNtCs9nxHbwgHRMj_6rustdb7logging10log_writerNtB9_9LogWriter14write_log_sync0s0_0Bd_
FNDA:0,_RNCNCNvMs1_NtNtCs9nxHbwgHRMj_6rustdb7logging10log_writerNtB9_9LogWriter14write_log_sync0s_0Bd_
FNDA:47,_RNCNCNvMs1_NtNtCs9nxHbwgHRMj_6rustdb7logging10log_writerNtB9_9LogWriter18flush_write_buffer00Bd_
FNDA:0,_RNCNCNvMs1_NtNtCs9nxHbwgHRMj_6rustdb7logging10log_writerNtB9_9LogWriter21write_records_to_file00Bd_
FNDA:0,_RNCNCNvMs1_NtNtCs9nxHbwgHRMj_6rustdb7logging10log_writerNtB9_9LogWriter9write_log00Bd_
FNDA:0,_RNCNCNvMs1_NtNtCs9nxHbwgHRMj_6rustdb7logging10log_writerNtB9_9LogWriter9write_log0s_0Bd_
FNDA:51,_RNCNvMs1_NtNtCs9nxHbwgHRMj_6rustdb7logging10log_writerNtB7_9LogWriter14write_log_sync0Bb_
FNDA:0,_RNCNvMs1_NtNtCs9nxHbwgHRMj_6rustdb7logging10log_writerNtB7_9LogWriter16analyze_log_file0Bb_
FNDA:2273,_RNCNvMs1_NtNtCs9nxHbwgHRMj_6rustdb7logging10log_writerNtB7_9LogWriter16analyze_log_files0_0Bb_
FNDA:2273,_RNCNvMs1_NtNtCs9nxHbwgHRMj_6rustdb7logging10log_writerNtB7_9LogWriter16analyze_log_files_0Bb_
FNDA:93,_RNCNvMs1_NtNtCs9nxHbwgHRMj_6rustdb7logging10log_writerNtB7_9LogWriter18flush_write_buffer0Bb_
FNDA:224,_RNCNvMs1_NtNtCs9nxHbwgHRMj_6rustdb7logging10log_writerNtB7_9LogWriter20handle_write_request0Bb_
FNDA:166,_RNCNvMs1_NtNtCs9nxHbwgHRMj_6rustdb7logging10log_writerNtB7_9LogWriter21write_records_to_file0Bb_
FNDA:15,_RNCNvMs1_NtNtCs9nxHbwgHRMj_6rustdb7logging10log_writerNtB7_9LogWriter21write_records_to_files0_0Bb_
FNDA:0,_RNCNvMs1_NtNtCs9nxHbwgHRMj_6rustdb7logging10log_writerNtB7_9LogWriter21write_records_to_files1_0Bb_
FNDA:0,_RNCNvMs1_NtNtCs9nxHbwgHRMj_6rustdb7logging10log_writerNtB7_9LogWriter21write_records_to_files2_0Bb_
FNDA:0,_RNCNvMs1_NtNtCs9nxHbwgHRMj_6rustdb7logging10log_writerNtB7_9LogWriter21write_records_to_files3_0Bb_
FNDA:0,_RNCNvMs1_NtNtCs9nxHbwgHRMj_6rustdb7logging10log_writerNtB7_9LogWriter21write_records_to_files4_0Bb_
FNDA:0,_RNCNvMs1_NtNtCs9nxHbwgHRMj_6rustdb7logging10log_writerNtB7_9LogWriter21write_records_to_files5_0Bb_
FNDA:0,_RNCNvMs1_NtNtCs9nxHbwgHRMj_6rustdb7logging10log_writerNtB7_9LogWriter21write_records_to_files6_0Bb_
FNDA:166,_RNCNvMs1_NtNtCs9nxHbwgHRMj_6rustdb7logging10log_writerNtB7_9LogWriter21write_records_to_files_0Bb_
FNDA:35,_RNCNvMs1_NtNtCs9nxHbwgHRMj_6rustdb7logging10log_writerNtB7_9LogWriter22start_background_tasks0Bb_
FNDA:33,_RNCNvMs1_NtNtCs9nxHbwgHRMj_6rustdb7logging10log_writerNtB7_9LogWriter22start_background_taskss0_0Bb_
FNDA:35,_RNCNvMs1_NtNtCs9nxHbwgHRMj_6rustdb7logging10log_writerNtB7_9LogWriter22start_background_taskss_0Bb_
FNDA:0,_RNCNvMs1_NtNtCs9nxHbwgHRMj_6rustdb7logging10log_writerNtB7_9LogWriter23load_existing_log_files0Bb_
FNDA:2273,_RNCNvMs1_NtNtCs9nxHbwgHRMj_6rustdb7logging10log_writerNtB7_9LogWriter23load_existing_log_filess0_0Bb_
FNDA:0,_RNCNvMs1_NtNtCs9nxHbwgHRMj_6rustdb7logging10log_writerNtB7_9LogWriter23load_existing_log_filess_0Bb_
FNDA:0,_RNCNvMs1_NtNtCs9nxHbwgHRMj_6rustdb7logging10log_writerNtB7_9LogWriter3new0Bb_
FNDA:21,_RNCNvMs1_NtNtCs9nxHbwgHRMj_6rustdb7logging10log_writerNtB7_9LogWriter5flush0Bb_
FNDA:173,_RNCNvMs1_NtNtCs9nxHbwgHRMj_6rustdb7logging10log_writerNtB7_9LogWriter9write_log0Bb_
FNF:77
FNH:51
DA:72,0
DA:73,0
DA:74,0
DA:75,0
DA:76,0
DA:77,0
DA:78,0
DA:79,0
DA:80,0
DA:81,0
DA:84,0
DA:85,0
DA:86,0
DA:87,0
DA:88,0
DA:89,0
DA:90,0
DA:91,0
DA:95,234
DA:96,234
DA:97,234
DA:98,234
DA:99,234
DA:100,234
DA:101,234
DA:102,234
DA:103,234
DA:104,234
DA:105,234
DA:106,234
DA:107,234
DA:108,234
DA:109,234
DA:110,234
DA:111,234
DA:112,234
DA:152,231
DA:153,231
DA:154,231
DA:155,231
DA:156,231
DA:157,231
DA:159,309
DA:160,309
DA:161,309
DA:163,669
DA:164,669
DA:165,669
DA:168,126
DA:169,126
DA:170,126
DA:171,126
DA:244,231
DA:246,231
DA:247,0
DA:248,0
DA:249,231
DA:251,231
DA:252,231
DA:255,231
DA:256,231
DA:257,231
DA:258,231
DA:259,231
DA:261,0
DA:264,231
DA:266,231
DA:267,231
DA:268,231
DA:269,231
DA:270,231
DA:271,231
DA:272,231
DA:273,231
DA:274,231
DA:275,231
DA:276,231
DA:277,231
DA:278,231
DA:279,231
DA:280,231
DA:281,231
DA:284,231
DA:287,231
DA:289,231
DA:290,231
DA:293,231
DA:294,231
DA:295,231
DA:297,231
DA:298,231
DA:299,231
DA:301,11156
DA:302,10925
DA:303,0
DA:304,0
DA:305,10925
DA:307,10925
DA:308,10925
DA:309,10925
DA:310,0
DA:311,10925
DA:312,10925
DA:313,0
DA:314,0
DA:316,0
DA:319,231
DA:322,231
DA:323,212
DA:324,212
DA:326,231
DA:329,231
DA:331,231
DA:332,231
DA:335,10925
DA:336,10925
DA:337,10925
DA:339,10925
DA:340,10925
DA:341,10925
DA:342,10925
DA:343,10925
DA:346,10925
DA:347,10925
DA:348,10925
DA:349,10925
DA:353,10925
DA:354,10925
DA:355,10925
DA:356,10925
DA:357,10925
DA:358,10925
DA:359,10925
DA:360,10925
DA:361,10925
DA:362,10925
DA:363,10925
DA:364,10925
DA:365,10925
DA:368,10925
DA:369,10925
DA:372,231
DA:373,231
DA:374,231
DA:375,231
DA:376,231
DA:377,231
DA:378,231
DA:379,231
DA:380,231
DA:381,231
DA:384,231
DA:385,392
DA:386,309
DA:387,309
DA:388,309
DA:389,309
DA:390,309
DA:391,309
DA:392,309
DA:393,309
DA:395,309
DA:396,309
DA:397,309
DA:398,309
DA:400,0
DA:403,231
DA:404,231
DA:405,231
DA:406,231
DA:407,231
DA:409,231
DA:410,83
DA:413,129
DA:414,59
DA:415,59
DA:416,59
DA:417,59
DA:418,59
DA:419,59
DA:420,59
DA:421,46
DA:426,231
DA:427,229
DA:428,229
DA:429,229
DA:430,229
DA:431,229
DA:432,229
DA:434,229
DA:435,81
DA:438,1977
DA:439,1900
DA:440,1900
DA:441,1900
DA:443,1900
DA:444,109
DA:445,109
DA:446,105
DA:447,1791
DA:450,2
DA:451,231
DA:454,151
DA:455,151
DA:456,151
DA:457,126
DA:458,126
DA:459,151
DA:462,309
DA:463,309
DA:464,309
DA:465,309
DA:466,309
DA:467,309
DA:468,309
DA:469,309
DA:470,309
DA:471,309
DA:472,309
DA:473,309
DA:477,309
DA:478,309
DA:479,309
DA:480,309
DA:481,309
DA:483,309
DA:484,309
DA:485,309
DA:486,136
DA:487,173
DA:488,309
DA:489,309
DA:490,309
DA:493,309
DA:494,309
DA:495,309
DA:496,136
DA:498,309
DA:499,138
DA:500,0
DA:501,0
DA:502,0
DA:503,0
DA:504,0
DA:505,138
DA:506,136
DA:507,136
DA:508,136
DA:509,136
DA:510,0
DA:511,136
DA:512,0
DA:515,2
DA:516,2
DA:517,2
DA:519,171
DA:520,171
DA:521,171
DA:523,309
DA:524,0
DA:525,309
DA:529,309
DA:530,309
DA:531,0
DA:532,309
DA:534,309
DA:535,309
DA:536,309
DA:537,309
DA:538,309
DA:539,309
DA:540,309
DA:542,309
DA:543,309
DA:544,309
DA:545,186
DA:546,186
DA:549,309
DA:550,0
DA:551,309
DA:552,309
DA:553,2
DA:554,307
DA:555,309
DA:558,259
DA:559,259
DA:560,259
DA:561,259
DA:562,259
DA:563,259
DA:564,126
DA:565,259
DA:566,259
DA:567,133
DA:568,126
DA:570,126
DA:573,126
DA:574,126
DA:575,126
DA:576,126
DA:577,126
DA:578,126
DA:580,109
DA:581,101
DA:583,8
DA:584,8
DA:585,8
DA:586,8
DA:592,101
DA:593,101
DA:594,101
DA:597,101
DA:598,100
DA:599,100
DA:601,242
DA:605,126
DA:606,126
DA:607,126
DA:608,126
DA:609,126
DA:612,126
DA:613,0
DA:614,126
DA:617,126
DA:618,126
DA:619,245
DA:620,245
DA:621,245
DA:622,245
DA:623,126
DA:626,245
DA:627,126
DA:628,371
DA:629,245
DA:630,245
DA:631,245
DA:633,126
DA:636,126
DA:637,56
DA:638,56
DA:639,56
DA:640,56
DA:641,56
DA:642,56
DA:643,56
DA:644,56
DA:645,56
DA:646,56
DA:647,41
DA:648,41
DA:649,41
DA:650,41
DA:651,41
DA:652,70
DA:654,111
DA:657,111
DA:658,0
DA:659,0
DA:660,0
DA:661,0
DA:662,0
DA:663,0
DA:664,0
DA:665,0
DA:666,0
DA:668,0
DA:669,0
DA:670,0
DA:671,0
DA:672,0
DA:673,0
DA:674,0
DA:675,0
DA:676,0
DA:677,0
DA:678,0
DA:679,0
DA:680,0
DA:681,0
DA:682,0
DA:683,111
DA:685,111
DA:686,111
DA:687,111
DA:688,111
DA:689,111
DA:690,111
DA:692,111
DA:693,111
DA:694,111
DA:695,111
DA:696,111
DA:697,111
DA:698,111
DA:699,111
DA:700,111
DA:701,111
DA:702,0
DA:704,111
DA:705,126
DA:708,173
DA:710,173
DA:711,56
DA:712,117
DA:714,173
DA:715,173
DA:716,173
DA:717,173
DA:718,173
DA:719,173
DA:720,173
DA:722,173
DA:723,173
DA:724,173
DA:726,173
DA:727,173
DA:728,173
DA:730,173
DA:731,173
DA:735,136
DA:736,136
DA:737,136
DA:738,136
DA:740,136
DA:742,0
DA:743,0
DA:744,0
DA:745,0
DA:746,0
DA:747,0
DA:748,0
DA:749,0
DA:750,0
DA:751,0
DA:752,136
DA:754,136
DA:755,136
DA:756,136
DA:757,136
DA:758,136
DA:759,136
DA:760,136
DA:762,136
DA:763,136
DA:764,136
DA:766,136
DA:767,136
DA:768,126
DA:770,126
DA:771,126
DA:774,89
DA:775,89
DA:776,89
DA:777,89
DA:778,89
DA:779,89
DA:780,89
DA:781,89
DA:783,89
DA:784,89
DA:785,89
DA:786,89
DA:788,89
DA:789,89
DA:792,192
DA:793,192
DA:794,192
DA:795,192
DA:796,192
DA:797,192
DA:800,121
DA:801,121
DA:802,121
DA:803,121
DA:806,7
DA:807,7
DA:808,7
DA:811,0
DA:812,0
DA:813,0
DA:816,16
DA:817,16
DA:818,16
DA:821,0
DA:823,0
DA:824,0
DA:825,0
DA:826,0
DA:828,0
DA:829,0
DA:832,0
DA:833,0
DA:834,0
DA:836,0
DA:837,0
DA:838,0
DA:839,0
DA:840,0
DA:842,0
DA:843,0
DA:846,0
DA:847,0
DA:848,0
DA:850,0
DA:851,0
DA:852,0
DA:853,0
DA:854,0
DA:855,0
DA:857,0
DA:858,0
DA:861,16
DA:862,16
DA:863,16
DA:866,0
DA:867,0
DA:868,0
DA:870,0
DA:872,0
DA:876,231
DA:878,231
DA:879,231
DA:880,231
DA:881,231
DA:882,231
DA:883,231
DA:884,231
DA:885,229
DA:886,229
DA:887,231
DA:897,1
DA:898,1
DA:899,1
DA:900,1
DA:902,1
DA:903,2
DA:904,1
DA:907,1
DA:908,1
DA:909,1
DA:910,1
DA:911,1
DA:913,1
DA:915,1
DA:916,1
DA:918,1
DA:920,1
DA:921,1
DA:923,2
DA:924,1
DA:927,1
DA:928,1
DA:929,1
DA:930,1
DA:931,1
DA:933,1
DA:935,1
DA:936,1
DA:938,1
DA:940,1
DA:941,1
DA:942,1
DA:944,2
DA:945,1
DA:948,1
DA:949,1
DA:950,1
DA:951,1
DA:952,1
DA:954,1
DA:957,11
DA:958,10
DA:959,10
DA:960,10
DA:964,1
DA:966,1
DA:967,1
DA:968,1
DA:970,2
DA:971,1
DA:974,1
DA:975,1
DA:976,1
DA:977,1
DA:979,1
DA:981,1
DA:982,6
DA:983,5
DA:984,5
DA:985,5
DA:986,1
DA:987,5
DA:988,5
DA:989,1
DA:990,1
DA:991,1
DA:992,1
DA:995,1
DA:996,1
DA:997,1
DA:998,1
DA:999,1
DA:1001,1
DA:1004,1
DA:1005,1
DA:1006,1
DA:1007,1
DA:1008,1
DA:1009,1
DA:1010,1
DA:1011,1
DA:1012,1
DA:1013,1
DA:1014,1
DA:1015,1
DA:1016,1
DA:1017,1
DA:1018,1
DA:1019,1
DA:1020,1
DA:1021,1
DA:1022,1
DA:1023,1
DA:1024,1
DA:1025,1
DA:1026,1
DA:1027,1
DA:1028,1
DA:1029,1
DA:1031,1
DA:1032,1
DA:1033,1
DA:1034,0
DA:1037,1
DA:1038,1
DA:1039,1
DA:1041,2
DA:1042,1
DA:1045,1
DA:1046,1
DA:1047,1
DA:1048,1
DA:1049,1
DA:1050,1
DA:1052,1
DA:1055,3
DA:1056,2
DA:1057,2
DA:1061,1
DA:1063,1
DA:1064,1
DA:1065,1
DA:1066,0
DA:1069,1
DA:1070,1
DA:1071,0
DA:1076,2
DA:1077,1
BRF:0
BRH:0
LF:713
LH:580
end_of_record
SF:C:\Users\Admin\RustProjects\RustBD\src\logging\metrics.rs
FN:771,_RNvXs3_NtNtCsioRnW7FrYT6_6rustdb7logging7metricsNtB5_21LoggingMetricsManagerNtNtNtCsixiwFwjEgS7_4core3ops4drop4Drop4drop
FN:56,_RNvMNtNtCsioRnW7FrYT6_6rustdb7logging7metricsNtB2_16OperationCounter12success_rate
FN:41,_RNvMNtNtCsioRnW7FrYT6_6rustdb7logging7metricsNtB2_16OperationCounter16increment_failed
FN:48,_RNvMNtNtCsioRnW7FrYT6_6rustdb7logging7metricsNtB2_16OperationCounter16update_timestamp
FN:34,_RNvMNtNtCsioRnW7FrYT6_6rustdb7logging7metricsNtB2_16OperationCounter17increment_success
FN:165,_RNvMs0_NtNtCsioRnW7FrYT6_6rustdb7logging7metricsNtB5_10SizeMetric11record_size
FN:186,_RNvMs0_NtNtCsioRnW7FrYT6_6rustdb7logging7metricsNtB5_10SizeMetric6avg_kb
FN:181,_RNvMs0_NtNtCsioRnW7FrYT6_6rustdb7logging7metricsNtB5_10SizeMetric8total_mb
FN:562,_RNvMs1_NtNtCsioRnW7FrYT6_6rustdb7logging7metricsNtB5_14LoggingMetrics11export_json
FN:428,_RNvMs1_NtNtCsioRnW7FrYT6_6rustdb7logging7metricsNtB5_14LoggingMetrics16total_operations
FN:271,_RNvMs1_NtNtCsioRnW7FrYT6_6rustdb7logging7metricsNtB5_14LoggingMetrics16update_timestamp
FN:483,_RNvMs1_NtNtCsioRnW7FrYT6_6rustdb7logging7metricsNtB5_14LoggingMetrics17export_prometheus
FN:436,_RNvMs1_NtNtCsioRnW7FrYT6_6rustdb7logging7metricsNtB5_14LoggingMetrics20overall_success_rate
FN:282,_RNvMs1_NtNtCsioRnW7FrYT6_6rustdb7logging7metricsNtB5_14LoggingMetrics20record_log_operation
FN:343,_RNvMs1_NtNtCsioRnW7FrYT6_6rustdb7logging7metricsNtB5_14LoggingMetrics21record_sync_operation
FN:418,_RNvMs1_NtNtCsioRnW7FrYT6_6rustdb7logging7metricsNtB5_14LoggingMetrics22recalculate_throughput
FN:400,_RNvMs1_NtNtCsioRnW7FrYT6_6rustdb7logging7metricsNtB5_14LoggingMetrics22update_cache_hit_ratio
FN:463,_RNvMs1_NtNtCsioRnW7FrYT6_6rustdb7logging7metricsNtB5_14LoggingMetrics23top_operations_by_count
FN:406,_RNvMs1_NtNtCsioRnW7FrYT6_6rustdb7logging7metricsNtB5_14LoggingMetrics23update_disk_utilization
FN:412,_RNvMs1_NtNtCsioRnW7FrYT6_6rustdb7logging7metricsNtB5_14LoggingMetrics24update_log_fragmentation
FN:377,_RNvMs1_NtNtCsioRnW7FrYT6_6rustdb7logging7metricsNtB5_14LoggingMetrics25record_recovery_operation
FN:394,_RNvMs1_NtNtCsioRnW7FrYT6_6rustdb7logging7metricsNtB5_14LoggingMetrics25update_buffer_utilization
